ARM GAS  C:\Users\Tilen\AppData\Local\Temp\cc6ISDp8.s 			page 1


   1              		.cpu cortex-m0plus
   2              		.arch armv6s-m
   3              		.fpu softvfp
   4              		.eabi_attribute 20, 1
   5              		.eabi_attribute 21, 1
   6              		.eabi_attribute 23, 3
   7              		.eabi_attribute 24, 1
   8              		.eabi_attribute 25, 1
   9              		.eabi_attribute 26, 1
  10              		.eabi_attribute 30, 1
  11              		.eabi_attribute 34, 0
  12              		.eabi_attribute 18, 4
  13              		.file	"main.c"
  14              		.text
  15              	.Ltext0:
  16              		.cfi_sections	.debug_frame
  17              		.file 1 "Core/Src/main.c"
  18              		.section	.text.SHT40_Crc8,"ax",%progbits
  19              		.align	1
  20              		.syntax unified
  21              		.code	16
  22              		.thumb_func
  24              	SHT40_Crc8:
  25              	.LVL0:
  26              	.LFB53:
   1:Core/Src/main.c **** /* USER CODE BEGIN Header */
   2:Core/Src/main.c **** /**
   3:Core/Src/main.c ****   ******************************************************************************
   4:Core/Src/main.c ****   * @file           : main.c
   5:Core/Src/main.c ****   * @brief          : Main program body
   6:Core/Src/main.c ****   ******************************************************************************
   7:Core/Src/main.c ****   * @attention
   8:Core/Src/main.c ****   *
   9:Core/Src/main.c ****   * Copyright (c) 2026 STMicroelectronics.
  10:Core/Src/main.c ****   * All rights reserved.
  11:Core/Src/main.c ****   *
  12:Core/Src/main.c ****   * This software is licensed under terms that can be found in the LICENSE file
  13:Core/Src/main.c ****   * in the root directory of this software component.
  14:Core/Src/main.c ****   * If no LICENSE file comes with this software, it is provided AS-IS.
  15:Core/Src/main.c ****   *
  16:Core/Src/main.c ****   ******************************************************************************
  17:Core/Src/main.c ****   */
  18:Core/Src/main.c **** /* USER CODE END Header */
  19:Core/Src/main.c **** /* Includes ------------------------------------------------------------------*/
  20:Core/Src/main.c **** #include "main.h"
  21:Core/Src/main.c **** 
  22:Core/Src/main.c **** /* Private includes ----------------------------------------------------------*/
  23:Core/Src/main.c **** /* USER CODE BEGIN Includes */
  24:Core/Src/main.c **** #include <stdarg.h>
  25:Core/Src/main.c **** #include <stdio.h>
  26:Core/Src/main.c **** #include <string.h>
  27:Core/Src/main.c **** 
  28:Core/Src/main.c **** /* USER CODE END Includes */
  29:Core/Src/main.c **** 
  30:Core/Src/main.c **** /* Private typedef -----------------------------------------------------------*/
  31:Core/Src/main.c **** /* USER CODE BEGIN PTD */
  32:Core/Src/main.c **** 
ARM GAS  C:\Users\Tilen\AppData\Local\Temp\cc6ISDp8.s 			page 2


  33:Core/Src/main.c **** /* USER CODE END PTD */
  34:Core/Src/main.c **** 
  35:Core/Src/main.c **** /* Private define ------------------------------------------------------------*/
  36:Core/Src/main.c **** /* USER CODE BEGIN PD */
  37:Core/Src/main.c **** #define DEMO_WAKE_SECONDS 2U
  38:Core/Src/main.c **** #define SHT40_I2C_ADDR         (0x44U << 1)
  39:Core/Src/main.c **** #define SHT40_CMD_MEASURE_HIGH 0xFDU
  40:Core/Src/main.c **** 
  41:Core/Src/main.c **** /* USER CODE END PD */
  42:Core/Src/main.c **** 
  43:Core/Src/main.c **** /* Private macro -------------------------------------------------------------*/
  44:Core/Src/main.c **** /* USER CODE BEGIN PM */
  45:Core/Src/main.c **** 
  46:Core/Src/main.c **** /* USER CODE END PM */
  47:Core/Src/main.c **** 
  48:Core/Src/main.c **** /* Private variables ---------------------------------------------------------*/
  49:Core/Src/main.c **** I2C_HandleTypeDef hi2c2;
  50:Core/Src/main.c **** 
  51:Core/Src/main.c **** LCD_HandleTypeDef hlcd;
  52:Core/Src/main.c **** 
  53:Core/Src/main.c **** RTC_HandleTypeDef hrtc;
  54:Core/Src/main.c **** 
  55:Core/Src/main.c **** UART_HandleTypeDef huart2;
  56:Core/Src/main.c **** 
  57:Core/Src/main.c **** /* USER CODE BEGIN PV */
  58:Core/Src/main.c **** volatile uint8_t g_rtc_wakeup = 0U;
  59:Core/Src/main.c **** volatile uint8_t g_use_lse = 0U;
  60:Core/Src/main.c **** /* USER CODE END PV */
  61:Core/Src/main.c **** 
  62:Core/Src/main.c **** /* Private function prototypes -----------------------------------------------*/
  63:Core/Src/main.c **** void SystemClock_Config(void);
  64:Core/Src/main.c **** static void MX_GPIO_Init(void);
  65:Core/Src/main.c **** static void MX_LCD_Init(void);
  66:Core/Src/main.c **** static void MX_USART2_UART_Init(void);
  67:Core/Src/main.c **** static void MX_RTC_Init(void);
  68:Core/Src/main.c **** static void MX_I2C2_Init(void);
  69:Core/Src/main.c **** /* USER CODE BEGIN PFP */
  70:Core/Src/main.c **** static void LCD_DisplayNumber3(uint16_t value);
  71:Core/Src/main.c **** static uint16_t MockHumidityX10(void);
  72:Core/Src/main.c **** static void DebugPrint(const char *text);
  73:Core/Src/main.c **** static void DebugPrintf(const char *fmt, ...);
  74:Core/Src/main.c **** static void I2C2_ScanBus(void);
  75:Core/Src/main.c **** static uint8_t SHT40_Crc8(const uint8_t *data, uint8_t len);
  76:Core/Src/main.c **** static HAL_StatusTypeDef SHT40_ReadRaw(uint16_t *temperature_ticks, uint16_t *humidity_ticks);
  77:Core/Src/main.c **** static void SHT40_TestLoop(void);
  78:Core/Src/main.c **** 
  79:Core/Src/main.c **** /* USER CODE END PFP */
  80:Core/Src/main.c **** 
  81:Core/Src/main.c **** /* Private user code ---------------------------------------------------------*/
  82:Core/Src/main.c **** /* USER CODE BEGIN 0 */
  83:Core/Src/main.c **** static void DebugPrint(const char *text)
  84:Core/Src/main.c **** {
  85:Core/Src/main.c ****   HAL_UART_Transmit(&huart2, (uint8_t *)text, (uint16_t)strlen(text), HAL_MAX_DELAY);
  86:Core/Src/main.c **** }
  87:Core/Src/main.c **** 
  88:Core/Src/main.c **** static void DebugPrintf(const char *fmt, ...)
  89:Core/Src/main.c **** {
ARM GAS  C:\Users\Tilen\AppData\Local\Temp\cc6ISDp8.s 			page 3


  90:Core/Src/main.c ****   char buffer[128];
  91:Core/Src/main.c ****   int len;
  92:Core/Src/main.c ****   va_list args;
  93:Core/Src/main.c **** 
  94:Core/Src/main.c ****   va_start(args, fmt);
  95:Core/Src/main.c ****   len = vsnprintf(buffer, sizeof(buffer), fmt, args);
  96:Core/Src/main.c ****   va_end(args);
  97:Core/Src/main.c **** 
  98:Core/Src/main.c ****   if (len <= 0)
  99:Core/Src/main.c ****   {
 100:Core/Src/main.c ****     return;
 101:Core/Src/main.c ****   }
 102:Core/Src/main.c **** 
 103:Core/Src/main.c ****   if ((size_t)len > sizeof(buffer))
 104:Core/Src/main.c ****   {
 105:Core/Src/main.c ****     len = (int)sizeof(buffer);
 106:Core/Src/main.c ****   }
 107:Core/Src/main.c **** 
 108:Core/Src/main.c ****   HAL_UART_Transmit(&huart2, (uint8_t *)buffer, (uint16_t)len, HAL_MAX_DELAY);
 109:Core/Src/main.c **** }
 110:Core/Src/main.c **** 
 111:Core/Src/main.c **** static void I2C2_ScanBus(void)
 112:Core/Src/main.c **** {
 113:Core/Src/main.c ****   uint8_t addr;
 114:Core/Src/main.c ****   uint8_t found = 0U;
 115:Core/Src/main.c **** 
 116:Core/Src/main.c ****   DebugPrint("Scanning I2C2 addresses 0x08..0x77\r\n");
 117:Core/Src/main.c **** 
 118:Core/Src/main.c ****   for (addr = 0x08U; addr <= 0x77U; addr++)
 119:Core/Src/main.c ****   {
 120:Core/Src/main.c ****     if (HAL_I2C_IsDeviceReady(&hi2c2, (uint16_t)(addr << 1), 2U, 20U) == HAL_OK)
 121:Core/Src/main.c ****     {
 122:Core/Src/main.c ****       DebugPrintf("I2C device found at 0x%02X\r\n", addr);
 123:Core/Src/main.c ****       found = 1U;
 124:Core/Src/main.c ****     }
 125:Core/Src/main.c ****   }
 126:Core/Src/main.c **** 
 127:Core/Src/main.c ****   if (found == 0U)
 128:Core/Src/main.c ****   {
 129:Core/Src/main.c ****     DebugPrint("No I2C devices found\r\n");
 130:Core/Src/main.c ****   }
 131:Core/Src/main.c **** }
 132:Core/Src/main.c **** 
 133:Core/Src/main.c **** static uint8_t SHT40_Crc8(const uint8_t *data, uint8_t len)
 134:Core/Src/main.c **** {
  27              		.loc 1 134 1 view -0
  28              		.cfi_startproc
  29              		@ args = 0, pretend = 0, frame = 0
  30              		@ frame_needed = 0, uses_anonymous_args = 0
  31              		.loc 1 134 1 is_stmt 0 view .LVU1
  32 0000 30B5     		push	{r4, r5, lr}
  33              	.LCFI0:
  34              		.cfi_def_cfa_offset 12
  35              		.cfi_offset 4, -12
  36              		.cfi_offset 5, -8
  37              		.cfi_offset 14, -4
  38 0002 0400     		movs	r4, r0
ARM GAS  C:\Users\Tilen\AppData\Local\Temp\cc6ISDp8.s 			page 4


  39 0004 0D00     		movs	r5, r1
 135:Core/Src/main.c ****   uint8_t crc = 0xFFU;
  40              		.loc 1 135 3 is_stmt 1 view .LVU2
  41              	.LVL1:
 136:Core/Src/main.c ****   uint8_t i;
  42              		.loc 1 136 3 view .LVU3
 137:Core/Src/main.c ****   uint8_t bit;
  43              		.loc 1 137 3 view .LVU4
 138:Core/Src/main.c **** 
 139:Core/Src/main.c ****   for (i = 0U; i < len; i++)
  44              		.loc 1 139 3 view .LVU5
  45              		.loc 1 139 10 is_stmt 0 view .LVU6
  46 0006 0021     		movs	r1, #0
  47              	.LVL2:
 135:Core/Src/main.c ****   uint8_t i;
  48              		.loc 1 135 11 view .LVU7
  49 0008 FF20     		movs	r0, #255
  50              	.LVL3:
  51              		.loc 1 139 3 view .LVU8
  52 000a 10E0     		b	.L2
  53              	.LVL4:
  54              	.L9:
 140:Core/Src/main.c ****   {
 141:Core/Src/main.c ****     crc ^= data[i];
 142:Core/Src/main.c ****     for (bit = 0U; bit < 8U; bit++)
 143:Core/Src/main.c ****     {
 144:Core/Src/main.c ****       if ((crc & 0x80U) != 0U)
 145:Core/Src/main.c ****       {
 146:Core/Src/main.c ****         crc = (uint8_t)((crc << 1) ^ 0x31U);
  55              		.loc 1 146 9 is_stmt 1 view .LVU9
  56              		.loc 1 146 30 is_stmt 0 view .LVU10
  57 000c 4000     		lsls	r0, r0, #1
  58              	.LVL5:
  59              		.loc 1 146 30 view .LVU11
  60 000e C0B2     		uxtb	r0, r0
  61              		.loc 1 146 13 view .LVU12
  62 0010 3122     		movs	r2, #49
  63              	.LVL6:
  64              		.loc 1 146 13 view .LVU13
  65 0012 5040     		eors	r0, r2
  66 0014 C0B2     		uxtb	r0, r0
  67              	.LVL7:
  68              	.L5:
 142:Core/Src/main.c ****     {
  69              		.loc 1 142 33 is_stmt 1 discriminator 2 view .LVU14
  70 0016 0133     		adds	r3, r3, #1
  71              	.LVL8:
 142:Core/Src/main.c ****     {
  72              		.loc 1 142 33 is_stmt 0 discriminator 2 view .LVU15
  73 0018 DBB2     		uxtb	r3, r3
  74              	.LVL9:
  75              	.L3:
 142:Core/Src/main.c ****     {
  76              		.loc 1 142 24 is_stmt 1 discriminator 1 view .LVU16
  77 001a 072B     		cmp	r3, #7
  78 001c 05D8     		bhi	.L8
 144:Core/Src/main.c ****       {
ARM GAS  C:\Users\Tilen\AppData\Local\Temp\cc6ISDp8.s 			page 5


  79              		.loc 1 144 7 view .LVU17
 144:Core/Src/main.c ****       {
  80              		.loc 1 144 25 is_stmt 0 view .LVU18
  81 001e 42B2     		sxtb	r2, r0
 144:Core/Src/main.c ****       {
  82              		.loc 1 144 10 view .LVU19
  83 0020 002A     		cmp	r2, #0
  84 0022 F3DB     		blt	.L9
 147:Core/Src/main.c ****       }
 148:Core/Src/main.c ****       else
 149:Core/Src/main.c ****       {
 150:Core/Src/main.c ****         crc <<= 1;
  85              		.loc 1 150 9 is_stmt 1 view .LVU20
  86              		.loc 1 150 13 is_stmt 0 view .LVU21
  87 0024 4000     		lsls	r0, r0, #1
  88              	.LVL10:
  89              		.loc 1 150 13 view .LVU22
  90 0026 C0B2     		uxtb	r0, r0
  91 0028 F5E7     		b	.L5
  92              	.LVL11:
  93              	.L8:
 139:Core/Src/main.c ****   {
  94              		.loc 1 139 26 is_stmt 1 discriminator 2 view .LVU23
  95 002a 0131     		adds	r1, r1, #1
  96              	.LVL12:
 139:Core/Src/main.c ****   {
  97              		.loc 1 139 26 is_stmt 0 discriminator 2 view .LVU24
  98 002c C9B2     		uxtb	r1, r1
  99              	.LVL13:
 100              	.L2:
 139:Core/Src/main.c ****   {
 101              		.loc 1 139 18 is_stmt 1 discriminator 1 view .LVU25
 102 002e A942     		cmp	r1, r5
 103 0030 03D2     		bcs	.L10
 141:Core/Src/main.c ****     for (bit = 0U; bit < 8U; bit++)
 104              		.loc 1 141 5 view .LVU26
 141:Core/Src/main.c ****     for (bit = 0U; bit < 8U; bit++)
 105              		.loc 1 141 16 is_stmt 0 view .LVU27
 106 0032 635C     		ldrb	r3, [r4, r1]
 141:Core/Src/main.c ****     for (bit = 0U; bit < 8U; bit++)
 107              		.loc 1 141 9 view .LVU28
 108 0034 5840     		eors	r0, r3
 109              	.LVL14:
 142:Core/Src/main.c ****     {
 110              		.loc 1 142 5 is_stmt 1 view .LVU29
 142:Core/Src/main.c ****     {
 111              		.loc 1 142 14 is_stmt 0 view .LVU30
 112 0036 0023     		movs	r3, #0
 142:Core/Src/main.c ****     {
 113              		.loc 1 142 5 view .LVU31
 114 0038 EFE7     		b	.L3
 115              	.LVL15:
 116              	.L10:
 151:Core/Src/main.c ****       }
 152:Core/Src/main.c ****     }
 153:Core/Src/main.c ****   }
 154:Core/Src/main.c **** 
ARM GAS  C:\Users\Tilen\AppData\Local\Temp\cc6ISDp8.s 			page 6


 155:Core/Src/main.c ****   return crc;
 117              		.loc 1 155 3 is_stmt 1 view .LVU32
 156:Core/Src/main.c **** }
 118              		.loc 1 156 1 is_stmt 0 view .LVU33
 119              		@ sp needed
 120              	.LVL16:
 121              	.LVL17:
 122              		.loc 1 156 1 view .LVU34
 123 003a 30BD     		pop	{r4, r5, pc}
 124              		.cfi_endproc
 125              	.LFE53:
 127              		.section	.text.MX_GPIO_Init,"ax",%progbits
 128              		.align	1
 129              		.syntax unified
 130              		.code	16
 131              		.thumb_func
 133              	MX_GPIO_Init:
 134              	.LFB66:
 157:Core/Src/main.c **** 
 158:Core/Src/main.c **** static HAL_StatusTypeDef SHT40_ReadRaw(uint16_t *temperature_ticks, uint16_t *humidity_ticks)
 159:Core/Src/main.c **** {
 160:Core/Src/main.c ****   uint8_t cmd = SHT40_CMD_MEASURE_HIGH;
 161:Core/Src/main.c ****   uint8_t rx[6];
 162:Core/Src/main.c **** 
 163:Core/Src/main.c ****   if (HAL_I2C_Master_Transmit(&hi2c2, SHT40_I2C_ADDR, &cmd, 1U, 100U) != HAL_OK)
 164:Core/Src/main.c ****   {
 165:Core/Src/main.c ****     return HAL_ERROR;
 166:Core/Src/main.c ****   }
 167:Core/Src/main.c **** 
 168:Core/Src/main.c ****   HAL_Delay(10U);
 169:Core/Src/main.c **** 
 170:Core/Src/main.c ****   if (HAL_I2C_Master_Receive(&hi2c2, SHT40_I2C_ADDR, rx, sizeof(rx), 100U) != HAL_OK)
 171:Core/Src/main.c ****   {
 172:Core/Src/main.c ****     return HAL_ERROR;
 173:Core/Src/main.c ****   }
 174:Core/Src/main.c **** 
 175:Core/Src/main.c ****   if (SHT40_Crc8(&rx[0], 2U) != rx[2] || SHT40_Crc8(&rx[3], 2U) != rx[5])
 176:Core/Src/main.c ****   {
 177:Core/Src/main.c ****     return HAL_ERROR;
 178:Core/Src/main.c ****   }
 179:Core/Src/main.c **** 
 180:Core/Src/main.c ****   *temperature_ticks = (uint16_t)(((uint16_t)rx[0] << 8) | rx[1]);
 181:Core/Src/main.c ****   *humidity_ticks = (uint16_t)(((uint16_t)rx[3] << 8) | rx[4]);
 182:Core/Src/main.c **** 
 183:Core/Src/main.c ****   return HAL_OK;
 184:Core/Src/main.c **** }
 185:Core/Src/main.c **** 
 186:Core/Src/main.c **** static void SHT40_TestLoop(void)
 187:Core/Src/main.c **** {
 188:Core/Src/main.c ****   uint16_t temperature_ticks;
 189:Core/Src/main.c ****   uint16_t humidity_ticks;
 190:Core/Src/main.c ****   float temperature_c;
 191:Core/Src/main.c ****   float humidity_rh;
 192:Core/Src/main.c **** 
 193:Core/Src/main.c ****   if (HAL_I2C_IsDeviceReady(&hi2c2, SHT40_I2C_ADDR, 3U, 100U) != HAL_OK)
 194:Core/Src/main.c ****   {
 195:Core/Src/main.c ****     DebugPrint("SHT40 not responding at 0x44\r\n");
ARM GAS  C:\Users\Tilen\AppData\Local\Temp\cc6ISDp8.s 			page 7


 196:Core/Src/main.c ****     HAL_Delay(1000U);
 197:Core/Src/main.c ****     return;
 198:Core/Src/main.c ****   }
 199:Core/Src/main.c **** 
 200:Core/Src/main.c ****   if (SHT40_ReadRaw(&temperature_ticks, &humidity_ticks) != HAL_OK)
 201:Core/Src/main.c ****   {
 202:Core/Src/main.c ****     DebugPrint("SHT40 read failed\r\n");
 203:Core/Src/main.c ****     HAL_Delay(1000U);
 204:Core/Src/main.c ****     return;
 205:Core/Src/main.c ****   }
 206:Core/Src/main.c **** 
 207:Core/Src/main.c ****   temperature_c = -45.0f + (175.0f * (float)temperature_ticks / 65535.0f);
 208:Core/Src/main.c ****   humidity_rh = -6.0f + (125.0f * (float)humidity_ticks / 65535.0f);
 209:Core/Src/main.c **** 
 210:Core/Src/main.c ****   if (humidity_rh < 0.0f)
 211:Core/Src/main.c ****   {
 212:Core/Src/main.c ****     humidity_rh = 0.0f;
 213:Core/Src/main.c ****   }
 214:Core/Src/main.c ****   else if (humidity_rh > 100.0f)
 215:Core/Src/main.c ****   {
 216:Core/Src/main.c ****     humidity_rh = 100.0f;
 217:Core/Src/main.c ****   }
 218:Core/Src/main.c **** 
 219:Core/Src/main.c ****   DebugPrintf("SHT40 OK  T=%.2f C  RH=%.2f %%\r\n", temperature_c, humidity_rh);
 220:Core/Src/main.c ****   HAL_Delay(1000U);
 221:Core/Src/main.c **** }
 222:Core/Src/main.c **** 
 223:Core/Src/main.c **** static uint32_t LCD_ComposeSegBit(uint8_t seg_index)
 224:Core/Src/main.c **** {
 225:Core/Src/main.c ****   /* These are the 6 SEG lines currently wired to the glass. */
 226:Core/Src/main.c ****   static const uint8_t seg_bits[6] = {0U, 5U, 7U, 8U, 9U, 10U};
 227:Core/Src/main.c ****   return (1UL << seg_bits[seg_index]);
 228:Core/Src/main.c **** }
 229:Core/Src/main.c **** 
 230:Core/Src/main.c **** static uint16_t MockHumidityX10(void)
 231:Core/Src/main.c **** {
 232:Core/Src/main.c ****   static uint32_t lcg = 0x1A2B3C4DU;
 233:Core/Src/main.c ****   lcg = (lcg * 1664525UL) + 1013904223UL;
 234:Core/Src/main.c ****   return (uint16_t)(lcg % 1000UL); /* 0.0 .. 99.9 %RH */
 235:Core/Src/main.c **** }
 236:Core/Src/main.c **** 
 237:Core/Src/main.c **** static void LCD_DisplayNumber3(uint16_t value)
 238:Core/Src/main.c **** {
 239:Core/Src/main.c ****   /* 7-segment font: bits = a b c d e f g in bit positions 0..6. */
 240:Core/Src/main.c ****   static const uint8_t font7[10] =
 241:Core/Src/main.c ****   {
 242:Core/Src/main.c ****     0x3FU, /* 0 */
 243:Core/Src/main.c ****     0x06U, /* 1 */
 244:Core/Src/main.c ****     0x5BU, /* 2 */
 245:Core/Src/main.c ****     0x4FU, /* 3 */
 246:Core/Src/main.c ****     0x66U, /* 4 */
 247:Core/Src/main.c ****     0x6DU, /* 5 */
 248:Core/Src/main.c ****     0x7DU, /* 6 */
 249:Core/Src/main.c ****     0x07U, /* 7 */
 250:Core/Src/main.c ****     0x7FU, /* 8 */
 251:Core/Src/main.c ****     0x6FU  /* 9 */
 252:Core/Src/main.c ****   };
ARM GAS  C:\Users\Tilen\AppData\Local\Temp\cc6ISDp8.s 			page 8


 253:Core/Src/main.c ****   uint8_t d_right = (uint8_t)(value % 10U);
 254:Core/Src/main.c ****   uint8_t d_mid = (uint8_t)((value / 10U) % 10U);
 255:Core/Src/main.c ****   uint8_t d_left = (uint8_t)((value / 100U) % 10U);
 256:Core/Src/main.c ****   /* Physical digit order on glass is mirrored versus SEG pair order. */
 257:Core/Src/main.c ****   uint8_t digits[3] = {d_left, d_mid, d_right};
 258:Core/Src/main.c ****   uint8_t pos;
 259:Core/Src/main.c ****   uint32_t com_data[4] = {0U, 0U, 0U, 0U};
 260:Core/Src/main.c ****   uint32_t seg_mask = LCD_ComposeSegBit(0) | LCD_ComposeSegBit(1) |
 261:Core/Src/main.c ****                       LCD_ComposeSegBit(2) | LCD_ComposeSegBit(3) |
 262:Core/Src/main.c ****                       LCD_ComposeSegBit(4) | LCD_ComposeSegBit(5);
 263:Core/Src/main.c **** 
 264:Core/Src/main.c ****   /* Per your measured wiring, each digit has 2 SEG lines:
 265:Core/Src/main.c ****    * line_abc drives {a,b,c} = {top, top-right, bottom-right}
 266:Core/Src/main.c ****    * line_defg drives {d,e,f,g} = {bottom, bottom-left, top-left, middle}
 267:Core/Src/main.c ****    *
 268:Core/Src/main.c ****    * Exact pin map provided:
 269:Core/Src/main.c ****    * LCD pin1 -> A1  -> SEG0  -> digit3 abc (left)
 270:Core/Src/main.c ****    * LCD pin2 -> A3  -> SEG5  -> digit3 defg (left)
 271:Core/Src/main.c ****    * LCD pin3 -> D3  -> SEG7  -> digit2 abc (middle)
 272:Core/Src/main.c ****    * LCD pin4 -> D5  -> SEG8  -> digit2 defg (middle)
 273:Core/Src/main.c ****    * LCD pin5 -> D4  -> SEG9  -> digit1 abc (right)
 274:Core/Src/main.c ****    * LCD pin6 -> D6  -> SEG10 -> digit1 defg (right)
 275:Core/Src/main.c ****    *
 276:Core/Src/main.c ****    * Therefore (right,middle,left):
 277:Core/Src/main.c ****    * abc lines  = SEG9, SEG7, SEG0
 278:Core/Src/main.c ****    * defg lines = SEG10, SEG8, SEG5
 279:Core/Src/main.c ****    *
 280:Core/Src/main.c ****    * COM mapping from your notes:
 281:Core/Src/main.c ****    * COM0=d
 282:Core/Src/main.c ****    * COM1=c/e
 283:Core/Src/main.c ****    * COM2=b/g
 284:Core/Src/main.c ****    * COM3=a/f
 285:Core/Src/main.c ****    */
 286:Core/Src/main.c ****   {
 287:Core/Src/main.c ****     uint8_t abc_seg_idx[3] = {4U, 2U, 0U};
 288:Core/Src/main.c ****     uint8_t defg_seg_idx[3] = {5U, 3U, 1U};
 289:Core/Src/main.c **** 
 290:Core/Src/main.c ****   for (pos = 0U; pos < 3U; pos++)
 291:Core/Src/main.c ****   {
 292:Core/Src/main.c ****     uint8_t p = font7[digits[pos]];
 293:Core/Src/main.c ****     uint32_t line_abc = LCD_ComposeSegBit(abc_seg_idx[pos]);
 294:Core/Src/main.c ****     uint32_t line_defg = LCD_ComposeSegBit(defg_seg_idx[pos]);
 295:Core/Src/main.c **** 
 296:Core/Src/main.c ****     if ((p & (1U << 3)) != 0U) com_data[0] |= line_defg; /* d -> COM0 via defg line */
 297:Core/Src/main.c ****     if ((p & (1U << 2)) != 0U) com_data[1] |= line_abc;  /* c -> COM1 via abc line */
 298:Core/Src/main.c ****     if ((p & (1U << 4)) != 0U) com_data[1] |= line_defg; /* e -> COM1 via defg line */
 299:Core/Src/main.c ****     if ((p & (1U << 1)) != 0U) com_data[2] |= line_abc;  /* b -> COM2 via abc line */
 300:Core/Src/main.c ****     if ((p & (1U << 6)) != 0U) com_data[2] |= line_defg; /* g -> COM2 via defg line */
 301:Core/Src/main.c ****     if ((p & (1U << 0)) != 0U) com_data[3] |= line_abc;  /* a -> COM3 via abc line */
 302:Core/Src/main.c ****     if ((p & (1U << 5)) != 0U) com_data[3] |= line_defg; /* f -> COM3 via defg line */
 303:Core/Src/main.c ****   }
 304:Core/Src/main.c ****   }
 305:Core/Src/main.c **** 
 306:Core/Src/main.c ****   if (HAL_LCD_Clear(&hlcd) != HAL_OK) Error_Handler();
 307:Core/Src/main.c ****   if (HAL_LCD_Write(&hlcd, LCD_RAM_REGISTER0, seg_mask, com_data[0]) != HAL_OK) Error_Handler();
 308:Core/Src/main.c ****   if (HAL_LCD_Write(&hlcd, LCD_RAM_REGISTER2, seg_mask, com_data[1]) != HAL_OK) Error_Handler();
 309:Core/Src/main.c ****   if (HAL_LCD_Write(&hlcd, LCD_RAM_REGISTER4, seg_mask, com_data[2]) != HAL_OK) Error_Handler();
ARM GAS  C:\Users\Tilen\AppData\Local\Temp\cc6ISDp8.s 			page 9


 310:Core/Src/main.c ****   if (HAL_LCD_Write(&hlcd, LCD_RAM_REGISTER6, seg_mask, com_data[3]) != HAL_OK) Error_Handler();
 311:Core/Src/main.c ****   if (HAL_LCD_UpdateDisplayRequest(&hlcd) != HAL_OK) Error_Handler();
 312:Core/Src/main.c **** }
 313:Core/Src/main.c **** 
 314:Core/Src/main.c **** void HAL_RTCEx_WakeUpTimerEventCallback(RTC_HandleTypeDef *hrtc_cb)
 315:Core/Src/main.c **** {
 316:Core/Src/main.c ****   (void)hrtc_cb;
 317:Core/Src/main.c ****   g_rtc_wakeup = 1U;
 318:Core/Src/main.c **** }
 319:Core/Src/main.c **** 
 320:Core/Src/main.c **** /* USER CODE END 0 */
 321:Core/Src/main.c **** 
 322:Core/Src/main.c **** /**
 323:Core/Src/main.c ****   * @brief  The application entry point.
 324:Core/Src/main.c ****   * @retval int
 325:Core/Src/main.c ****   */
 326:Core/Src/main.c **** int main(void)
 327:Core/Src/main.c **** {
 328:Core/Src/main.c **** 
 329:Core/Src/main.c ****   /* USER CODE BEGIN 1 */
 330:Core/Src/main.c **** 
 331:Core/Src/main.c ****   /* USER CODE END 1 */
 332:Core/Src/main.c **** 
 333:Core/Src/main.c ****   /* MCU Configuration--------------------------------------------------------*/
 334:Core/Src/main.c **** 
 335:Core/Src/main.c ****   /* Reset of all peripherals, Initializes the Flash interface and the Systick. */
 336:Core/Src/main.c ****   HAL_Init();
 337:Core/Src/main.c **** 
 338:Core/Src/main.c ****   /* USER CODE BEGIN Init */
 339:Core/Src/main.c **** 
 340:Core/Src/main.c ****   /* USER CODE END Init */
 341:Core/Src/main.c **** 
 342:Core/Src/main.c ****   /* Configure the system clock */
 343:Core/Src/main.c ****   SystemClock_Config();
 344:Core/Src/main.c **** 
 345:Core/Src/main.c ****   /* USER CODE BEGIN SysInit */
 346:Core/Src/main.c **** 
 347:Core/Src/main.c ****   /* USER CODE END SysInit */
 348:Core/Src/main.c **** 
 349:Core/Src/main.c ****   /* Initialize all configured peripherals */
 350:Core/Src/main.c ****   MX_GPIO_Init();
 351:Core/Src/main.c ****   MX_USART2_UART_Init();
 352:Core/Src/main.c ****   MX_RTC_Init();
 353:Core/Src/main.c ****   MX_I2C2_Init();
 354:Core/Src/main.c ****   /* USER CODE BEGIN 2 */
 355:Core/Src/main.c ****   DebugPrint("\r\nBooting SHT40 test\r\n");
 356:Core/Src/main.c ****   DebugPrint("LCD init disabled for this test build\r\n");
 357:Core/Src/main.c ****   I2C2_ScanBus();
 358:Core/Src/main.c **** 
 359:Core/Src/main.c ****   /* USER CODE END 2 */
 360:Core/Src/main.c **** 
 361:Core/Src/main.c ****   /* Infinite loop */
 362:Core/Src/main.c ****   /* USER CODE BEGIN WHILE */
 363:Core/Src/main.c ****   while (1)
 364:Core/Src/main.c ****   {
 365:Core/Src/main.c ****     SHT40_TestLoop();
 366:Core/Src/main.c ****     /* USER CODE END WHILE */
ARM GAS  C:\Users\Tilen\AppData\Local\Temp\cc6ISDp8.s 			page 10


 367:Core/Src/main.c **** 
 368:Core/Src/main.c ****     /* USER CODE BEGIN 3 */
 369:Core/Src/main.c ****   }
 370:Core/Src/main.c ****   /* USER CODE END 3 */
 371:Core/Src/main.c **** }
 372:Core/Src/main.c **** 
 373:Core/Src/main.c **** /**
 374:Core/Src/main.c ****   * @brief System Clock Configuration
 375:Core/Src/main.c ****   * @retval None
 376:Core/Src/main.c ****   */
 377:Core/Src/main.c **** void SystemClock_Config(void)
 378:Core/Src/main.c **** {
 379:Core/Src/main.c ****   RCC_OscInitTypeDef RCC_OscInitStruct = {0};
 380:Core/Src/main.c ****   RCC_ClkInitTypeDef RCC_ClkInitStruct = {0};
 381:Core/Src/main.c ****   RCC_PeriphCLKInitTypeDef PeriphClkInit = {0};
 382:Core/Src/main.c **** 
 383:Core/Src/main.c ****   /** Configure the main internal regulator output voltage
 384:Core/Src/main.c ****   */
 385:Core/Src/main.c ****   __HAL_PWR_VOLTAGESCALING_CONFIG(PWR_REGULATOR_VOLTAGE_SCALE1);
 386:Core/Src/main.c **** 
 387:Core/Src/main.c ****   /** Initializes the RCC Oscillators according to the specified parameters
 388:Core/Src/main.c ****   * in the RCC_OscInitTypeDef structure.
 389:Core/Src/main.c ****   */
 390:Core/Src/main.c ****   RCC_OscInitStruct.OscillatorType = RCC_OSCILLATORTYPE_LSI|RCC_OSCILLATORTYPE_MSI;
 391:Core/Src/main.c ****   RCC_OscInitStruct.LSIState = RCC_LSI_ON;
 392:Core/Src/main.c ****   RCC_OscInitStruct.MSIState = RCC_MSI_ON;
 393:Core/Src/main.c ****   RCC_OscInitStruct.MSICalibrationValue = 0;
 394:Core/Src/main.c ****   RCC_OscInitStruct.MSIClockRange = RCC_MSIRANGE_5;
 395:Core/Src/main.c ****   RCC_OscInitStruct.PLL.PLLState = RCC_PLL_NONE;
 396:Core/Src/main.c ****   if (HAL_RCC_OscConfig(&RCC_OscInitStruct) != HAL_OK)
 397:Core/Src/main.c ****   {
 398:Core/Src/main.c ****     Error_Handler();
 399:Core/Src/main.c ****   }
 400:Core/Src/main.c **** 
 401:Core/Src/main.c ****   /** Initializes the CPU, AHB and APB buses clocks
 402:Core/Src/main.c ****   */
 403:Core/Src/main.c ****   RCC_ClkInitStruct.ClockType = RCC_CLOCKTYPE_HCLK|RCC_CLOCKTYPE_SYSCLK
 404:Core/Src/main.c ****                               |RCC_CLOCKTYPE_PCLK1|RCC_CLOCKTYPE_PCLK2;
 405:Core/Src/main.c ****   RCC_ClkInitStruct.SYSCLKSource = RCC_SYSCLKSOURCE_MSI;
 406:Core/Src/main.c ****   RCC_ClkInitStruct.AHBCLKDivider = RCC_SYSCLK_DIV1;
 407:Core/Src/main.c ****   RCC_ClkInitStruct.APB1CLKDivider = RCC_HCLK_DIV1;
 408:Core/Src/main.c ****   RCC_ClkInitStruct.APB2CLKDivider = RCC_HCLK_DIV1;
 409:Core/Src/main.c **** 
 410:Core/Src/main.c ****   if (HAL_RCC_ClockConfig(&RCC_ClkInitStruct, FLASH_LATENCY_0) != HAL_OK)
 411:Core/Src/main.c ****   {
 412:Core/Src/main.c ****     Error_Handler();
 413:Core/Src/main.c ****   }
 414:Core/Src/main.c ****   PeriphClkInit.PeriphClockSelection = RCC_PERIPHCLK_USART2|RCC_PERIPHCLK_RTC;
 415:Core/Src/main.c ****   PeriphClkInit.Usart2ClockSelection = RCC_USART2CLKSOURCE_PCLK1;
 416:Core/Src/main.c ****   PeriphClkInit.RTCClockSelection = RCC_RTCCLKSOURCE_LSI;
 417:Core/Src/main.c ****   if (HAL_RCCEx_PeriphCLKConfig(&PeriphClkInit) != HAL_OK)
 418:Core/Src/main.c ****   {
 419:Core/Src/main.c ****     Error_Handler();
 420:Core/Src/main.c ****   }
 421:Core/Src/main.c **** }
 422:Core/Src/main.c **** 
 423:Core/Src/main.c **** /**
ARM GAS  C:\Users\Tilen\AppData\Local\Temp\cc6ISDp8.s 			page 11


 424:Core/Src/main.c ****   * @brief I2C2 Initialization Function
 425:Core/Src/main.c ****   * @param None
 426:Core/Src/main.c ****   * @retval None
 427:Core/Src/main.c ****   */
 428:Core/Src/main.c **** static void MX_I2C2_Init(void)
 429:Core/Src/main.c **** {
 430:Core/Src/main.c **** 
 431:Core/Src/main.c ****   /* USER CODE BEGIN I2C2_Init 0 */
 432:Core/Src/main.c **** 
 433:Core/Src/main.c ****   /* USER CODE END I2C2_Init 0 */
 434:Core/Src/main.c **** 
 435:Core/Src/main.c ****   /* USER CODE BEGIN I2C2_Init 1 */
 436:Core/Src/main.c **** 
 437:Core/Src/main.c ****   /* USER CODE END I2C2_Init 1 */
 438:Core/Src/main.c ****   hi2c2.Instance = I2C2;
 439:Core/Src/main.c ****   hi2c2.Init.Timing = 0x00000608;
 440:Core/Src/main.c ****   hi2c2.Init.OwnAddress1 = 0;
 441:Core/Src/main.c ****   hi2c2.Init.AddressingMode = I2C_ADDRESSINGMODE_7BIT;
 442:Core/Src/main.c ****   hi2c2.Init.DualAddressMode = I2C_DUALADDRESS_DISABLE;
 443:Core/Src/main.c ****   hi2c2.Init.OwnAddress2 = 0;
 444:Core/Src/main.c ****   hi2c2.Init.OwnAddress2Masks = I2C_OA2_NOMASK;
 445:Core/Src/main.c ****   hi2c2.Init.GeneralCallMode = I2C_GENERALCALL_DISABLE;
 446:Core/Src/main.c ****   hi2c2.Init.NoStretchMode = I2C_NOSTRETCH_DISABLE;
 447:Core/Src/main.c ****   if (HAL_I2C_Init(&hi2c2) != HAL_OK)
 448:Core/Src/main.c ****   {
 449:Core/Src/main.c ****     Error_Handler();
 450:Core/Src/main.c ****   }
 451:Core/Src/main.c **** 
 452:Core/Src/main.c ****   /** Configure Analogue filter
 453:Core/Src/main.c ****   */
 454:Core/Src/main.c ****   if (HAL_I2CEx_ConfigAnalogFilter(&hi2c2, I2C_ANALOGFILTER_ENABLE) != HAL_OK)
 455:Core/Src/main.c ****   {
 456:Core/Src/main.c ****     Error_Handler();
 457:Core/Src/main.c ****   }
 458:Core/Src/main.c **** 
 459:Core/Src/main.c ****   /** Configure Digital filter
 460:Core/Src/main.c ****   */
 461:Core/Src/main.c ****   if (HAL_I2CEx_ConfigDigitalFilter(&hi2c2, 0) != HAL_OK)
 462:Core/Src/main.c ****   {
 463:Core/Src/main.c ****     Error_Handler();
 464:Core/Src/main.c ****   }
 465:Core/Src/main.c ****   /* USER CODE BEGIN I2C2_Init 2 */
 466:Core/Src/main.c **** 
 467:Core/Src/main.c ****   /* USER CODE END I2C2_Init 2 */
 468:Core/Src/main.c **** 
 469:Core/Src/main.c **** }
 470:Core/Src/main.c **** 
 471:Core/Src/main.c **** /**
 472:Core/Src/main.c ****   * @brief LCD Initialization Function
 473:Core/Src/main.c ****   * @param None
 474:Core/Src/main.c ****   * @retval None
 475:Core/Src/main.c ****   */
 476:Core/Src/main.c **** static void MX_LCD_Init(void)
 477:Core/Src/main.c **** {
 478:Core/Src/main.c **** 
 479:Core/Src/main.c ****   /* USER CODE BEGIN LCD_Init 0 */
 480:Core/Src/main.c **** 
ARM GAS  C:\Users\Tilen\AppData\Local\Temp\cc6ISDp8.s 			page 12


 481:Core/Src/main.c ****   /* USER CODE END LCD_Init 0 */
 482:Core/Src/main.c **** 
 483:Core/Src/main.c ****   /* USER CODE BEGIN LCD_Init 1 */
 484:Core/Src/main.c ****   /* For NUCLEO default SB45(VBAT/VLCD)=ON path, use external VLCD source. */
 485:Core/Src/main.c ****   __HAL_RCC_SYSCFG_CLK_ENABLE();
 486:Core/Src/main.c ****   __HAL_SYSCFG_VLCD_CAPA_CONFIG(SYSCFG_VLCD_PB2_EXT_CAPA_ON);
 487:Core/Src/main.c **** 
 488:Core/Src/main.c ****   /* USER CODE END LCD_Init 1 */
 489:Core/Src/main.c ****   hlcd.Instance = LCD;
 490:Core/Src/main.c ****   hlcd.Init.Prescaler = LCD_PRESCALER_1;
 491:Core/Src/main.c ****   hlcd.Init.Divider = LCD_DIVIDER_16;
 492:Core/Src/main.c ****   hlcd.Init.Duty = LCD_DUTY_1_4;
 493:Core/Src/main.c ****   hlcd.Init.Bias = LCD_BIAS_1_2;
 494:Core/Src/main.c ****   hlcd.Init.VoltageSource = LCD_VOLTAGESOURCE_INTERNAL;
 495:Core/Src/main.c ****   hlcd.Init.Contrast = LCD_CONTRASTLEVEL_0;
 496:Core/Src/main.c ****   hlcd.Init.DeadTime = LCD_DEADTIME_0;
 497:Core/Src/main.c ****   hlcd.Init.PulseOnDuration = LCD_PULSEONDURATION_0;
 498:Core/Src/main.c ****   hlcd.Init.HighDrive = LCD_HIGHDRIVE_0;
 499:Core/Src/main.c ****   hlcd.Init.BlinkMode = LCD_BLINKMODE_OFF;
 500:Core/Src/main.c ****   hlcd.Init.BlinkFrequency = LCD_BLINKFREQUENCY_DIV8;
 501:Core/Src/main.c ****   hlcd.Init.MuxSegment = LCD_MUXSEGMENT_DISABLE;
 502:Core/Src/main.c ****   if (HAL_LCD_Init(&hlcd) != HAL_OK)
 503:Core/Src/main.c ****   {
 504:Core/Src/main.c ****     Error_Handler();
 505:Core/Src/main.c ****   }
 506:Core/Src/main.c ****   /* USER CODE BEGIN LCD_Init 2 */
 507:Core/Src/main.c **** 
 508:Core/Src/main.c ****   /* USER CODE END LCD_Init 2 */
 509:Core/Src/main.c **** 
 510:Core/Src/main.c **** }
 511:Core/Src/main.c **** 
 512:Core/Src/main.c **** /**
 513:Core/Src/main.c ****   * @brief RTC Initialization Function
 514:Core/Src/main.c ****   * @param None
 515:Core/Src/main.c ****   * @retval None
 516:Core/Src/main.c ****   */
 517:Core/Src/main.c **** static void MX_RTC_Init(void)
 518:Core/Src/main.c **** {
 519:Core/Src/main.c **** 
 520:Core/Src/main.c ****   /* USER CODE BEGIN RTC_Init 0 */
 521:Core/Src/main.c **** 
 522:Core/Src/main.c ****   /* USER CODE END RTC_Init 0 */
 523:Core/Src/main.c **** 
 524:Core/Src/main.c ****   /* USER CODE BEGIN RTC_Init 1 */
 525:Core/Src/main.c **** 
 526:Core/Src/main.c ****   /* USER CODE END RTC_Init 1 */
 527:Core/Src/main.c **** 
 528:Core/Src/main.c ****   /** Initialize RTC Only
 529:Core/Src/main.c ****   */
 530:Core/Src/main.c ****   hrtc.Instance = RTC;
 531:Core/Src/main.c ****   hrtc.Init.HourFormat = RTC_HOURFORMAT_24;
 532:Core/Src/main.c ****   hrtc.Init.AsynchPrediv = 127;
 533:Core/Src/main.c ****   hrtc.Init.SynchPrediv = 255;
 534:Core/Src/main.c ****   hrtc.Init.OutPut = RTC_OUTPUT_DISABLE;
 535:Core/Src/main.c ****   hrtc.Init.OutPutRemap = RTC_OUTPUT_REMAP_NONE;
 536:Core/Src/main.c ****   hrtc.Init.OutPutPolarity = RTC_OUTPUT_POLARITY_HIGH;
 537:Core/Src/main.c ****   hrtc.Init.OutPutType = RTC_OUTPUT_TYPE_OPENDRAIN;
ARM GAS  C:\Users\Tilen\AppData\Local\Temp\cc6ISDp8.s 			page 13


 538:Core/Src/main.c ****   if (HAL_RTC_Init(&hrtc) != HAL_OK)
 539:Core/Src/main.c ****   {
 540:Core/Src/main.c ****     Error_Handler();
 541:Core/Src/main.c ****   }
 542:Core/Src/main.c **** 
 543:Core/Src/main.c ****   /** Enable the WakeUp
 544:Core/Src/main.c ****   */
 545:Core/Src/main.c ****   if (HAL_RTCEx_SetWakeUpTimer_IT(&hrtc, 0, RTC_WAKEUPCLOCK_RTCCLK_DIV16) != HAL_OK)
 546:Core/Src/main.c ****   {
 547:Core/Src/main.c ****     Error_Handler();
 548:Core/Src/main.c ****   }
 549:Core/Src/main.c ****   /* USER CODE BEGIN RTC_Init 2 */
 550:Core/Src/main.c **** 
 551:Core/Src/main.c ****   /* USER CODE END RTC_Init 2 */
 552:Core/Src/main.c **** 
 553:Core/Src/main.c **** }
 554:Core/Src/main.c **** 
 555:Core/Src/main.c **** /**
 556:Core/Src/main.c ****   * @brief USART2 Initialization Function
 557:Core/Src/main.c ****   * @param None
 558:Core/Src/main.c ****   * @retval None
 559:Core/Src/main.c ****   */
 560:Core/Src/main.c **** static void MX_USART2_UART_Init(void)
 561:Core/Src/main.c **** {
 562:Core/Src/main.c **** 
 563:Core/Src/main.c ****   /* USER CODE BEGIN USART2_Init 0 */
 564:Core/Src/main.c **** 
 565:Core/Src/main.c ****   /* USER CODE END USART2_Init 0 */
 566:Core/Src/main.c **** 
 567:Core/Src/main.c ****   /* USER CODE BEGIN USART2_Init 1 */
 568:Core/Src/main.c **** 
 569:Core/Src/main.c ****   /* USER CODE END USART2_Init 1 */
 570:Core/Src/main.c ****   huart2.Instance = USART2;
 571:Core/Src/main.c ****   huart2.Init.BaudRate = 115200;
 572:Core/Src/main.c ****   huart2.Init.WordLength = UART_WORDLENGTH_8B;
 573:Core/Src/main.c ****   huart2.Init.StopBits = UART_STOPBITS_1;
 574:Core/Src/main.c ****   huart2.Init.Parity = UART_PARITY_NONE;
 575:Core/Src/main.c ****   huart2.Init.Mode = UART_MODE_TX_RX;
 576:Core/Src/main.c ****   huart2.Init.HwFlowCtl = UART_HWCONTROL_NONE;
 577:Core/Src/main.c ****   huart2.Init.OverSampling = UART_OVERSAMPLING_16;
 578:Core/Src/main.c ****   huart2.Init.OneBitSampling = UART_ONE_BIT_SAMPLE_DISABLE;
 579:Core/Src/main.c ****   huart2.AdvancedInit.AdvFeatureInit = UART_ADVFEATURE_NO_INIT;
 580:Core/Src/main.c ****   if (HAL_UART_Init(&huart2) != HAL_OK)
 581:Core/Src/main.c ****   {
 582:Core/Src/main.c ****     Error_Handler();
 583:Core/Src/main.c ****   }
 584:Core/Src/main.c ****   /* USER CODE BEGIN USART2_Init 2 */
 585:Core/Src/main.c **** 
 586:Core/Src/main.c ****   /* USER CODE END USART2_Init 2 */
 587:Core/Src/main.c **** 
 588:Core/Src/main.c **** }
 589:Core/Src/main.c **** 
 590:Core/Src/main.c **** /**
 591:Core/Src/main.c ****   * @brief GPIO Initialization Function
 592:Core/Src/main.c ****   * @param None
 593:Core/Src/main.c ****   * @retval None
 594:Core/Src/main.c ****   */
ARM GAS  C:\Users\Tilen\AppData\Local\Temp\cc6ISDp8.s 			page 14


 595:Core/Src/main.c **** static void MX_GPIO_Init(void)
 596:Core/Src/main.c **** {
 135              		.loc 1 596 1 is_stmt 1 view -0
 136              		.cfi_startproc
 137              		@ args = 0, pretend = 0, frame = 40
 138              		@ frame_needed = 0, uses_anonymous_args = 0
 139 0000 F0B5     		push	{r4, r5, r6, r7, lr}
 140              	.LCFI1:
 141              		.cfi_def_cfa_offset 20
 142              		.cfi_offset 4, -20
 143              		.cfi_offset 5, -16
 144              		.cfi_offset 6, -12
 145              		.cfi_offset 7, -8
 146              		.cfi_offset 14, -4
 147 0002 8BB0     		sub	sp, sp, #44
 148              	.LCFI2:
 149              		.cfi_def_cfa_offset 64
 597:Core/Src/main.c ****   GPIO_InitTypeDef GPIO_InitStruct = {0};
 150              		.loc 1 597 3 view .LVU36
 151              		.loc 1 597 20 is_stmt 0 view .LVU37
 152 0004 05AC     		add	r4, sp, #20
 153 0006 1422     		movs	r2, #20
 154 0008 0021     		movs	r1, #0
 155 000a 2000     		movs	r0, r4
 156 000c FFF7FEFF 		bl	memset
 157              	.LVL18:
 598:Core/Src/main.c ****   /* USER CODE BEGIN MX_GPIO_Init_1 */
 599:Core/Src/main.c **** 
 600:Core/Src/main.c ****   /* USER CODE END MX_GPIO_Init_1 */
 601:Core/Src/main.c **** 
 602:Core/Src/main.c ****   /* GPIO Ports Clock Enable */
 603:Core/Src/main.c ****   __HAL_RCC_GPIOC_CLK_ENABLE();
 158              		.loc 1 603 3 is_stmt 1 view .LVU38
 159              	.LBB2:
 160              		.loc 1 603 3 view .LVU39
 161              		.loc 1 603 3 view .LVU40
 162 0010 1F4B     		ldr	r3, .L12
 163 0012 D96A     		ldr	r1, [r3, #44]
 164 0014 0422     		movs	r2, #4
 165 0016 1143     		orrs	r1, r2
 166 0018 D962     		str	r1, [r3, #44]
 167              		.loc 1 603 3 view .LVU41
 168 001a D96A     		ldr	r1, [r3, #44]
 169 001c 0A40     		ands	r2, r1
 170 001e 0192     		str	r2, [sp, #4]
 171              		.loc 1 603 3 view .LVU42
 172 0020 019A     		ldr	r2, [sp, #4]
 173              	.LBE2:
 174              		.loc 1 603 3 view .LVU43
 604:Core/Src/main.c ****   __HAL_RCC_GPIOH_CLK_ENABLE();
 175              		.loc 1 604 3 view .LVU44
 176              	.LBB3:
 177              		.loc 1 604 3 view .LVU45
 178              		.loc 1 604 3 view .LVU46
 179 0022 D96A     		ldr	r1, [r3, #44]
 180 0024 8022     		movs	r2, #128
 181 0026 1143     		orrs	r1, r2
ARM GAS  C:\Users\Tilen\AppData\Local\Temp\cc6ISDp8.s 			page 15


 182 0028 D962     		str	r1, [r3, #44]
 183              		.loc 1 604 3 view .LVU47
 184 002a D96A     		ldr	r1, [r3, #44]
 185 002c 0A40     		ands	r2, r1
 186 002e 0292     		str	r2, [sp, #8]
 187              		.loc 1 604 3 view .LVU48
 188 0030 029A     		ldr	r2, [sp, #8]
 189              	.LBE3:
 190              		.loc 1 604 3 view .LVU49
 605:Core/Src/main.c ****   __HAL_RCC_GPIOA_CLK_ENABLE();
 191              		.loc 1 605 3 view .LVU50
 192              	.LBB4:
 193              		.loc 1 605 3 view .LVU51
 194              		.loc 1 605 3 view .LVU52
 195 0032 DA6A     		ldr	r2, [r3, #44]
 196 0034 0126     		movs	r6, #1
 197 0036 3243     		orrs	r2, r6
 198 0038 DA62     		str	r2, [r3, #44]
 199              		.loc 1 605 3 view .LVU53
 200 003a DA6A     		ldr	r2, [r3, #44]
 201 003c 3240     		ands	r2, r6
 202 003e 0392     		str	r2, [sp, #12]
 203              		.loc 1 605 3 view .LVU54
 204 0040 039A     		ldr	r2, [sp, #12]
 205              	.LBE4:
 206              		.loc 1 605 3 view .LVU55
 606:Core/Src/main.c ****   __HAL_RCC_GPIOB_CLK_ENABLE();
 207              		.loc 1 606 3 view .LVU56
 208              	.LBB5:
 209              		.loc 1 606 3 view .LVU57
 210              		.loc 1 606 3 view .LVU58
 211 0042 D96A     		ldr	r1, [r3, #44]
 212 0044 0222     		movs	r2, #2
 213 0046 1143     		orrs	r1, r2
 214 0048 D962     		str	r1, [r3, #44]
 215              		.loc 1 606 3 view .LVU59
 216 004a DB6A     		ldr	r3, [r3, #44]
 217 004c 1A40     		ands	r2, r3
 218 004e 0492     		str	r2, [sp, #16]
 219              		.loc 1 606 3 view .LVU60
 220 0050 049B     		ldr	r3, [sp, #16]
 221              	.LBE5:
 222              		.loc 1 606 3 view .LVU61
 607:Core/Src/main.c **** 
 608:Core/Src/main.c ****   /*Configure GPIO pin Output Level */
 609:Core/Src/main.c ****   HAL_GPIO_WritePin(LD2_GPIO_Port, LD2_Pin, GPIO_PIN_RESET);
 223              		.loc 1 609 3 view .LVU62
 224 0052 A027     		movs	r7, #160
 225 0054 FF05     		lsls	r7, r7, #23
 226 0056 0022     		movs	r2, #0
 227 0058 2021     		movs	r1, #32
 228 005a 3800     		movs	r0, r7
 229 005c FFF7FEFF 		bl	HAL_GPIO_WritePin
 230              	.LVL19:
 610:Core/Src/main.c **** 
 611:Core/Src/main.c ****   /*Configure GPIO pin : B1_Pin */
 612:Core/Src/main.c ****   GPIO_InitStruct.Pin = B1_Pin;
ARM GAS  C:\Users\Tilen\AppData\Local\Temp\cc6ISDp8.s 			page 16


 231              		.loc 1 612 3 view .LVU63
 232              		.loc 1 612 23 is_stmt 0 view .LVU64
 233 0060 8023     		movs	r3, #128
 234 0062 9B01     		lsls	r3, r3, #6
 235 0064 0593     		str	r3, [sp, #20]
 613:Core/Src/main.c ****   GPIO_InitStruct.Mode = GPIO_MODE_IT_FALLING;
 236              		.loc 1 613 3 is_stmt 1 view .LVU65
 237              		.loc 1 613 24 is_stmt 0 view .LVU66
 238 0066 8423     		movs	r3, #132
 239 0068 9B03     		lsls	r3, r3, #14
 240 006a 0693     		str	r3, [sp, #24]
 614:Core/Src/main.c ****   GPIO_InitStruct.Pull = GPIO_NOPULL;
 241              		.loc 1 614 3 is_stmt 1 view .LVU67
 242              		.loc 1 614 24 is_stmt 0 view .LVU68
 243 006c 0025     		movs	r5, #0
 244 006e 0795     		str	r5, [sp, #28]
 615:Core/Src/main.c ****   HAL_GPIO_Init(B1_GPIO_Port, &GPIO_InitStruct);
 245              		.loc 1 615 3 is_stmt 1 view .LVU69
 246 0070 2100     		movs	r1, r4
 247 0072 0848     		ldr	r0, .L12+4
 248 0074 FFF7FEFF 		bl	HAL_GPIO_Init
 249              	.LVL20:
 616:Core/Src/main.c **** 
 617:Core/Src/main.c ****   /*Configure GPIO pin : LD2_Pin */
 618:Core/Src/main.c ****   GPIO_InitStruct.Pin = LD2_Pin;
 250              		.loc 1 618 3 view .LVU70
 251              		.loc 1 618 23 is_stmt 0 view .LVU71
 252 0078 2023     		movs	r3, #32
 253 007a 0593     		str	r3, [sp, #20]
 619:Core/Src/main.c ****   GPIO_InitStruct.Mode = GPIO_MODE_OUTPUT_PP;
 254              		.loc 1 619 3 is_stmt 1 view .LVU72
 255              		.loc 1 619 24 is_stmt 0 view .LVU73
 256 007c 0696     		str	r6, [sp, #24]
 620:Core/Src/main.c ****   GPIO_InitStruct.Pull = GPIO_NOPULL;
 257              		.loc 1 620 3 is_stmt 1 view .LVU74
 258              		.loc 1 620 24 is_stmt 0 view .LVU75
 259 007e 0795     		str	r5, [sp, #28]
 621:Core/Src/main.c ****   GPIO_InitStruct.Speed = GPIO_SPEED_FREQ_LOW;
 260              		.loc 1 621 3 is_stmt 1 view .LVU76
 261              		.loc 1 621 25 is_stmt 0 view .LVU77
 262 0080 0895     		str	r5, [sp, #32]
 622:Core/Src/main.c ****   HAL_GPIO_Init(LD2_GPIO_Port, &GPIO_InitStruct);
 263              		.loc 1 622 3 is_stmt 1 view .LVU78
 264 0082 2100     		movs	r1, r4
 265 0084 3800     		movs	r0, r7
 266 0086 FFF7FEFF 		bl	HAL_GPIO_Init
 267              	.LVL21:
 623:Core/Src/main.c **** 
 624:Core/Src/main.c ****   /* USER CODE BEGIN MX_GPIO_Init_2 */
 625:Core/Src/main.c **** 
 626:Core/Src/main.c ****   /* USER CODE END MX_GPIO_Init_2 */
 627:Core/Src/main.c **** }
 268              		.loc 1 627 1 is_stmt 0 view .LVU79
 269 008a 0BB0     		add	sp, sp, #44
 270              		@ sp needed
 271 008c F0BD     		pop	{r4, r5, r6, r7, pc}
 272              	.L13:
ARM GAS  C:\Users\Tilen\AppData\Local\Temp\cc6ISDp8.s 			page 17


 273 008e C046     		.align	2
 274              	.L12:
 275 0090 00100240 		.word	1073876992
 276 0094 00080050 		.word	1342179328
 277              		.cfi_endproc
 278              	.LFE66:
 280              		.section	.text.DebugPrint,"ax",%progbits
 281              		.align	1
 282              		.syntax unified
 283              		.code	16
 284              		.thumb_func
 286              	DebugPrint:
 287              	.LVL22:
 288              	.LFB50:
  84:Core/Src/main.c ****   HAL_UART_Transmit(&huart2, (uint8_t *)text, (uint16_t)strlen(text), HAL_MAX_DELAY);
 289              		.loc 1 84 1 is_stmt 1 view -0
 290              		.cfi_startproc
 291              		@ args = 0, pretend = 0, frame = 0
 292              		@ frame_needed = 0, uses_anonymous_args = 0
  84:Core/Src/main.c ****   HAL_UART_Transmit(&huart2, (uint8_t *)text, (uint16_t)strlen(text), HAL_MAX_DELAY);
 293              		.loc 1 84 1 is_stmt 0 view .LVU81
 294 0000 10B5     		push	{r4, lr}
 295              	.LCFI3:
 296              		.cfi_def_cfa_offset 8
 297              		.cfi_offset 4, -8
 298              		.cfi_offset 14, -4
 299 0002 0400     		movs	r4, r0
  85:Core/Src/main.c **** }
 300              		.loc 1 85 3 is_stmt 1 view .LVU82
  85:Core/Src/main.c **** }
 301              		.loc 1 85 57 is_stmt 0 view .LVU83
 302 0004 FFF7FEFF 		bl	strlen
 303              	.LVL23:
  85:Core/Src/main.c **** }
 304              		.loc 1 85 3 discriminator 1 view .LVU84
 305 0008 0123     		movs	r3, #1
 306 000a 82B2     		uxth	r2, r0
 307 000c 0248     		ldr	r0, .L15
 308 000e 5B42     		rsbs	r3, r3, #0
 309 0010 2100     		movs	r1, r4
 310 0012 FFF7FEFF 		bl	HAL_UART_Transmit
 311              	.LVL24:
  86:Core/Src/main.c **** 
 312              		.loc 1 86 1 view .LVU85
 313              		@ sp needed
 314              	.LVL25:
  86:Core/Src/main.c **** 
 315              		.loc 1 86 1 view .LVU86
 316 0016 10BD     		pop	{r4, pc}
 317              	.L16:
 318              		.align	2
 319              	.L15:
 320 0018 00000000 		.word	huart2
 321              		.cfi_endproc
 322              	.LFE50:
 324              		.section	.text.DebugPrintf,"ax",%progbits
 325              		.align	1
ARM GAS  C:\Users\Tilen\AppData\Local\Temp\cc6ISDp8.s 			page 18


 326              		.syntax unified
 327              		.code	16
 328              		.thumb_func
 330              	DebugPrintf:
 331              	.LVL26:
 332              	.LFB51:
  89:Core/Src/main.c ****   char buffer[128];
 333              		.loc 1 89 1 is_stmt 1 view -0
 334              		.cfi_startproc
 335              		@ args = 4, pretend = 16, frame = 136
 336              		@ frame_needed = 0, uses_anonymous_args = 1
  89:Core/Src/main.c ****   char buffer[128];
 337              		.loc 1 89 1 is_stmt 0 view .LVU88
 338 0000 0FB4     		push	{r0, r1, r2, r3}
 339              	.LCFI4:
 340              		.cfi_def_cfa_offset 16
 341 0002 00B5     		push	{lr}
 342              	.LCFI5:
 343              		.cfi_def_cfa_offset 20
 344              		.cfi_offset 14, -20
 345 0004 A3B0     		sub	sp, sp, #140
 346              	.LCFI6:
 347              		.cfi_def_cfa_offset 160
 348 0006 24AB     		add	r3, sp, #144
 349 0008 04CB     		ldmia	r3!, {r2}
  90:Core/Src/main.c ****   int len;
 350              		.loc 1 90 3 is_stmt 1 view .LVU89
  91:Core/Src/main.c ****   va_list args;
 351              		.loc 1 91 3 view .LVU90
  92:Core/Src/main.c **** 
 352              		.loc 1 92 3 view .LVU91
  94:Core/Src/main.c ****   len = vsnprintf(buffer, sizeof(buffer), fmt, args);
 353              		.loc 1 94 3 view .LVU92
 354 000a 0193     		str	r3, [sp, #4]
  95:Core/Src/main.c ****   va_end(args);
 355              		.loc 1 95 3 view .LVU93
  95:Core/Src/main.c ****   va_end(args);
 356              		.loc 1 95 9 is_stmt 0 view .LVU94
 357 000c 8021     		movs	r1, #128
 358 000e 02A8     		add	r0, sp, #8
 359 0010 FFF7FEFF 		bl	vsnprintf
 360              	.LVL27:
  96:Core/Src/main.c **** 
 361              		.loc 1 96 3 is_stmt 1 view .LVU95
  98:Core/Src/main.c ****   {
 362              		.loc 1 98 3 view .LVU96
  98:Core/Src/main.c ****   {
 363              		.loc 1 98 6 is_stmt 0 view .LVU97
 364 0014 0028     		cmp	r0, #0
 365 0016 09DD     		ble	.L17
 103:Core/Src/main.c ****   {
 366              		.loc 1 103 3 is_stmt 1 view .LVU98
 103:Core/Src/main.c ****   {
 367              		.loc 1 103 6 is_stmt 0 view .LVU99
 368 0018 8028     		cmp	r0, #128
 369 001a 00D9     		bls	.L20
 105:Core/Src/main.c ****   }
ARM GAS  C:\Users\Tilen\AppData\Local\Temp\cc6ISDp8.s 			page 19


 370              		.loc 1 105 9 view .LVU100
 371 001c 8020     		movs	r0, #128
 372              	.LVL28:
 373              	.L20:
 108:Core/Src/main.c **** }
 374              		.loc 1 108 3 is_stmt 1 view .LVU101
 375 001e 0123     		movs	r3, #1
 376 0020 82B2     		uxth	r2, r0
 377 0022 0448     		ldr	r0, .L22
 378              	.LVL29:
 108:Core/Src/main.c **** }
 379              		.loc 1 108 3 is_stmt 0 view .LVU102
 380 0024 5B42     		rsbs	r3, r3, #0
 381 0026 02A9     		add	r1, sp, #8
 382 0028 FFF7FEFF 		bl	HAL_UART_Transmit
 383              	.LVL30:
 384              	.L17:
 109:Core/Src/main.c **** 
 385              		.loc 1 109 1 view .LVU103
 386 002c 23B0     		add	sp, sp, #140
 387              		@ sp needed
 388 002e 08BC     		pop	{r3}
 389 0030 04B0     		add	sp, sp, #16
 390 0032 1847     		bx	r3
 391              	.L23:
 392              		.align	2
 393              	.L22:
 394 0034 00000000 		.word	huart2
 395              		.cfi_endproc
 396              	.LFE51:
 398              		.section	.rodata.I2C2_ScanBus.str1.4,"aMS",%progbits,1
 399              		.align	2
 400              	.LC2:
 401 0000 5363616E 		.ascii	"Scanning I2C2 addresses 0x08..0x77\015\012\000"
 401      6E696E67 
 401      20493243 
 401      32206164 
 401      64726573 
 402 0025 000000   		.align	2
 403              	.LC5:
 404 0028 49324320 		.ascii	"I2C device found at 0x%02X\015\012\000"
 404      64657669 
 404      63652066 
 404      6F756E64 
 404      20617420 
 405 0045 000000   		.align	2
 406              	.LC7:
 407 0048 4E6F2049 		.ascii	"No I2C devices found\015\012\000"
 407      32432064 
 407      65766963 
 407      65732066 
 407      6F756E64 
 408              		.section	.text.I2C2_ScanBus,"ax",%progbits
 409              		.align	1
 410              		.syntax unified
 411              		.code	16
 412              		.thumb_func
ARM GAS  C:\Users\Tilen\AppData\Local\Temp\cc6ISDp8.s 			page 20


 414              	I2C2_ScanBus:
 415              	.LFB52:
 112:Core/Src/main.c ****   uint8_t addr;
 416              		.loc 1 112 1 is_stmt 1 view -0
 417              		.cfi_startproc
 418              		@ args = 0, pretend = 0, frame = 0
 419              		@ frame_needed = 0, uses_anonymous_args = 0
 420 0000 70B5     		push	{r4, r5, r6, lr}
 421              	.LCFI7:
 422              		.cfi_def_cfa_offset 16
 423              		.cfi_offset 4, -16
 424              		.cfi_offset 5, -12
 425              		.cfi_offset 6, -8
 426              		.cfi_offset 14, -4
 113:Core/Src/main.c ****   uint8_t found = 0U;
 427              		.loc 1 113 3 view .LVU105
 114:Core/Src/main.c **** 
 428              		.loc 1 114 3 view .LVU106
 429              	.LVL31:
 116:Core/Src/main.c **** 
 430              		.loc 1 116 3 view .LVU107
 431 0002 0F48     		ldr	r0, .L31
 432 0004 FFF7FEFF 		bl	DebugPrint
 433              	.LVL32:
 118:Core/Src/main.c ****   {
 434              		.loc 1 118 3 view .LVU108
 114:Core/Src/main.c **** 
 435              		.loc 1 114 11 is_stmt 0 view .LVU109
 436 0008 0025     		movs	r5, #0
 118:Core/Src/main.c ****   {
 437              		.loc 1 118 13 view .LVU110
 438 000a 0824     		movs	r4, #8
 118:Core/Src/main.c ****   {
 439              		.loc 1 118 3 view .LVU111
 440 000c 01E0     		b	.L25
 441              	.LVL33:
 442              	.L26:
 118:Core/Src/main.c ****   {
 443              		.loc 1 118 41 is_stmt 1 discriminator 2 view .LVU112
 444 000e 0134     		adds	r4, r4, #1
 445              	.LVL34:
 118:Core/Src/main.c ****   {
 446              		.loc 1 118 41 is_stmt 0 discriminator 2 view .LVU113
 447 0010 E4B2     		uxtb	r4, r4
 448              	.LVL35:
 449              	.L25:
 118:Core/Src/main.c ****   {
 450              		.loc 1 118 27 is_stmt 1 discriminator 1 view .LVU114
 451 0012 772C     		cmp	r4, #119
 452 0014 0DD8     		bhi	.L29
 120:Core/Src/main.c ****     {
 453              		.loc 1 120 5 view .LVU115
 120:Core/Src/main.c ****     {
 454              		.loc 1 120 9 is_stmt 0 view .LVU116
 455 0016 6100     		lsls	r1, r4, #1
 456 0018 0A48     		ldr	r0, .L31+4
 457 001a 1423     		movs	r3, #20
ARM GAS  C:\Users\Tilen\AppData\Local\Temp\cc6ISDp8.s 			page 21


 458 001c 0222     		movs	r2, #2
 459 001e FFF7FEFF 		bl	HAL_I2C_IsDeviceReady
 460              	.LVL36:
 120:Core/Src/main.c ****     {
 461              		.loc 1 120 8 discriminator 1 view .LVU117
 462 0022 0028     		cmp	r0, #0
 463 0024 F3D1     		bne	.L26
 122:Core/Src/main.c ****       found = 1U;
 464              		.loc 1 122 7 is_stmt 1 view .LVU118
 465 0026 0848     		ldr	r0, .L31+8
 466 0028 2100     		movs	r1, r4
 467 002a FFF7FEFF 		bl	DebugPrintf
 468              	.LVL37:
 123:Core/Src/main.c ****     }
 469              		.loc 1 123 7 view .LVU119
 123:Core/Src/main.c ****     }
 470              		.loc 1 123 13 is_stmt 0 view .LVU120
 471 002e 0125     		movs	r5, #1
 472 0030 EDE7     		b	.L26
 473              	.LVL38:
 474              	.L29:
 127:Core/Src/main.c ****   {
 475              		.loc 1 127 3 is_stmt 1 view .LVU121
 127:Core/Src/main.c ****   {
 476              		.loc 1 127 6 is_stmt 0 view .LVU122
 477 0032 002D     		cmp	r5, #0
 478 0034 00D0     		beq	.L30
 479              	.L24:
 131:Core/Src/main.c **** 
 480              		.loc 1 131 1 view .LVU123
 481              		@ sp needed
 482              	.LVL39:
 483              	.LVL40:
 131:Core/Src/main.c **** 
 484              		.loc 1 131 1 view .LVU124
 485 0036 70BD     		pop	{r4, r5, r6, pc}
 486              	.LVL41:
 487              	.L30:
 129:Core/Src/main.c ****   }
 488              		.loc 1 129 5 is_stmt 1 view .LVU125
 489 0038 0448     		ldr	r0, .L31+12
 490 003a FFF7FEFF 		bl	DebugPrint
 491              	.LVL42:
 131:Core/Src/main.c **** 
 492              		.loc 1 131 1 is_stmt 0 view .LVU126
 493 003e FAE7     		b	.L24
 494              	.L32:
 495              		.align	2
 496              	.L31:
 497 0040 00000000 		.word	.LC2
 498 0044 00000000 		.word	hi2c2
 499 0048 28000000 		.word	.LC5
 500 004c 48000000 		.word	.LC7
 501              		.cfi_endproc
 502              	.LFE52:
 504              		.section	.text.SHT40_ReadRaw,"ax",%progbits
 505              		.align	1
ARM GAS  C:\Users\Tilen\AppData\Local\Temp\cc6ISDp8.s 			page 22


 506              		.syntax unified
 507              		.code	16
 508              		.thumb_func
 510              	SHT40_ReadRaw:
 511              	.LVL43:
 512              	.LFB54:
 159:Core/Src/main.c ****   uint8_t cmd = SHT40_CMD_MEASURE_HIGH;
 513              		.loc 1 159 1 is_stmt 1 view -0
 514              		.cfi_startproc
 515              		@ args = 0, pretend = 0, frame = 8
 516              		@ frame_needed = 0, uses_anonymous_args = 0
 159:Core/Src/main.c ****   uint8_t cmd = SHT40_CMD_MEASURE_HIGH;
 517              		.loc 1 159 1 is_stmt 0 view .LVU128
 518 0000 70B5     		push	{r4, r5, r6, lr}
 519              	.LCFI8:
 520              		.cfi_def_cfa_offset 16
 521              		.cfi_offset 4, -16
 522              		.cfi_offset 5, -12
 523              		.cfi_offset 6, -8
 524              		.cfi_offset 14, -4
 525 0002 84B0     		sub	sp, sp, #16
 526              	.LCFI9:
 527              		.cfi_def_cfa_offset 32
 528 0004 0400     		movs	r4, r0
 529 0006 0D00     		movs	r5, r1
 160:Core/Src/main.c ****   uint8_t rx[6];
 530              		.loc 1 160 3 is_stmt 1 view .LVU129
 160:Core/Src/main.c ****   uint8_t rx[6];
 531              		.loc 1 160 11 is_stmt 0 view .LVU130
 532 0008 0F22     		movs	r2, #15
 533 000a 6A44     		add	r2, r2, sp
 534 000c FD23     		movs	r3, #253
 535 000e 1370     		strb	r3, [r2]
 161:Core/Src/main.c **** 
 536              		.loc 1 161 3 is_stmt 1 view .LVU131
 163:Core/Src/main.c ****   {
 537              		.loc 1 163 3 view .LVU132
 163:Core/Src/main.c ****   {
 538              		.loc 1 163 7 is_stmt 0 view .LVU133
 539 0010 2048     		ldr	r0, .L40
 540              	.LVL44:
 163:Core/Src/main.c ****   {
 541              		.loc 1 163 7 view .LVU134
 542 0012 993B     		subs	r3, r3, #153
 543 0014 0093     		str	r3, [sp]
 544 0016 633B     		subs	r3, r3, #99
 545 0018 8821     		movs	r1, #136
 546              	.LVL45:
 163:Core/Src/main.c ****   {
 547              		.loc 1 163 7 view .LVU135
 548 001a FFF7FEFF 		bl	HAL_I2C_Master_Transmit
 549              	.LVL46:
 163:Core/Src/main.c ****   {
 550              		.loc 1 163 6 discriminator 1 view .LVU136
 551 001e 0028     		cmp	r0, #0
 552 0020 04D0     		beq	.L39
 165:Core/Src/main.c ****   }
ARM GAS  C:\Users\Tilen\AppData\Local\Temp\cc6ISDp8.s 			page 23


 553              		.loc 1 165 12 view .LVU137
 554 0022 0123     		movs	r3, #1
 555 0024 1E00     		movs	r6, r3
 556              	.L34:
 184:Core/Src/main.c **** 
 557              		.loc 1 184 1 view .LVU138
 558 0026 3000     		movs	r0, r6
 559 0028 04B0     		add	sp, sp, #16
 560              		@ sp needed
 561              	.LVL47:
 562              	.LVL48:
 184:Core/Src/main.c **** 
 563              		.loc 1 184 1 view .LVU139
 564 002a 70BD     		pop	{r4, r5, r6, pc}
 565              	.LVL49:
 566              	.L39:
 168:Core/Src/main.c **** 
 567              		.loc 1 168 3 is_stmt 1 view .LVU140
 568 002c 0A30     		adds	r0, r0, #10
 569 002e FFF7FEFF 		bl	HAL_Delay
 570              	.LVL50:
 170:Core/Src/main.c ****   {
 571              		.loc 1 170 3 view .LVU141
 170:Core/Src/main.c ****   {
 572              		.loc 1 170 7 is_stmt 0 view .LVU142
 573 0032 1848     		ldr	r0, .L40
 574 0034 6423     		movs	r3, #100
 575 0036 0093     		str	r3, [sp]
 576 0038 5E3B     		subs	r3, r3, #94
 577 003a 02AA     		add	r2, sp, #8
 578 003c 8821     		movs	r1, #136
 579 003e FFF7FEFF 		bl	HAL_I2C_Master_Receive
 580              	.LVL51:
 581 0042 061E     		subs	r6, r0, #0
 170:Core/Src/main.c ****   {
 582              		.loc 1 170 6 discriminator 1 view .LVU143
 583 0044 1CD1     		bne	.L36
 175:Core/Src/main.c ****   {
 584              		.loc 1 175 3 is_stmt 1 view .LVU144
 175:Core/Src/main.c ****   {
 585              		.loc 1 175 7 is_stmt 0 view .LVU145
 586 0046 0221     		movs	r1, #2
 587 0048 02A8     		add	r0, sp, #8
 588 004a FFF7FEFF 		bl	SHT40_Crc8
 589              	.LVL52:
 175:Core/Src/main.c ****   {
 590              		.loc 1 175 35 discriminator 1 view .LVU146
 591 004e 6B46     		mov	r3, sp
 592 0050 9B7A     		ldrb	r3, [r3, #10]
 175:Core/Src/main.c ****   {
 593              		.loc 1 175 6 discriminator 1 view .LVU147
 594 0052 9842     		cmp	r0, r3
 595 0054 17D1     		bne	.L37
 175:Core/Src/main.c ****   {
 596              		.loc 1 175 42 discriminator 2 view .LVU148
 597 0056 0221     		movs	r1, #2
 598 0058 0B20     		movs	r0, #11
ARM GAS  C:\Users\Tilen\AppData\Local\Temp\cc6ISDp8.s 			page 24


 599 005a 6844     		add	r0, r0, sp
 600 005c FFF7FEFF 		bl	SHT40_Crc8
 601              	.LVL53:
 175:Core/Src/main.c ****   {
 602              		.loc 1 175 70 discriminator 3 view .LVU149
 603 0060 02AB     		add	r3, sp, #8
 604 0062 5B79     		ldrb	r3, [r3, #5]
 175:Core/Src/main.c ****   {
 605              		.loc 1 175 39 discriminator 3 view .LVU150
 606 0064 9842     		cmp	r0, r3
 607 0066 11D1     		bne	.L38
 180:Core/Src/main.c ****   *humidity_ticks = (uint16_t)(((uint16_t)rx[3] << 8) | rx[4]);
 608              		.loc 1 180 3 is_stmt 1 view .LVU151
 180:Core/Src/main.c ****   *humidity_ticks = (uint16_t)(((uint16_t)rx[3] << 8) | rx[4]);
 609              		.loc 1 180 48 is_stmt 0 view .LVU152
 610 0068 02AB     		add	r3, sp, #8
 611 006a 1978     		ldrb	r1, [r3]
 180:Core/Src/main.c ****   *humidity_ticks = (uint16_t)(((uint16_t)rx[3] << 8) | rx[4]);
 612              		.loc 1 180 62 view .LVU153
 613 006c 5A78     		ldrb	r2, [r3, #1]
 180:Core/Src/main.c ****   *humidity_ticks = (uint16_t)(((uint16_t)rx[3] << 8) | rx[4]);
 614              		.loc 1 180 58 view .LVU154
 615 006e 0902     		lsls	r1, r1, #8
 180:Core/Src/main.c ****   *humidity_ticks = (uint16_t)(((uint16_t)rx[3] << 8) | rx[4]);
 616              		.loc 1 180 24 view .LVU155
 617 0070 0A43     		orrs	r2, r1
 180:Core/Src/main.c ****   *humidity_ticks = (uint16_t)(((uint16_t)rx[3] << 8) | rx[4]);
 618              		.loc 1 180 22 view .LVU156
 619 0072 2280     		strh	r2, [r4]
 181:Core/Src/main.c **** 
 620              		.loc 1 181 3 is_stmt 1 view .LVU157
 181:Core/Src/main.c **** 
 621              		.loc 1 181 45 is_stmt 0 view .LVU158
 622 0074 DA78     		ldrb	r2, [r3, #3]
 181:Core/Src/main.c **** 
 623              		.loc 1 181 59 view .LVU159
 624 0076 1B79     		ldrb	r3, [r3, #4]
 181:Core/Src/main.c **** 
 625              		.loc 1 181 55 view .LVU160
 626 0078 1202     		lsls	r2, r2, #8
 181:Core/Src/main.c **** 
 627              		.loc 1 181 21 view .LVU161
 628 007a 1343     		orrs	r3, r2
 181:Core/Src/main.c **** 
 629              		.loc 1 181 19 view .LVU162
 630 007c 2B80     		strh	r3, [r5]
 183:Core/Src/main.c **** }
 631              		.loc 1 183 3 is_stmt 1 view .LVU163
 183:Core/Src/main.c **** }
 632              		.loc 1 183 10 is_stmt 0 view .LVU164
 633 007e D2E7     		b	.L34
 634              	.L36:
 172:Core/Src/main.c ****   }
 635              		.loc 1 172 12 view .LVU165
 636 0080 0123     		movs	r3, #1
 637 0082 1E00     		movs	r6, r3
 638 0084 CFE7     		b	.L34
ARM GAS  C:\Users\Tilen\AppData\Local\Temp\cc6ISDp8.s 			page 25


 639              	.L37:
 177:Core/Src/main.c ****   }
 640              		.loc 1 177 12 view .LVU166
 641 0086 0123     		movs	r3, #1
 642 0088 1E00     		movs	r6, r3
 643 008a CCE7     		b	.L34
 644              	.L38:
 645 008c 0123     		movs	r3, #1
 646 008e 1E00     		movs	r6, r3
 647 0090 C9E7     		b	.L34
 648              	.L41:
 649 0092 C046     		.align	2
 650              	.L40:
 651 0094 00000000 		.word	hi2c2
 652              		.cfi_endproc
 653              	.LFE54:
 655              		.section	.rodata.SHT40_TestLoop.str1.4,"aMS",%progbits,1
 656              		.align	2
 657              	.LC11:
 658 0000 53485434 		.ascii	"SHT40 not responding at 0x44\015\012\000"
 658      30206E6F 
 658      74207265 
 658      73706F6E 
 658      64696E67 
 659 001f 00       		.align	2
 660              	.LC13:
 661 0020 53485434 		.ascii	"SHT40 read failed\015\012\000"
 661      30207265 
 661      61642066 
 661      61696C65 
 661      640D0A00 
 662              		.align	2
 663              	.LC15:
 664 0034 53485434 		.ascii	"SHT40 OK  T=%.2f C  RH=%.2f %%\015\012\000"
 664      30204F4B 
 664      2020543D 
 664      252E3266 
 664      20432020 
 665              		.section	.text.SHT40_TestLoop,"ax",%progbits
 666              		.align	1
 667              		.syntax unified
 668              		.code	16
 669              		.thumb_func
 671              	SHT40_TestLoop:
 672              	.LFB55:
 187:Core/Src/main.c ****   uint16_t temperature_ticks;
 673              		.loc 1 187 1 is_stmt 1 view -0
 674              		.cfi_startproc
 675              		@ args = 0, pretend = 0, frame = 8
 676              		@ frame_needed = 0, uses_anonymous_args = 0
 677 0000 70B5     		push	{r4, r5, r6, lr}
 678              	.LCFI10:
 679              		.cfi_def_cfa_offset 16
 680              		.cfi_offset 4, -16
 681              		.cfi_offset 5, -12
 682              		.cfi_offset 6, -8
 683              		.cfi_offset 14, -4
ARM GAS  C:\Users\Tilen\AppData\Local\Temp\cc6ISDp8.s 			page 26


 684 0002 84B0     		sub	sp, sp, #16
 685              	.LCFI11:
 686              		.cfi_def_cfa_offset 32
 188:Core/Src/main.c ****   uint16_t humidity_ticks;
 687              		.loc 1 188 3 view .LVU168
 189:Core/Src/main.c ****   float temperature_c;
 688              		.loc 1 189 3 view .LVU169
 190:Core/Src/main.c ****   float humidity_rh;
 689              		.loc 1 190 3 view .LVU170
 191:Core/Src/main.c **** 
 690              		.loc 1 191 3 view .LVU171
 193:Core/Src/main.c ****   {
 691              		.loc 1 193 3 view .LVU172
 193:Core/Src/main.c ****   {
 692              		.loc 1 193 7 is_stmt 0 view .LVU173
 693 0004 3048     		ldr	r0, .L52
 694 0006 6423     		movs	r3, #100
 695 0008 0322     		movs	r2, #3
 696 000a 8821     		movs	r1, #136
 697 000c FFF7FEFF 		bl	HAL_I2C_IsDeviceReady
 698              	.LVL54:
 193:Core/Src/main.c ****   {
 699              		.loc 1 193 6 discriminator 1 view .LVU174
 700 0010 0028     		cmp	r0, #0
 701 0012 32D1     		bne	.L50
 200:Core/Src/main.c ****   {
 702              		.loc 1 200 3 is_stmt 1 view .LVU175
 200:Core/Src/main.c ****   {
 703              		.loc 1 200 7 is_stmt 0 view .LVU176
 704 0014 03A9     		add	r1, sp, #12
 705 0016 0E20     		movs	r0, #14
 706 0018 6844     		add	r0, r0, sp
 707 001a FFF7FEFF 		bl	SHT40_ReadRaw
 708              	.LVL55:
 200:Core/Src/main.c ****   {
 709              		.loc 1 200 6 discriminator 1 view .LVU177
 710 001e 0028     		cmp	r0, #0
 711 0020 33D1     		bne	.L51
 207:Core/Src/main.c ****   humidity_rh = -6.0f + (125.0f * (float)humidity_ticks / 65535.0f);
 712              		.loc 1 207 3 is_stmt 1 view .LVU178
 207:Core/Src/main.c ****   humidity_rh = -6.0f + (125.0f * (float)humidity_ticks / 65535.0f);
 713              		.loc 1 207 38 is_stmt 0 view .LVU179
 714 0022 0E23     		movs	r3, #14
 715 0024 6B44     		add	r3, r3, sp
 716 0026 1888     		ldrh	r0, [r3]
 717 0028 FFF7FEFF 		bl	__aeabi_ui2f
 718              	.LVL56:
 207:Core/Src/main.c ****   humidity_rh = -6.0f + (125.0f * (float)humidity_ticks / 65535.0f);
 719              		.loc 1 207 36 view .LVU180
 720 002c 2749     		ldr	r1, .L52+4
 721 002e FFF7FEFF 		bl	__aeabi_fmul
 722              	.LVL57:
 207:Core/Src/main.c ****   humidity_rh = -6.0f + (125.0f * (float)humidity_ticks / 65535.0f);
 723              		.loc 1 207 63 view .LVU181
 724 0032 2749     		ldr	r1, .L52+8
 725 0034 FFF7FEFF 		bl	__aeabi_fdiv
 726              	.LVL58:
ARM GAS  C:\Users\Tilen\AppData\Local\Temp\cc6ISDp8.s 			page 27


 207:Core/Src/main.c ****   humidity_rh = -6.0f + (125.0f * (float)humidity_ticks / 65535.0f);
 727              		.loc 1 207 17 view .LVU182
 728 0038 2649     		ldr	r1, .L52+12
 729 003a FFF7FEFF 		bl	__aeabi_fsub
 730              	.LVL59:
 731 003e 051C     		adds	r5, r0, #0
 732              	.LVL60:
 208:Core/Src/main.c **** 
 733              		.loc 1 208 3 is_stmt 1 view .LVU183
 208:Core/Src/main.c **** 
 734              		.loc 1 208 35 is_stmt 0 view .LVU184
 735 0040 03AB     		add	r3, sp, #12
 736 0042 1888     		ldrh	r0, [r3]
 737              	.LVL61:
 208:Core/Src/main.c **** 
 738              		.loc 1 208 35 view .LVU185
 739 0044 FFF7FEFF 		bl	__aeabi_ui2f
 740              	.LVL62:
 208:Core/Src/main.c **** 
 741              		.loc 1 208 33 view .LVU186
 742 0048 2349     		ldr	r1, .L52+16
 743 004a FFF7FEFF 		bl	__aeabi_fmul
 744              	.LVL63:
 208:Core/Src/main.c **** 
 745              		.loc 1 208 57 view .LVU187
 746 004e 2049     		ldr	r1, .L52+8
 747 0050 FFF7FEFF 		bl	__aeabi_fdiv
 748              	.LVL64:
 208:Core/Src/main.c **** 
 749              		.loc 1 208 15 view .LVU188
 750 0054 2149     		ldr	r1, .L52+20
 751 0056 FFF7FEFF 		bl	__aeabi_fsub
 752              	.LVL65:
 753 005a 041C     		adds	r4, r0, #0
 754 005c 061C     		adds	r6, r0, #0
 755              	.LVL66:
 210:Core/Src/main.c ****   {
 756              		.loc 1 210 3 is_stmt 1 view .LVU189
 210:Core/Src/main.c ****   {
 757              		.loc 1 210 6 is_stmt 0 view .LVU190
 758 005e 0021     		movs	r1, #0
 759 0060 FFF7FEFF 		bl	__aeabi_fcmplt
 760              	.LVL67:
 210:Core/Src/main.c ****   {
 761              		.loc 1 210 6 view .LVU191
 762 0064 0028     		cmp	r0, #0
 763 0066 18D1     		bne	.L48
 214:Core/Src/main.c ****   {
 764              		.loc 1 214 8 is_stmt 1 view .LVU192
 214:Core/Src/main.c ****   {
 765              		.loc 1 214 11 is_stmt 0 view .LVU193
 766 0068 1D49     		ldr	r1, .L52+24
 767 006a 201C     		adds	r0, r4, #0
 768 006c FFF7FEFF 		bl	__aeabi_fcmpgt
 769              	.LVL68:
 770 0070 0028     		cmp	r0, #0
 771 0072 14D0     		beq	.L46
ARM GAS  C:\Users\Tilen\AppData\Local\Temp\cc6ISDp8.s 			page 28


 216:Core/Src/main.c ****   }
 772              		.loc 1 216 17 view .LVU194
 773 0074 1A4B     		ldr	r3, .L52+24
 774 0076 1E1C     		adds	r6, r3, #0
 775 0078 11E0     		b	.L46
 776              	.LVL69:
 777              	.L50:
 195:Core/Src/main.c ****     HAL_Delay(1000U);
 778              		.loc 1 195 5 is_stmt 1 view .LVU195
 779 007a 1A48     		ldr	r0, .L52+28
 780 007c FFF7FEFF 		bl	DebugPrint
 781              	.LVL70:
 196:Core/Src/main.c ****     return;
 782              		.loc 1 196 5 view .LVU196
 783 0080 FA20     		movs	r0, #250
 784 0082 8000     		lsls	r0, r0, #2
 785 0084 FFF7FEFF 		bl	HAL_Delay
 786              	.LVL71:
 197:Core/Src/main.c ****   }
 787              		.loc 1 197 5 view .LVU197
 788 0088 1CE0     		b	.L42
 789              	.L51:
 202:Core/Src/main.c ****     HAL_Delay(1000U);
 790              		.loc 1 202 5 view .LVU198
 791 008a 1748     		ldr	r0, .L52+32
 792 008c FFF7FEFF 		bl	DebugPrint
 793              	.LVL72:
 203:Core/Src/main.c ****     return;
 794              		.loc 1 203 5 view .LVU199
 795 0090 FA20     		movs	r0, #250
 796 0092 8000     		lsls	r0, r0, #2
 797 0094 FFF7FEFF 		bl	HAL_Delay
 798              	.LVL73:
 204:Core/Src/main.c ****   }
 799              		.loc 1 204 5 view .LVU200
 800 0098 14E0     		b	.L42
 801              	.LVL74:
 802              	.L48:
 212:Core/Src/main.c ****   }
 803              		.loc 1 212 17 is_stmt 0 view .LVU201
 804 009a 0023     		movs	r3, #0
 805 009c 1E1C     		adds	r6, r3, #0
 806              	.L46:
 807              	.LVL75:
 219:Core/Src/main.c ****   HAL_Delay(1000U);
 808              		.loc 1 219 3 is_stmt 1 view .LVU202
 809 009e 281C     		adds	r0, r5, #0
 810 00a0 FFF7FEFF 		bl	__aeabi_f2d
 811              	.LVL76:
 812 00a4 0400     		movs	r4, r0
 813 00a6 0D00     		movs	r5, r1
 814              	.LVL77:
 219:Core/Src/main.c ****   HAL_Delay(1000U);
 815              		.loc 1 219 3 is_stmt 0 view .LVU203
 816 00a8 301C     		adds	r0, r6, #0
 817 00aa FFF7FEFF 		bl	__aeabi_f2d
 818              	.LVL78:
ARM GAS  C:\Users\Tilen\AppData\Local\Temp\cc6ISDp8.s 			page 29


 819 00ae 0090     		str	r0, [sp]
 820 00b0 0191     		str	r1, [sp, #4]
 821 00b2 2200     		movs	r2, r4
 822 00b4 2B00     		movs	r3, r5
 823 00b6 0D48     		ldr	r0, .L52+36
 824 00b8 FFF7FEFF 		bl	DebugPrintf
 825              	.LVL79:
 220:Core/Src/main.c **** }
 826              		.loc 1 220 3 is_stmt 1 view .LVU204
 827 00bc FA20     		movs	r0, #250
 828 00be 8000     		lsls	r0, r0, #2
 829 00c0 FFF7FEFF 		bl	HAL_Delay
 830              	.LVL80:
 831              	.L42:
 221:Core/Src/main.c **** 
 832              		.loc 1 221 1 is_stmt 0 view .LVU205
 833 00c4 04B0     		add	sp, sp, #16
 834              		@ sp needed
 835 00c6 70BD     		pop	{r4, r5, r6, pc}
 836              	.L53:
 837              		.align	2
 838              	.L52:
 839 00c8 00000000 		.word	hi2c2
 840 00cc 00002F43 		.word	1127153664
 841 00d0 00FF7F47 		.word	1199570688
 842 00d4 00003442 		.word	1110704128
 843 00d8 0000FA42 		.word	1123680256
 844 00dc 0000C040 		.word	1086324736
 845 00e0 0000C842 		.word	1120403456
 846 00e4 00000000 		.word	.LC11
 847 00e8 20000000 		.word	.LC13
 848 00ec 34000000 		.word	.LC15
 849              		.cfi_endproc
 850              	.LFE55:
 852              		.section	.text.HAL_RTCEx_WakeUpTimerEventCallback,"ax",%progbits
 853              		.align	1
 854              		.global	HAL_RTCEx_WakeUpTimerEventCallback
 855              		.syntax unified
 856              		.code	16
 857              		.thumb_func
 859              	HAL_RTCEx_WakeUpTimerEventCallback:
 860              	.LVL81:
 861              	.LFB59:
 315:Core/Src/main.c ****   (void)hrtc_cb;
 862              		.loc 1 315 1 is_stmt 1 view -0
 863              		.cfi_startproc
 864              		@ args = 0, pretend = 0, frame = 0
 865              		@ frame_needed = 0, uses_anonymous_args = 0
 866              		@ link register save eliminated.
 316:Core/Src/main.c ****   g_rtc_wakeup = 1U;
 867              		.loc 1 316 3 view .LVU207
 317:Core/Src/main.c **** }
 868              		.loc 1 317 3 view .LVU208
 317:Core/Src/main.c **** }
 869              		.loc 1 317 16 is_stmt 0 view .LVU209
 870 0000 014B     		ldr	r3, .L55
 871 0002 0122     		movs	r2, #1
ARM GAS  C:\Users\Tilen\AppData\Local\Temp\cc6ISDp8.s 			page 30


 872 0004 1A70     		strb	r2, [r3]
 318:Core/Src/main.c **** 
 873              		.loc 1 318 1 view .LVU210
 874              		@ sp needed
 875 0006 7047     		bx	lr
 876              	.L56:
 877              		.align	2
 878              	.L55:
 879 0008 00000000 		.word	g_rtc_wakeup
 880              		.cfi_endproc
 881              	.LFE59:
 883              		.section	.text.Error_Handler,"ax",%progbits
 884              		.align	1
 885              		.global	Error_Handler
 886              		.syntax unified
 887              		.code	16
 888              		.thumb_func
 890              	Error_Handler:
 891              	.LFB67:
 628:Core/Src/main.c **** 
 629:Core/Src/main.c **** /* USER CODE BEGIN 4 */
 630:Core/Src/main.c **** 
 631:Core/Src/main.c **** /* USER CODE END 4 */
 632:Core/Src/main.c **** 
 633:Core/Src/main.c **** /**
 634:Core/Src/main.c ****   * @brief  This function is executed in case of error occurrence.
 635:Core/Src/main.c ****   * @retval None
 636:Core/Src/main.c ****   */
 637:Core/Src/main.c **** void Error_Handler(void)
 638:Core/Src/main.c **** {
 892              		.loc 1 638 1 is_stmt 1 view -0
 893              		.cfi_startproc
 894              		@ Volatile: function does not return.
 895              		@ args = 0, pretend = 0, frame = 0
 896              		@ frame_needed = 0, uses_anonymous_args = 0
 897              		@ link register save eliminated.
 898              	.L58:
 639:Core/Src/main.c ****   /* USER CODE BEGIN Error_Handler_Debug */
 640:Core/Src/main.c ****   /* User can add his own implementation to report the HAL error return state */
 641:Core/Src/main.c **** 
 642:Core/Src/main.c ****   while (1)
 899              		.loc 1 642 3 view .LVU212
 643:Core/Src/main.c ****   {
 644:Core/Src/main.c ****   }
 900              		.loc 1 644 3 view .LVU213
 642:Core/Src/main.c ****   {
 901              		.loc 1 642 9 view .LVU214
 902 0000 FEE7     		b	.L58
 903              		.cfi_endproc
 904              	.LFE67:
 906              		.section	.text.MX_USART2_UART_Init,"ax",%progbits
 907              		.align	1
 908              		.syntax unified
 909              		.code	16
 910              		.thumb_func
 912              	MX_USART2_UART_Init:
 913              	.LFB65:
ARM GAS  C:\Users\Tilen\AppData\Local\Temp\cc6ISDp8.s 			page 31


 561:Core/Src/main.c **** 
 914              		.loc 1 561 1 view -0
 915              		.cfi_startproc
 916              		@ args = 0, pretend = 0, frame = 0
 917              		@ frame_needed = 0, uses_anonymous_args = 0
 918 0000 10B5     		push	{r4, lr}
 919              	.LCFI12:
 920              		.cfi_def_cfa_offset 8
 921              		.cfi_offset 4, -8
 922              		.cfi_offset 14, -4
 570:Core/Src/main.c ****   huart2.Init.BaudRate = 115200;
 923              		.loc 1 570 3 view .LVU216
 570:Core/Src/main.c ****   huart2.Init.BaudRate = 115200;
 924              		.loc 1 570 19 is_stmt 0 view .LVU217
 925 0002 0B48     		ldr	r0, .L62
 926 0004 0B4B     		ldr	r3, .L62+4
 927 0006 0360     		str	r3, [r0]
 571:Core/Src/main.c ****   huart2.Init.WordLength = UART_WORDLENGTH_8B;
 928              		.loc 1 571 3 is_stmt 1 view .LVU218
 571:Core/Src/main.c ****   huart2.Init.WordLength = UART_WORDLENGTH_8B;
 929              		.loc 1 571 24 is_stmt 0 view .LVU219
 930 0008 E123     		movs	r3, #225
 931 000a 5B02     		lsls	r3, r3, #9
 932 000c 4360     		str	r3, [r0, #4]
 572:Core/Src/main.c ****   huart2.Init.StopBits = UART_STOPBITS_1;
 933              		.loc 1 572 3 is_stmt 1 view .LVU220
 572:Core/Src/main.c ****   huart2.Init.StopBits = UART_STOPBITS_1;
 934              		.loc 1 572 26 is_stmt 0 view .LVU221
 935 000e 0023     		movs	r3, #0
 936 0010 8360     		str	r3, [r0, #8]
 573:Core/Src/main.c ****   huart2.Init.Parity = UART_PARITY_NONE;
 937              		.loc 1 573 3 is_stmt 1 view .LVU222
 573:Core/Src/main.c ****   huart2.Init.Parity = UART_PARITY_NONE;
 938              		.loc 1 573 24 is_stmt 0 view .LVU223
 939 0012 C360     		str	r3, [r0, #12]
 574:Core/Src/main.c ****   huart2.Init.Mode = UART_MODE_TX_RX;
 940              		.loc 1 574 3 is_stmt 1 view .LVU224
 574:Core/Src/main.c ****   huart2.Init.Mode = UART_MODE_TX_RX;
 941              		.loc 1 574 22 is_stmt 0 view .LVU225
 942 0014 0361     		str	r3, [r0, #16]
 575:Core/Src/main.c ****   huart2.Init.HwFlowCtl = UART_HWCONTROL_NONE;
 943              		.loc 1 575 3 is_stmt 1 view .LVU226
 575:Core/Src/main.c ****   huart2.Init.HwFlowCtl = UART_HWCONTROL_NONE;
 944              		.loc 1 575 20 is_stmt 0 view .LVU227
 945 0016 0C22     		movs	r2, #12
 946 0018 4261     		str	r2, [r0, #20]
 576:Core/Src/main.c ****   huart2.Init.OverSampling = UART_OVERSAMPLING_16;
 947              		.loc 1 576 3 is_stmt 1 view .LVU228
 576:Core/Src/main.c ****   huart2.Init.OverSampling = UART_OVERSAMPLING_16;
 948              		.loc 1 576 25 is_stmt 0 view .LVU229
 949 001a 8361     		str	r3, [r0, #24]
 577:Core/Src/main.c ****   huart2.Init.OneBitSampling = UART_ONE_BIT_SAMPLE_DISABLE;
 950              		.loc 1 577 3 is_stmt 1 view .LVU230
 577:Core/Src/main.c ****   huart2.Init.OneBitSampling = UART_ONE_BIT_SAMPLE_DISABLE;
 951              		.loc 1 577 28 is_stmt 0 view .LVU231
 952 001c C361     		str	r3, [r0, #28]
 578:Core/Src/main.c ****   huart2.AdvancedInit.AdvFeatureInit = UART_ADVFEATURE_NO_INIT;
ARM GAS  C:\Users\Tilen\AppData\Local\Temp\cc6ISDp8.s 			page 32


 953              		.loc 1 578 3 is_stmt 1 view .LVU232
 578:Core/Src/main.c ****   huart2.AdvancedInit.AdvFeatureInit = UART_ADVFEATURE_NO_INIT;
 954              		.loc 1 578 30 is_stmt 0 view .LVU233
 955 001e 0362     		str	r3, [r0, #32]
 579:Core/Src/main.c ****   if (HAL_UART_Init(&huart2) != HAL_OK)
 956              		.loc 1 579 3 is_stmt 1 view .LVU234
 579:Core/Src/main.c ****   if (HAL_UART_Init(&huart2) != HAL_OK)
 957              		.loc 1 579 38 is_stmt 0 view .LVU235
 958 0020 4362     		str	r3, [r0, #36]
 580:Core/Src/main.c ****   {
 959              		.loc 1 580 3 is_stmt 1 view .LVU236
 580:Core/Src/main.c ****   {
 960              		.loc 1 580 7 is_stmt 0 view .LVU237
 961 0022 FFF7FEFF 		bl	HAL_UART_Init
 962              	.LVL82:
 580:Core/Src/main.c ****   {
 963              		.loc 1 580 6 discriminator 1 view .LVU238
 964 0026 0028     		cmp	r0, #0
 965 0028 00D1     		bne	.L61
 588:Core/Src/main.c **** 
 966              		.loc 1 588 1 view .LVU239
 967              		@ sp needed
 968 002a 10BD     		pop	{r4, pc}
 969              	.L61:
 582:Core/Src/main.c ****   }
 970              		.loc 1 582 5 is_stmt 1 view .LVU240
 971 002c FFF7FEFF 		bl	Error_Handler
 972              	.LVL83:
 973              	.L63:
 974              		.align	2
 975              	.L62:
 976 0030 00000000 		.word	huart2
 977 0034 00440040 		.word	1073759232
 978              		.cfi_endproc
 979              	.LFE65:
 981              		.section	.text.MX_RTC_Init,"ax",%progbits
 982              		.align	1
 983              		.syntax unified
 984              		.code	16
 985              		.thumb_func
 987              	MX_RTC_Init:
 988              	.LFB64:
 518:Core/Src/main.c **** 
 989              		.loc 1 518 1 view -0
 990              		.cfi_startproc
 991              		@ args = 0, pretend = 0, frame = 0
 992              		@ frame_needed = 0, uses_anonymous_args = 0
 993 0000 10B5     		push	{r4, lr}
 994              	.LCFI13:
 995              		.cfi_def_cfa_offset 8
 996              		.cfi_offset 4, -8
 997              		.cfi_offset 14, -4
 530:Core/Src/main.c ****   hrtc.Init.HourFormat = RTC_HOURFORMAT_24;
 998              		.loc 1 530 3 view .LVU242
 530:Core/Src/main.c ****   hrtc.Init.HourFormat = RTC_HOURFORMAT_24;
 999              		.loc 1 530 17 is_stmt 0 view .LVU243
 1000 0002 0E48     		ldr	r0, .L69
ARM GAS  C:\Users\Tilen\AppData\Local\Temp\cc6ISDp8.s 			page 33


 1001 0004 0E4B     		ldr	r3, .L69+4
 1002 0006 0360     		str	r3, [r0]
 531:Core/Src/main.c ****   hrtc.Init.AsynchPrediv = 127;
 1003              		.loc 1 531 3 is_stmt 1 view .LVU244
 531:Core/Src/main.c ****   hrtc.Init.AsynchPrediv = 127;
 1004              		.loc 1 531 24 is_stmt 0 view .LVU245
 1005 0008 0023     		movs	r3, #0
 1006 000a 4360     		str	r3, [r0, #4]
 532:Core/Src/main.c ****   hrtc.Init.SynchPrediv = 255;
 1007              		.loc 1 532 3 is_stmt 1 view .LVU246
 532:Core/Src/main.c ****   hrtc.Init.SynchPrediv = 255;
 1008              		.loc 1 532 26 is_stmt 0 view .LVU247
 1009 000c 7F22     		movs	r2, #127
 1010 000e 8260     		str	r2, [r0, #8]
 533:Core/Src/main.c ****   hrtc.Init.OutPut = RTC_OUTPUT_DISABLE;
 1011              		.loc 1 533 3 is_stmt 1 view .LVU248
 533:Core/Src/main.c ****   hrtc.Init.OutPut = RTC_OUTPUT_DISABLE;
 1012              		.loc 1 533 25 is_stmt 0 view .LVU249
 1013 0010 8032     		adds	r2, r2, #128
 1014 0012 C260     		str	r2, [r0, #12]
 534:Core/Src/main.c ****   hrtc.Init.OutPutRemap = RTC_OUTPUT_REMAP_NONE;
 1015              		.loc 1 534 3 is_stmt 1 view .LVU250
 534:Core/Src/main.c ****   hrtc.Init.OutPutRemap = RTC_OUTPUT_REMAP_NONE;
 1016              		.loc 1 534 20 is_stmt 0 view .LVU251
 1017 0014 0361     		str	r3, [r0, #16]
 535:Core/Src/main.c ****   hrtc.Init.OutPutPolarity = RTC_OUTPUT_POLARITY_HIGH;
 1018              		.loc 1 535 3 is_stmt 1 view .LVU252
 535:Core/Src/main.c ****   hrtc.Init.OutPutPolarity = RTC_OUTPUT_POLARITY_HIGH;
 1019              		.loc 1 535 25 is_stmt 0 view .LVU253
 1020 0016 4361     		str	r3, [r0, #20]
 536:Core/Src/main.c ****   hrtc.Init.OutPutType = RTC_OUTPUT_TYPE_OPENDRAIN;
 1021              		.loc 1 536 3 is_stmt 1 view .LVU254
 536:Core/Src/main.c ****   hrtc.Init.OutPutType = RTC_OUTPUT_TYPE_OPENDRAIN;
 1022              		.loc 1 536 28 is_stmt 0 view .LVU255
 1023 0018 8361     		str	r3, [r0, #24]
 537:Core/Src/main.c ****   if (HAL_RTC_Init(&hrtc) != HAL_OK)
 1024              		.loc 1 537 3 is_stmt 1 view .LVU256
 537:Core/Src/main.c ****   if (HAL_RTC_Init(&hrtc) != HAL_OK)
 1025              		.loc 1 537 24 is_stmt 0 view .LVU257
 1026 001a C361     		str	r3, [r0, #28]
 538:Core/Src/main.c ****   {
 1027              		.loc 1 538 3 is_stmt 1 view .LVU258
 538:Core/Src/main.c ****   {
 1028              		.loc 1 538 7 is_stmt 0 view .LVU259
 1029 001c FFF7FEFF 		bl	HAL_RTC_Init
 1030              	.LVL84:
 538:Core/Src/main.c ****   {
 1031              		.loc 1 538 6 discriminator 1 view .LVU260
 1032 0020 0028     		cmp	r0, #0
 1033 0022 07D1     		bne	.L67
 545:Core/Src/main.c ****   {
 1034              		.loc 1 545 3 is_stmt 1 view .LVU261
 545:Core/Src/main.c ****   {
 1035              		.loc 1 545 7 is_stmt 0 view .LVU262
 1036 0024 0548     		ldr	r0, .L69
 1037 0026 0022     		movs	r2, #0
 1038 0028 0021     		movs	r1, #0
ARM GAS  C:\Users\Tilen\AppData\Local\Temp\cc6ISDp8.s 			page 34


 1039 002a FFF7FEFF 		bl	HAL_RTCEx_SetWakeUpTimer_IT
 1040              	.LVL85:
 545:Core/Src/main.c ****   {
 1041              		.loc 1 545 6 discriminator 1 view .LVU263
 1042 002e 0028     		cmp	r0, #0
 1043 0030 02D1     		bne	.L68
 553:Core/Src/main.c **** 
 1044              		.loc 1 553 1 view .LVU264
 1045              		@ sp needed
 1046 0032 10BD     		pop	{r4, pc}
 1047              	.L67:
 540:Core/Src/main.c ****   }
 1048              		.loc 1 540 5 is_stmt 1 view .LVU265
 1049 0034 FFF7FEFF 		bl	Error_Handler
 1050              	.LVL86:
 1051              	.L68:
 547:Core/Src/main.c ****   }
 1052              		.loc 1 547 5 view .LVU266
 1053 0038 FFF7FEFF 		bl	Error_Handler
 1054              	.LVL87:
 1055              	.L70:
 1056              		.align	2
 1057              	.L69:
 1058 003c 00000000 		.word	hrtc
 1059 0040 00280040 		.word	1073752064
 1060              		.cfi_endproc
 1061              	.LFE64:
 1063              		.section	.text.MX_I2C2_Init,"ax",%progbits
 1064              		.align	1
 1065              		.syntax unified
 1066              		.code	16
 1067              		.thumb_func
 1069              	MX_I2C2_Init:
 1070              	.LFB62:
 429:Core/Src/main.c **** 
 1071              		.loc 1 429 1 view -0
 1072              		.cfi_startproc
 1073              		@ args = 0, pretend = 0, frame = 0
 1074              		@ frame_needed = 0, uses_anonymous_args = 0
 1075 0000 10B5     		push	{r4, lr}
 1076              	.LCFI14:
 1077              		.cfi_def_cfa_offset 8
 1078              		.cfi_offset 4, -8
 1079              		.cfi_offset 14, -4
 438:Core/Src/main.c ****   hi2c2.Init.Timing = 0x00000608;
 1080              		.loc 1 438 3 view .LVU268
 438:Core/Src/main.c ****   hi2c2.Init.Timing = 0x00000608;
 1081              		.loc 1 438 18 is_stmt 0 view .LVU269
 1082 0002 1348     		ldr	r0, .L78
 1083 0004 134B     		ldr	r3, .L78+4
 1084 0006 0360     		str	r3, [r0]
 439:Core/Src/main.c ****   hi2c2.Init.OwnAddress1 = 0;
 1085              		.loc 1 439 3 is_stmt 1 view .LVU270
 439:Core/Src/main.c ****   hi2c2.Init.OwnAddress1 = 0;
 1086              		.loc 1 439 21 is_stmt 0 view .LVU271
 1087 0008 C123     		movs	r3, #193
 1088 000a DB00     		lsls	r3, r3, #3
ARM GAS  C:\Users\Tilen\AppData\Local\Temp\cc6ISDp8.s 			page 35


 1089 000c 4360     		str	r3, [r0, #4]
 440:Core/Src/main.c ****   hi2c2.Init.AddressingMode = I2C_ADDRESSINGMODE_7BIT;
 1090              		.loc 1 440 3 is_stmt 1 view .LVU272
 440:Core/Src/main.c ****   hi2c2.Init.AddressingMode = I2C_ADDRESSINGMODE_7BIT;
 1091              		.loc 1 440 26 is_stmt 0 view .LVU273
 1092 000e 0023     		movs	r3, #0
 1093 0010 8360     		str	r3, [r0, #8]
 441:Core/Src/main.c ****   hi2c2.Init.DualAddressMode = I2C_DUALADDRESS_DISABLE;
 1094              		.loc 1 441 3 is_stmt 1 view .LVU274
 441:Core/Src/main.c ****   hi2c2.Init.DualAddressMode = I2C_DUALADDRESS_DISABLE;
 1095              		.loc 1 441 29 is_stmt 0 view .LVU275
 1096 0012 0122     		movs	r2, #1
 1097 0014 C260     		str	r2, [r0, #12]
 442:Core/Src/main.c ****   hi2c2.Init.OwnAddress2 = 0;
 1098              		.loc 1 442 3 is_stmt 1 view .LVU276
 442:Core/Src/main.c ****   hi2c2.Init.OwnAddress2 = 0;
 1099              		.loc 1 442 30 is_stmt 0 view .LVU277
 1100 0016 0361     		str	r3, [r0, #16]
 443:Core/Src/main.c ****   hi2c2.Init.OwnAddress2Masks = I2C_OA2_NOMASK;
 1101              		.loc 1 443 3 is_stmt 1 view .LVU278
 443:Core/Src/main.c ****   hi2c2.Init.OwnAddress2Masks = I2C_OA2_NOMASK;
 1102              		.loc 1 443 26 is_stmt 0 view .LVU279
 1103 0018 4361     		str	r3, [r0, #20]
 444:Core/Src/main.c ****   hi2c2.Init.GeneralCallMode = I2C_GENERALCALL_DISABLE;
 1104              		.loc 1 444 3 is_stmt 1 view .LVU280
 444:Core/Src/main.c ****   hi2c2.Init.GeneralCallMode = I2C_GENERALCALL_DISABLE;
 1105              		.loc 1 444 31 is_stmt 0 view .LVU281
 1106 001a 8361     		str	r3, [r0, #24]
 445:Core/Src/main.c ****   hi2c2.Init.NoStretchMode = I2C_NOSTRETCH_DISABLE;
 1107              		.loc 1 445 3 is_stmt 1 view .LVU282
 445:Core/Src/main.c ****   hi2c2.Init.NoStretchMode = I2C_NOSTRETCH_DISABLE;
 1108              		.loc 1 445 30 is_stmt 0 view .LVU283
 1109 001c C361     		str	r3, [r0, #28]
 446:Core/Src/main.c ****   if (HAL_I2C_Init(&hi2c2) != HAL_OK)
 1110              		.loc 1 446 3 is_stmt 1 view .LVU284
 446:Core/Src/main.c ****   if (HAL_I2C_Init(&hi2c2) != HAL_OK)
 1111              		.loc 1 446 28 is_stmt 0 view .LVU285
 1112 001e 0362     		str	r3, [r0, #32]
 447:Core/Src/main.c ****   {
 1113              		.loc 1 447 3 is_stmt 1 view .LVU286
 447:Core/Src/main.c ****   {
 1114              		.loc 1 447 7 is_stmt 0 view .LVU287
 1115 0020 FFF7FEFF 		bl	HAL_I2C_Init
 1116              	.LVL88:
 447:Core/Src/main.c ****   {
 1117              		.loc 1 447 6 discriminator 1 view .LVU288
 1118 0024 0028     		cmp	r0, #0
 1119 0026 0CD1     		bne	.L75
 454:Core/Src/main.c ****   {
 1120              		.loc 1 454 3 is_stmt 1 view .LVU289
 454:Core/Src/main.c ****   {
 1121              		.loc 1 454 7 is_stmt 0 view .LVU290
 1122 0028 0948     		ldr	r0, .L78
 1123 002a 0021     		movs	r1, #0
 1124 002c FFF7FEFF 		bl	HAL_I2CEx_ConfigAnalogFilter
 1125              	.LVL89:
 454:Core/Src/main.c ****   {
ARM GAS  C:\Users\Tilen\AppData\Local\Temp\cc6ISDp8.s 			page 36


 1126              		.loc 1 454 6 discriminator 1 view .LVU291
 1127 0030 0028     		cmp	r0, #0
 1128 0032 08D1     		bne	.L76
 461:Core/Src/main.c ****   {
 1129              		.loc 1 461 3 is_stmt 1 view .LVU292
 461:Core/Src/main.c ****   {
 1130              		.loc 1 461 7 is_stmt 0 view .LVU293
 1131 0034 0648     		ldr	r0, .L78
 1132 0036 0021     		movs	r1, #0
 1133 0038 FFF7FEFF 		bl	HAL_I2CEx_ConfigDigitalFilter
 1134              	.LVL90:
 461:Core/Src/main.c ****   {
 1135              		.loc 1 461 6 discriminator 1 view .LVU294
 1136 003c 0028     		cmp	r0, #0
 1137 003e 04D1     		bne	.L77
 469:Core/Src/main.c **** 
 1138              		.loc 1 469 1 view .LVU295
 1139              		@ sp needed
 1140 0040 10BD     		pop	{r4, pc}
 1141              	.L75:
 449:Core/Src/main.c ****   }
 1142              		.loc 1 449 5 is_stmt 1 view .LVU296
 1143 0042 FFF7FEFF 		bl	Error_Handler
 1144              	.LVL91:
 1145              	.L76:
 456:Core/Src/main.c ****   }
 1146              		.loc 1 456 5 view .LVU297
 1147 0046 FFF7FEFF 		bl	Error_Handler
 1148              	.LVL92:
 1149              	.L77:
 463:Core/Src/main.c ****   }
 1150              		.loc 1 463 5 view .LVU298
 1151 004a FFF7FEFF 		bl	Error_Handler
 1152              	.LVL93:
 1153              	.L79:
 1154 004e C046     		.align	2
 1155              	.L78:
 1156 0050 00000000 		.word	hi2c2
 1157 0054 00580040 		.word	1073764352
 1158              		.cfi_endproc
 1159              	.LFE62:
 1161              		.section	.text.SystemClock_Config,"ax",%progbits
 1162              		.align	1
 1163              		.global	SystemClock_Config
 1164              		.syntax unified
 1165              		.code	16
 1166              		.thumb_func
 1168              	SystemClock_Config:
 1169              	.LFB61:
 378:Core/Src/main.c ****   RCC_OscInitTypeDef RCC_OscInitStruct = {0};
 1170              		.loc 1 378 1 view -0
 1171              		.cfi_startproc
 1172              		@ args = 0, pretend = 0, frame = 112
 1173              		@ frame_needed = 0, uses_anonymous_args = 0
 1174 0000 10B5     		push	{r4, lr}
 1175              	.LCFI15:
 1176              		.cfi_def_cfa_offset 8
ARM GAS  C:\Users\Tilen\AppData\Local\Temp\cc6ISDp8.s 			page 37


 1177              		.cfi_offset 4, -8
 1178              		.cfi_offset 14, -4
 1179 0002 9CB0     		sub	sp, sp, #112
 1180              	.LCFI16:
 1181              		.cfi_def_cfa_offset 120
 379:Core/Src/main.c ****   RCC_ClkInitTypeDef RCC_ClkInitStruct = {0};
 1182              		.loc 1 379 3 view .LVU300
 379:Core/Src/main.c ****   RCC_ClkInitTypeDef RCC_ClkInitStruct = {0};
 1183              		.loc 1 379 22 is_stmt 0 view .LVU301
 1184 0004 0EAC     		add	r4, sp, #56
 1185 0006 3822     		movs	r2, #56
 1186 0008 0021     		movs	r1, #0
 1187 000a 2000     		movs	r0, r4
 1188 000c FFF7FEFF 		bl	memset
 1189              	.LVL94:
 380:Core/Src/main.c ****   RCC_PeriphCLKInitTypeDef PeriphClkInit = {0};
 1190              		.loc 1 380 3 is_stmt 1 view .LVU302
 380:Core/Src/main.c ****   RCC_PeriphCLKInitTypeDef PeriphClkInit = {0};
 1191              		.loc 1 380 22 is_stmt 0 view .LVU303
 1192 0010 1422     		movs	r2, #20
 1193 0012 0021     		movs	r1, #0
 1194 0014 09A8     		add	r0, sp, #36
 1195 0016 FFF7FEFF 		bl	memset
 1196              	.LVL95:
 381:Core/Src/main.c **** 
 1197              		.loc 1 381 3 is_stmt 1 view .LVU304
 381:Core/Src/main.c **** 
 1198              		.loc 1 381 28 is_stmt 0 view .LVU305
 1199 001a 2422     		movs	r2, #36
 1200 001c 0021     		movs	r1, #0
 1201 001e 6846     		mov	r0, sp
 1202 0020 FFF7FEFF 		bl	memset
 1203              	.LVL96:
 385:Core/Src/main.c **** 
 1204              		.loc 1 385 3 is_stmt 1 view .LVU306
 1205 0024 1C49     		ldr	r1, .L87
 1206 0026 0A68     		ldr	r2, [r1]
 1207 0028 1C4B     		ldr	r3, .L87+4
 1208 002a 1A40     		ands	r2, r3
 1209 002c 8023     		movs	r3, #128
 1210 002e 1B01     		lsls	r3, r3, #4
 1211 0030 1343     		orrs	r3, r2
 1212 0032 0B60     		str	r3, [r1]
 390:Core/Src/main.c ****   RCC_OscInitStruct.LSIState = RCC_LSI_ON;
 1213              		.loc 1 390 3 view .LVU307
 390:Core/Src/main.c ****   RCC_OscInitStruct.LSIState = RCC_LSI_ON;
 1214              		.loc 1 390 36 is_stmt 0 view .LVU308
 1215 0034 1823     		movs	r3, #24
 1216 0036 0E93     		str	r3, [sp, #56]
 391:Core/Src/main.c ****   RCC_OscInitStruct.MSIState = RCC_MSI_ON;
 1217              		.loc 1 391 3 is_stmt 1 view .LVU309
 391:Core/Src/main.c ****   RCC_OscInitStruct.MSIState = RCC_MSI_ON;
 1218              		.loc 1 391 30 is_stmt 0 view .LVU310
 1219 0038 173B     		subs	r3, r3, #23
 1220 003a 1393     		str	r3, [sp, #76]
 392:Core/Src/main.c ****   RCC_OscInitStruct.MSICalibrationValue = 0;
 1221              		.loc 1 392 3 is_stmt 1 view .LVU311
ARM GAS  C:\Users\Tilen\AppData\Local\Temp\cc6ISDp8.s 			page 38


 392:Core/Src/main.c ****   RCC_OscInitStruct.MSICalibrationValue = 0;
 1222              		.loc 1 392 30 is_stmt 0 view .LVU312
 1223 003c 1593     		str	r3, [sp, #84]
 393:Core/Src/main.c ****   RCC_OscInitStruct.MSIClockRange = RCC_MSIRANGE_5;
 1224              		.loc 1 393 3 is_stmt 1 view .LVU313
 393:Core/Src/main.c ****   RCC_OscInitStruct.MSIClockRange = RCC_MSIRANGE_5;
 1225              		.loc 1 393 41 is_stmt 0 view .LVU314
 1226 003e 0023     		movs	r3, #0
 1227 0040 1693     		str	r3, [sp, #88]
 394:Core/Src/main.c ****   RCC_OscInitStruct.PLL.PLLState = RCC_PLL_NONE;
 1228              		.loc 1 394 3 is_stmt 1 view .LVU315
 394:Core/Src/main.c ****   RCC_OscInitStruct.PLL.PLLState = RCC_PLL_NONE;
 1229              		.loc 1 394 35 is_stmt 0 view .LVU316
 1230 0042 A022     		movs	r2, #160
 1231 0044 1202     		lsls	r2, r2, #8
 1232 0046 1792     		str	r2, [sp, #92]
 395:Core/Src/main.c ****   if (HAL_RCC_OscConfig(&RCC_OscInitStruct) != HAL_OK)
 1233              		.loc 1 395 3 is_stmt 1 view .LVU317
 395:Core/Src/main.c ****   if (HAL_RCC_OscConfig(&RCC_OscInitStruct) != HAL_OK)
 1234              		.loc 1 395 34 is_stmt 0 view .LVU318
 1235 0048 1893     		str	r3, [sp, #96]
 396:Core/Src/main.c ****   {
 1236              		.loc 1 396 3 is_stmt 1 view .LVU319
 396:Core/Src/main.c ****   {
 1237              		.loc 1 396 7 is_stmt 0 view .LVU320
 1238 004a 2000     		movs	r0, r4
 1239 004c FFF7FEFF 		bl	HAL_RCC_OscConfig
 1240              	.LVL97:
 396:Core/Src/main.c ****   {
 1241              		.loc 1 396 6 discriminator 1 view .LVU321
 1242 0050 0028     		cmp	r0, #0
 1243 0052 1AD1     		bne	.L84
 403:Core/Src/main.c ****                               |RCC_CLOCKTYPE_PCLK1|RCC_CLOCKTYPE_PCLK2;
 1244              		.loc 1 403 3 is_stmt 1 view .LVU322
 403:Core/Src/main.c ****                               |RCC_CLOCKTYPE_PCLK1|RCC_CLOCKTYPE_PCLK2;
 1245              		.loc 1 403 31 is_stmt 0 view .LVU323
 1246 0054 09A8     		add	r0, sp, #36
 1247 0056 0F23     		movs	r3, #15
 1248 0058 0993     		str	r3, [sp, #36]
 405:Core/Src/main.c ****   RCC_ClkInitStruct.AHBCLKDivider = RCC_SYSCLK_DIV1;
 1249              		.loc 1 405 3 is_stmt 1 view .LVU324
 405:Core/Src/main.c ****   RCC_ClkInitStruct.AHBCLKDivider = RCC_SYSCLK_DIV1;
 1250              		.loc 1 405 34 is_stmt 0 view .LVU325
 1251 005a 0023     		movs	r3, #0
 1252 005c 4360     		str	r3, [r0, #4]
 406:Core/Src/main.c ****   RCC_ClkInitStruct.APB1CLKDivider = RCC_HCLK_DIV1;
 1253              		.loc 1 406 3 is_stmt 1 view .LVU326
 406:Core/Src/main.c ****   RCC_ClkInitStruct.APB1CLKDivider = RCC_HCLK_DIV1;
 1254              		.loc 1 406 35 is_stmt 0 view .LVU327
 1255 005e 8360     		str	r3, [r0, #8]
 407:Core/Src/main.c ****   RCC_ClkInitStruct.APB2CLKDivider = RCC_HCLK_DIV1;
 1256              		.loc 1 407 3 is_stmt 1 view .LVU328
 407:Core/Src/main.c ****   RCC_ClkInitStruct.APB2CLKDivider = RCC_HCLK_DIV1;
 1257              		.loc 1 407 36 is_stmt 0 view .LVU329
 1258 0060 C360     		str	r3, [r0, #12]
 408:Core/Src/main.c **** 
 1259              		.loc 1 408 3 is_stmt 1 view .LVU330
ARM GAS  C:\Users\Tilen\AppData\Local\Temp\cc6ISDp8.s 			page 39


 408:Core/Src/main.c **** 
 1260              		.loc 1 408 36 is_stmt 0 view .LVU331
 1261 0062 0361     		str	r3, [r0, #16]
 410:Core/Src/main.c ****   {
 1262              		.loc 1 410 3 is_stmt 1 view .LVU332
 410:Core/Src/main.c ****   {
 1263              		.loc 1 410 7 is_stmt 0 view .LVU333
 1264 0064 0021     		movs	r1, #0
 1265 0066 FFF7FEFF 		bl	HAL_RCC_ClockConfig
 1266              	.LVL98:
 410:Core/Src/main.c ****   {
 1267              		.loc 1 410 6 discriminator 1 view .LVU334
 1268 006a 0028     		cmp	r0, #0
 1269 006c 0FD1     		bne	.L85
 414:Core/Src/main.c ****   PeriphClkInit.Usart2ClockSelection = RCC_USART2CLKSOURCE_PCLK1;
 1270              		.loc 1 414 3 is_stmt 1 view .LVU335
 414:Core/Src/main.c ****   PeriphClkInit.Usart2ClockSelection = RCC_USART2CLKSOURCE_PCLK1;
 1271              		.loc 1 414 38 is_stmt 0 view .LVU336
 1272 006e 6846     		mov	r0, sp
 1273 0070 2223     		movs	r3, #34
 1274 0072 0093     		str	r3, [sp]
 415:Core/Src/main.c ****   PeriphClkInit.RTCClockSelection = RCC_RTCCLKSOURCE_LSI;
 1275              		.loc 1 415 3 is_stmt 1 view .LVU337
 415:Core/Src/main.c ****   PeriphClkInit.RTCClockSelection = RCC_RTCCLKSOURCE_LSI;
 1276              		.loc 1 415 38 is_stmt 0 view .LVU338
 1277 0074 0023     		movs	r3, #0
 1278 0076 0493     		str	r3, [sp, #16]
 416:Core/Src/main.c ****   if (HAL_RCCEx_PeriphCLKConfig(&PeriphClkInit) != HAL_OK)
 1279              		.loc 1 416 3 is_stmt 1 view .LVU339
 416:Core/Src/main.c ****   if (HAL_RCCEx_PeriphCLKConfig(&PeriphClkInit) != HAL_OK)
 1280              		.loc 1 416 35 is_stmt 0 view .LVU340
 1281 0078 8023     		movs	r3, #128
 1282 007a 9B02     		lsls	r3, r3, #10
 1283 007c 0193     		str	r3, [sp, #4]
 417:Core/Src/main.c ****   {
 1284              		.loc 1 417 3 is_stmt 1 view .LVU341
 417:Core/Src/main.c ****   {
 1285              		.loc 1 417 7 is_stmt 0 view .LVU342
 1286 007e FFF7FEFF 		bl	HAL_RCCEx_PeriphCLKConfig
 1287              	.LVL99:
 417:Core/Src/main.c ****   {
 1288              		.loc 1 417 6 discriminator 1 view .LVU343
 1289 0082 0028     		cmp	r0, #0
 1290 0084 05D1     		bne	.L86
 421:Core/Src/main.c **** 
 1291              		.loc 1 421 1 view .LVU344
 1292 0086 1CB0     		add	sp, sp, #112
 1293              		@ sp needed
 1294 0088 10BD     		pop	{r4, pc}
 1295              	.L84:
 398:Core/Src/main.c ****   }
 1296              		.loc 1 398 5 is_stmt 1 view .LVU345
 1297 008a FFF7FEFF 		bl	Error_Handler
 1298              	.LVL100:
 1299              	.L85:
 412:Core/Src/main.c ****   }
 1300              		.loc 1 412 5 view .LVU346
ARM GAS  C:\Users\Tilen\AppData\Local\Temp\cc6ISDp8.s 			page 40


 1301 008e FFF7FEFF 		bl	Error_Handler
 1302              	.LVL101:
 1303              	.L86:
 419:Core/Src/main.c ****   }
 1304              		.loc 1 419 5 view .LVU347
 1305 0092 FFF7FEFF 		bl	Error_Handler
 1306              	.LVL102:
 1307              	.L88:
 1308 0096 C046     		.align	2
 1309              	.L87:
 1310 0098 00700040 		.word	1073770496
 1311 009c FFE7FFFF 		.word	-6145
 1312              		.cfi_endproc
 1313              	.LFE61:
 1315              		.section	.rodata.main.str1.4,"aMS",%progbits,1
 1316              		.align	2
 1317              	.LC21:
 1318 0000 0D0A426F 		.ascii	"\015\012Booting SHT40 test\015\012\000"
 1318      6F74696E 
 1318      67205348 
 1318      54343020 
 1318      74657374 
 1319 0017 00       		.align	2
 1320              	.LC23:
 1321 0018 4C434420 		.ascii	"LCD init disabled for this test build\015\012\000"
 1321      696E6974 
 1321      20646973 
 1321      61626C65 
 1321      6420666F 
 1322              		.section	.text.main,"ax",%progbits
 1323              		.align	1
 1324              		.global	main
 1325              		.syntax unified
 1326              		.code	16
 1327              		.thumb_func
 1329              	main:
 1330              	.LFB60:
 327:Core/Src/main.c **** 
 1331              		.loc 1 327 1 view -0
 1332              		.cfi_startproc
 1333              		@ Volatile: function does not return.
 1334              		@ args = 0, pretend = 0, frame = 0
 1335              		@ frame_needed = 0, uses_anonymous_args = 0
 1336 0000 10B5     		push	{r4, lr}
 1337              	.LCFI17:
 1338              		.cfi_def_cfa_offset 8
 1339              		.cfi_offset 4, -8
 1340              		.cfi_offset 14, -4
 336:Core/Src/main.c **** 
 1341              		.loc 1 336 3 view .LVU349
 1342 0002 FFF7FEFF 		bl	HAL_Init
 1343              	.LVL103:
 343:Core/Src/main.c **** 
 1344              		.loc 1 343 3 view .LVU350
 1345 0006 FFF7FEFF 		bl	SystemClock_Config
 1346              	.LVL104:
 350:Core/Src/main.c ****   MX_USART2_UART_Init();
ARM GAS  C:\Users\Tilen\AppData\Local\Temp\cc6ISDp8.s 			page 41


 1347              		.loc 1 350 3 view .LVU351
 1348 000a FFF7FEFF 		bl	MX_GPIO_Init
 1349              	.LVL105:
 351:Core/Src/main.c ****   MX_RTC_Init();
 1350              		.loc 1 351 3 view .LVU352
 1351 000e FFF7FEFF 		bl	MX_USART2_UART_Init
 1352              	.LVL106:
 352:Core/Src/main.c ****   MX_I2C2_Init();
 1353              		.loc 1 352 3 view .LVU353
 1354 0012 FFF7FEFF 		bl	MX_RTC_Init
 1355              	.LVL107:
 353:Core/Src/main.c ****   /* USER CODE BEGIN 2 */
 1356              		.loc 1 353 3 view .LVU354
 1357 0016 FFF7FEFF 		bl	MX_I2C2_Init
 1358              	.LVL108:
 355:Core/Src/main.c ****   DebugPrint("LCD init disabled for this test build\r\n");
 1359              		.loc 1 355 3 view .LVU355
 1360 001a 0548     		ldr	r0, .L91
 1361 001c FFF7FEFF 		bl	DebugPrint
 1362              	.LVL109:
 356:Core/Src/main.c ****   I2C2_ScanBus();
 1363              		.loc 1 356 3 view .LVU356
 1364 0020 0448     		ldr	r0, .L91+4
 1365 0022 FFF7FEFF 		bl	DebugPrint
 1366              	.LVL110:
 357:Core/Src/main.c **** 
 1367              		.loc 1 357 3 view .LVU357
 1368 0026 FFF7FEFF 		bl	I2C2_ScanBus
 1369              	.LVL111:
 1370              	.L90:
 363:Core/Src/main.c ****   {
 1371              		.loc 1 363 3 view .LVU358
 365:Core/Src/main.c ****     /* USER CODE END WHILE */
 1372              		.loc 1 365 5 discriminator 2 view .LVU359
 1373 002a FFF7FEFF 		bl	SHT40_TestLoop
 1374              	.LVL112:
 363:Core/Src/main.c ****   {
 1375              		.loc 1 363 9 view .LVU360
 1376 002e FCE7     		b	.L90
 1377              	.L92:
 1378              		.align	2
 1379              	.L91:
 1380 0030 00000000 		.word	.LC21
 1381 0034 18000000 		.word	.LC23
 1382              		.cfi_endproc
 1383              	.LFE60:
 1385              		.global	g_use_lse
 1386              		.section	.bss.g_use_lse,"aw",%nobits
 1389              	g_use_lse:
 1390 0000 00       		.space	1
 1391              		.global	g_rtc_wakeup
 1392              		.section	.bss.g_rtc_wakeup,"aw",%nobits
 1395              	g_rtc_wakeup:
 1396 0000 00       		.space	1
 1397              		.global	huart2
 1398              		.section	.bss.huart2,"aw",%nobits
 1399              		.align	2
ARM GAS  C:\Users\Tilen\AppData\Local\Temp\cc6ISDp8.s 			page 42


 1402              	huart2:
 1403 0000 00000000 		.space	136
 1403      00000000 
 1403      00000000 
 1403      00000000 
 1403      00000000 
 1404              		.global	hrtc
 1405              		.section	.bss.hrtc,"aw",%nobits
 1406              		.align	2
 1409              	hrtc:
 1410 0000 00000000 		.space	36
 1410      00000000 
 1410      00000000 
 1410      00000000 
 1410      00000000 
 1411              		.global	hlcd
 1412              		.section	.bss.hlcd,"aw",%nobits
 1413              		.align	2
 1416              	hlcd:
 1417 0000 00000000 		.space	60
 1417      00000000 
 1417      00000000 
 1417      00000000 
 1417      00000000 
 1418              		.global	hi2c2
 1419              		.section	.bss.hi2c2,"aw",%nobits
 1420              		.align	2
 1423              	hi2c2:
 1424 0000 00000000 		.space	84
 1424      00000000 
 1424      00000000 
 1424      00000000 
 1424      00000000 
 1425              		.text
 1426              	.Letext0:
 1427              		.file 2 "C:/Program Files (x86)/Arm/GNU Toolchain mingw-w64-i686-arm-none-eabi/arm-none-eabi/inclu
 1428              		.file 3 "C:/Program Files (x86)/Arm/GNU Toolchain mingw-w64-i686-arm-none-eabi/arm-none-eabi/inclu
 1429              		.file 4 "Drivers/CMSIS/Device/ST/STM32L0xx/Include/stm32l053xx.h"
 1430              		.file 5 "C:/Program Files (x86)/Arm/GNU Toolchain mingw-w64-i686-arm-none-eabi/lib/gcc/arm-none-ea
 1431              		.file 6 "Drivers/STM32L0xx_HAL_Driver/Inc/stm32l0xx_hal_def.h"
 1432              		.file 7 "Drivers/STM32L0xx_HAL_Driver/Inc/stm32l0xx_hal_rcc.h"
 1433              		.file 8 "Drivers/STM32L0xx_HAL_Driver/Inc/stm32l0xx_hal_rcc_ex.h"
 1434              		.file 9 "Drivers/STM32L0xx_HAL_Driver/Inc/stm32l0xx_hal_gpio.h"
 1435              		.file 10 "Drivers/STM32L0xx_HAL_Driver/Inc/stm32l0xx_hal_dma.h"
 1436              		.file 11 "Drivers/STM32L0xx_HAL_Driver/Inc/stm32l0xx_hal_i2c.h"
 1437              		.file 12 "Drivers/STM32L0xx_HAL_Driver/Inc/stm32l0xx_hal_lcd.h"
 1438              		.file 13 "Drivers/STM32L0xx_HAL_Driver/Inc/stm32l0xx_hal_rtc.h"
 1439              		.file 14 "Drivers/STM32L0xx_HAL_Driver/Inc/stm32l0xx_hal_uart.h"
 1440              		.file 15 "C:/Program Files (x86)/Arm/GNU Toolchain mingw-w64-i686-arm-none-eabi/lib/gcc/arm-none-e
 1441              		.file 16 "C:/Program Files (x86)/Arm/GNU Toolchain mingw-w64-i686-arm-none-eabi/arm-none-eabi/incl
 1442              		.file 17 "C:/Program Files (x86)/Arm/GNU Toolchain mingw-w64-i686-arm-none-eabi/arm-none-eabi/incl
 1443              		.file 18 "Drivers/STM32L0xx_HAL_Driver/Inc/stm32l0xx_hal_i2c_ex.h"
 1444              		.file 19 "Drivers/STM32L0xx_HAL_Driver/Inc/stm32l0xx_hal_rtc_ex.h"
 1445              		.file 20 "Drivers/STM32L0xx_HAL_Driver/Inc/stm32l0xx_hal.h"
 1446              		.file 21 "<built-in>"
ARM GAS  C:\Users\Tilen\AppData\Local\Temp\cc6ISDp8.s 			page 43

