ARM GAS  C:\Users\Tilen\AppData\Local\Temp\ccHhauu2.s 			page 1


   1              		.cpu cortex-m0plus
   2              		.arch armv6s-m
   3              		.fpu softvfp
   4              		.eabi_attribute 20, 1
   5              		.eabi_attribute 21, 1
   6              		.eabi_attribute 23, 3
   7              		.eabi_attribute 24, 1
   8              		.eabi_attribute 25, 1
   9              		.eabi_attribute 26, 1
  10              		.eabi_attribute 30, 1
  11              		.eabi_attribute 34, 0
  12              		.eabi_attribute 18, 4
  13              		.file	"stm32l0xx_hal_msp.c"
  14              		.text
  15              	.Ltext0:
  16              		.cfi_sections	.debug_frame
  17              		.file 1 "Core/Src/stm32l0xx_hal_msp.c"
  18              		.section	.text.HAL_MspInit,"ax",%progbits
  19              		.align	1
  20              		.global	HAL_MspInit
  21              		.syntax unified
  22              		.code	16
  23              		.thumb_func
  25              	HAL_MspInit:
  26              	.LFB47:
   1:Core/Src/stm32l0xx_hal_msp.c **** /* USER CODE BEGIN Header */
   2:Core/Src/stm32l0xx_hal_msp.c **** /**
   3:Core/Src/stm32l0xx_hal_msp.c ****   ******************************************************************************
   4:Core/Src/stm32l0xx_hal_msp.c ****   * @file         stm32l0xx_hal_msp.c
   5:Core/Src/stm32l0xx_hal_msp.c ****   * @brief        This file provides code for the MSP Initialization
   6:Core/Src/stm32l0xx_hal_msp.c ****   *               and de-Initialization codes.
   7:Core/Src/stm32l0xx_hal_msp.c ****   ******************************************************************************
   8:Core/Src/stm32l0xx_hal_msp.c ****   * @attention
   9:Core/Src/stm32l0xx_hal_msp.c ****   *
  10:Core/Src/stm32l0xx_hal_msp.c ****   * Copyright (c) 2026 STMicroelectronics.
  11:Core/Src/stm32l0xx_hal_msp.c ****   * All rights reserved.
  12:Core/Src/stm32l0xx_hal_msp.c ****   *
  13:Core/Src/stm32l0xx_hal_msp.c ****   * This software is licensed under terms that can be found in the LICENSE file
  14:Core/Src/stm32l0xx_hal_msp.c ****   * in the root directory of this software component.
  15:Core/Src/stm32l0xx_hal_msp.c ****   * If no LICENSE file comes with this software, it is provided AS-IS.
  16:Core/Src/stm32l0xx_hal_msp.c ****   *
  17:Core/Src/stm32l0xx_hal_msp.c ****   ******************************************************************************
  18:Core/Src/stm32l0xx_hal_msp.c ****   */
  19:Core/Src/stm32l0xx_hal_msp.c **** /* USER CODE END Header */
  20:Core/Src/stm32l0xx_hal_msp.c **** 
  21:Core/Src/stm32l0xx_hal_msp.c **** /* Includes ------------------------------------------------------------------*/
  22:Core/Src/stm32l0xx_hal_msp.c **** #include "main.h"
  23:Core/Src/stm32l0xx_hal_msp.c **** /* USER CODE BEGIN Includes */
  24:Core/Src/stm32l0xx_hal_msp.c **** 
  25:Core/Src/stm32l0xx_hal_msp.c **** /* USER CODE END Includes */
  26:Core/Src/stm32l0xx_hal_msp.c **** 
  27:Core/Src/stm32l0xx_hal_msp.c **** /* Private typedef -----------------------------------------------------------*/
  28:Core/Src/stm32l0xx_hal_msp.c **** /* USER CODE BEGIN TD */
  29:Core/Src/stm32l0xx_hal_msp.c **** 
  30:Core/Src/stm32l0xx_hal_msp.c **** /* USER CODE END TD */
  31:Core/Src/stm32l0xx_hal_msp.c **** 
  32:Core/Src/stm32l0xx_hal_msp.c **** /* Private define ------------------------------------------------------------*/
ARM GAS  C:\Users\Tilen\AppData\Local\Temp\ccHhauu2.s 			page 2


  33:Core/Src/stm32l0xx_hal_msp.c **** /* USER CODE BEGIN Define */
  34:Core/Src/stm32l0xx_hal_msp.c **** 
  35:Core/Src/stm32l0xx_hal_msp.c **** /* USER CODE END Define */
  36:Core/Src/stm32l0xx_hal_msp.c **** 
  37:Core/Src/stm32l0xx_hal_msp.c **** /* Private macro -------------------------------------------------------------*/
  38:Core/Src/stm32l0xx_hal_msp.c **** /* USER CODE BEGIN Macro */
  39:Core/Src/stm32l0xx_hal_msp.c **** 
  40:Core/Src/stm32l0xx_hal_msp.c **** /* USER CODE END Macro */
  41:Core/Src/stm32l0xx_hal_msp.c **** 
  42:Core/Src/stm32l0xx_hal_msp.c **** /* Private variables ---------------------------------------------------------*/
  43:Core/Src/stm32l0xx_hal_msp.c **** /* USER CODE BEGIN PV */
  44:Core/Src/stm32l0xx_hal_msp.c **** 
  45:Core/Src/stm32l0xx_hal_msp.c **** /* USER CODE END PV */
  46:Core/Src/stm32l0xx_hal_msp.c **** 
  47:Core/Src/stm32l0xx_hal_msp.c **** /* Private function prototypes -----------------------------------------------*/
  48:Core/Src/stm32l0xx_hal_msp.c **** /* USER CODE BEGIN PFP */
  49:Core/Src/stm32l0xx_hal_msp.c **** 
  50:Core/Src/stm32l0xx_hal_msp.c **** /* USER CODE END PFP */
  51:Core/Src/stm32l0xx_hal_msp.c **** 
  52:Core/Src/stm32l0xx_hal_msp.c **** /* External functions --------------------------------------------------------*/
  53:Core/Src/stm32l0xx_hal_msp.c **** /* USER CODE BEGIN ExternalFunctions */
  54:Core/Src/stm32l0xx_hal_msp.c **** 
  55:Core/Src/stm32l0xx_hal_msp.c **** /* USER CODE END ExternalFunctions */
  56:Core/Src/stm32l0xx_hal_msp.c **** 
  57:Core/Src/stm32l0xx_hal_msp.c **** /* USER CODE BEGIN 0 */
  58:Core/Src/stm32l0xx_hal_msp.c **** 
  59:Core/Src/stm32l0xx_hal_msp.c **** /* USER CODE END 0 */
  60:Core/Src/stm32l0xx_hal_msp.c **** /**
  61:Core/Src/stm32l0xx_hal_msp.c ****   * Initializes the Global MSP.
  62:Core/Src/stm32l0xx_hal_msp.c ****   */
  63:Core/Src/stm32l0xx_hal_msp.c **** void HAL_MspInit(void)
  64:Core/Src/stm32l0xx_hal_msp.c **** {
  27              		.loc 1 64 1 view -0
  28              		.cfi_startproc
  29              		@ args = 0, pretend = 0, frame = 0
  30              		@ frame_needed = 0, uses_anonymous_args = 0
  31              		@ link register save eliminated.
  65:Core/Src/stm32l0xx_hal_msp.c **** 
  66:Core/Src/stm32l0xx_hal_msp.c ****   /* USER CODE BEGIN MspInit 0 */
  67:Core/Src/stm32l0xx_hal_msp.c **** 
  68:Core/Src/stm32l0xx_hal_msp.c ****   /* USER CODE END MspInit 0 */
  69:Core/Src/stm32l0xx_hal_msp.c **** 
  70:Core/Src/stm32l0xx_hal_msp.c ****   __HAL_RCC_SYSCFG_CLK_ENABLE();
  32              		.loc 1 70 3 view .LVU1
  33 0000 054B     		ldr	r3, .L2
  34 0002 5A6B     		ldr	r2, [r3, #52]
  35 0004 0121     		movs	r1, #1
  36 0006 0A43     		orrs	r2, r1
  37 0008 5A63     		str	r2, [r3, #52]
  71:Core/Src/stm32l0xx_hal_msp.c ****   __HAL_RCC_PWR_CLK_ENABLE();
  38              		.loc 1 71 3 view .LVU2
  39 000a 996B     		ldr	r1, [r3, #56]
  40 000c 8022     		movs	r2, #128
  41 000e 5205     		lsls	r2, r2, #21
  42 0010 0A43     		orrs	r2, r1
  43 0012 9A63     		str	r2, [r3, #56]
  72:Core/Src/stm32l0xx_hal_msp.c **** 
ARM GAS  C:\Users\Tilen\AppData\Local\Temp\ccHhauu2.s 			page 3


  73:Core/Src/stm32l0xx_hal_msp.c ****   /* System interrupt init*/
  74:Core/Src/stm32l0xx_hal_msp.c **** 
  75:Core/Src/stm32l0xx_hal_msp.c ****   /* USER CODE BEGIN MspInit 1 */
  76:Core/Src/stm32l0xx_hal_msp.c **** 
  77:Core/Src/stm32l0xx_hal_msp.c ****   /* USER CODE END MspInit 1 */
  78:Core/Src/stm32l0xx_hal_msp.c **** }
  44              		.loc 1 78 1 is_stmt 0 view .LVU3
  45              		@ sp needed
  46 0014 7047     		bx	lr
  47              	.L3:
  48 0016 C046     		.align	2
  49              	.L2:
  50 0018 00100240 		.word	1073876992
  51              		.cfi_endproc
  52              	.LFE47:
  54              		.section	.text.HAL_LCD_MspInit,"ax",%progbits
  55              		.align	1
  56              		.global	HAL_LCD_MspInit
  57              		.syntax unified
  58              		.code	16
  59              		.thumb_func
  61              	HAL_LCD_MspInit:
  62              	.LVL0:
  63              	.LFB48:
  79:Core/Src/stm32l0xx_hal_msp.c **** 
  80:Core/Src/stm32l0xx_hal_msp.c **** /**
  81:Core/Src/stm32l0xx_hal_msp.c ****   * @brief LCD MSP Initialization
  82:Core/Src/stm32l0xx_hal_msp.c ****   * This function configures the hardware resources used in this example
  83:Core/Src/stm32l0xx_hal_msp.c ****   * @param hlcd: LCD handle pointer
  84:Core/Src/stm32l0xx_hal_msp.c ****   * @retval None
  85:Core/Src/stm32l0xx_hal_msp.c ****   */
  86:Core/Src/stm32l0xx_hal_msp.c **** void HAL_LCD_MspInit(LCD_HandleTypeDef* hlcd)
  87:Core/Src/stm32l0xx_hal_msp.c **** {
  64              		.loc 1 87 1 is_stmt 1 view -0
  65              		.cfi_startproc
  66              		@ args = 0, pretend = 0, frame = 32
  67              		@ frame_needed = 0, uses_anonymous_args = 0
  68              		.loc 1 87 1 is_stmt 0 view .LVU5
  69 0000 F0B5     		push	{r4, r5, r6, r7, lr}
  70              	.LCFI0:
  71              		.cfi_def_cfa_offset 20
  72              		.cfi_offset 4, -20
  73              		.cfi_offset 5, -16
  74              		.cfi_offset 6, -12
  75              		.cfi_offset 7, -8
  76              		.cfi_offset 14, -4
  77 0002 89B0     		sub	sp, sp, #36
  78              	.LCFI1:
  79              		.cfi_def_cfa_offset 56
  80 0004 0400     		movs	r4, r0
  88:Core/Src/stm32l0xx_hal_msp.c ****   GPIO_InitTypeDef GPIO_InitStruct = {0};
  81              		.loc 1 88 3 is_stmt 1 view .LVU6
  82              		.loc 1 88 20 is_stmt 0 view .LVU7
  83 0006 1422     		movs	r2, #20
  84 0008 0021     		movs	r1, #0
  85 000a 03A8     		add	r0, sp, #12
  86              	.LVL1:
ARM GAS  C:\Users\Tilen\AppData\Local\Temp\ccHhauu2.s 			page 4


  87              		.loc 1 88 20 view .LVU8
  88 000c FFF7FEFF 		bl	memset
  89              	.LVL2:
  89:Core/Src/stm32l0xx_hal_msp.c ****   if(hlcd->Instance==LCD)
  90              		.loc 1 89 3 is_stmt 1 view .LVU9
  91              		.loc 1 89 10 is_stmt 0 view .LVU10
  92 0010 2268     		ldr	r2, [r4]
  93              		.loc 1 89 5 view .LVU11
  94 0012 1D4B     		ldr	r3, .L7
  95 0014 9A42     		cmp	r2, r3
  96 0016 01D0     		beq	.L6
  97              	.LVL3:
  98              	.L4:
  90:Core/Src/stm32l0xx_hal_msp.c ****   {
  91:Core/Src/stm32l0xx_hal_msp.c ****     /* USER CODE BEGIN LCD_MspInit 0 */
  92:Core/Src/stm32l0xx_hal_msp.c **** 
  93:Core/Src/stm32l0xx_hal_msp.c ****     /* USER CODE END LCD_MspInit 0 */
  94:Core/Src/stm32l0xx_hal_msp.c ****     /* Peripheral clock enable */
  95:Core/Src/stm32l0xx_hal_msp.c ****     __HAL_RCC_LCD_CLK_ENABLE();
  96:Core/Src/stm32l0xx_hal_msp.c **** 
  97:Core/Src/stm32l0xx_hal_msp.c ****     __HAL_RCC_GPIOA_CLK_ENABLE();
  98:Core/Src/stm32l0xx_hal_msp.c ****     __HAL_RCC_GPIOB_CLK_ENABLE();
  99:Core/Src/stm32l0xx_hal_msp.c ****     /**LCD GPIO Configuration
 100:Core/Src/stm32l0xx_hal_msp.c ****     PA1     ------> LCD_SEG0
 101:Core/Src/stm32l0xx_hal_msp.c ****     PA6     ------> LCD_SEG3
 102:Core/Src/stm32l0xx_hal_msp.c ****     PA7     ------> LCD_SEG4
 103:Core/Src/stm32l0xx_hal_msp.c ****     PB0     ------> LCD_SEG5
 104:Core/Src/stm32l0xx_hal_msp.c ****     PB1     ------> LCD_SEG6
 105:Core/Src/stm32l0xx_hal_msp.c ****     PB2     ------> LCD_VLCD2
 106:Core/Src/stm32l0xx_hal_msp.c ****     PB10     ------> LCD_SEG10
 107:Core/Src/stm32l0xx_hal_msp.c ****     PA8     ------> LCD_COM0
 108:Core/Src/stm32l0xx_hal_msp.c ****     PA9     ------> LCD_COM1
 109:Core/Src/stm32l0xx_hal_msp.c ****     PA10     ------> LCD_COM2
 110:Core/Src/stm32l0xx_hal_msp.c ****     PB3     ------> LCD_SEG7
 111:Core/Src/stm32l0xx_hal_msp.c ****     PB4     ------> LCD_SEG8
 112:Core/Src/stm32l0xx_hal_msp.c ****     PB5     ------> LCD_SEG9
 113:Core/Src/stm32l0xx_hal_msp.c ****     PB9     ------> LCD_COM3
 114:Core/Src/stm32l0xx_hal_msp.c ****     */
 115:Core/Src/stm32l0xx_hal_msp.c ****     GPIO_InitStruct.Pin = GPIO_PIN_1|GPIO_PIN_6|GPIO_PIN_7|GPIO_PIN_8
 116:Core/Src/stm32l0xx_hal_msp.c ****                           |GPIO_PIN_9|GPIO_PIN_10;
 117:Core/Src/stm32l0xx_hal_msp.c ****     GPIO_InitStruct.Mode = GPIO_MODE_AF_PP;
 118:Core/Src/stm32l0xx_hal_msp.c ****     GPIO_InitStruct.Pull = GPIO_NOPULL;
 119:Core/Src/stm32l0xx_hal_msp.c ****     GPIO_InitStruct.Speed = GPIO_SPEED_FREQ_LOW;
 120:Core/Src/stm32l0xx_hal_msp.c ****     GPIO_InitStruct.Alternate = GPIO_AF1_LCD;
 121:Core/Src/stm32l0xx_hal_msp.c ****     HAL_GPIO_Init(GPIOA, &GPIO_InitStruct);
 122:Core/Src/stm32l0xx_hal_msp.c **** 
 123:Core/Src/stm32l0xx_hal_msp.c ****     GPIO_InitStruct.Pin = GPIO_PIN_0|GPIO_PIN_1|GPIO_PIN_10|GPIO_PIN_3
 124:Core/Src/stm32l0xx_hal_msp.c ****                           |GPIO_PIN_4|GPIO_PIN_5|GPIO_PIN_9;
 125:Core/Src/stm32l0xx_hal_msp.c ****     GPIO_InitStruct.Mode = GPIO_MODE_AF_PP;
 126:Core/Src/stm32l0xx_hal_msp.c ****     GPIO_InitStruct.Pull = GPIO_NOPULL;
 127:Core/Src/stm32l0xx_hal_msp.c ****     GPIO_InitStruct.Speed = GPIO_SPEED_FREQ_LOW;
 128:Core/Src/stm32l0xx_hal_msp.c ****     GPIO_InitStruct.Alternate = GPIO_AF1_LCD;
 129:Core/Src/stm32l0xx_hal_msp.c ****     HAL_GPIO_Init(GPIOB, &GPIO_InitStruct);
 130:Core/Src/stm32l0xx_hal_msp.c **** 
 131:Core/Src/stm32l0xx_hal_msp.c ****     GPIO_InitStruct.Pin = GPIO_PIN_2;
 132:Core/Src/stm32l0xx_hal_msp.c ****     GPIO_InitStruct.Mode = GPIO_MODE_AF_PP;
 133:Core/Src/stm32l0xx_hal_msp.c ****     GPIO_InitStruct.Pull = GPIO_NOPULL;
ARM GAS  C:\Users\Tilen\AppData\Local\Temp\ccHhauu2.s 			page 5


 134:Core/Src/stm32l0xx_hal_msp.c ****     GPIO_InitStruct.Speed = GPIO_SPEED_FREQ_LOW;
 135:Core/Src/stm32l0xx_hal_msp.c ****     HAL_GPIO_Init(GPIOB, &GPIO_InitStruct);
 136:Core/Src/stm32l0xx_hal_msp.c **** 
 137:Core/Src/stm32l0xx_hal_msp.c ****     /* USER CODE BEGIN LCD_MspInit 1 */
 138:Core/Src/stm32l0xx_hal_msp.c **** 
 139:Core/Src/stm32l0xx_hal_msp.c ****     /* USER CODE END LCD_MspInit 1 */
 140:Core/Src/stm32l0xx_hal_msp.c **** 
 141:Core/Src/stm32l0xx_hal_msp.c ****   }
 142:Core/Src/stm32l0xx_hal_msp.c **** 
 143:Core/Src/stm32l0xx_hal_msp.c **** }
  99              		.loc 1 143 1 view .LVU12
 100 0018 09B0     		add	sp, sp, #36
 101              		@ sp needed
 102 001a F0BD     		pop	{r4, r5, r6, r7, pc}
 103              	.LVL4:
 104              	.L6:
  95:Core/Src/stm32l0xx_hal_msp.c **** 
 105              		.loc 1 95 5 is_stmt 1 view .LVU13
 106 001c 1B4B     		ldr	r3, .L7+4
 107 001e 996B     		ldr	r1, [r3, #56]
 108 0020 8022     		movs	r2, #128
 109 0022 9200     		lsls	r2, r2, #2
 110 0024 0A43     		orrs	r2, r1
 111 0026 9A63     		str	r2, [r3, #56]
  97:Core/Src/stm32l0xx_hal_msp.c ****     __HAL_RCC_GPIOB_CLK_ENABLE();
 112              		.loc 1 97 5 view .LVU14
 113              	.LBB2:
  97:Core/Src/stm32l0xx_hal_msp.c ****     __HAL_RCC_GPIOB_CLK_ENABLE();
 114              		.loc 1 97 5 view .LVU15
  97:Core/Src/stm32l0xx_hal_msp.c ****     __HAL_RCC_GPIOB_CLK_ENABLE();
 115              		.loc 1 97 5 view .LVU16
 116 0028 DA6A     		ldr	r2, [r3, #44]
 117 002a 0121     		movs	r1, #1
 118 002c 0A43     		orrs	r2, r1
 119 002e DA62     		str	r2, [r3, #44]
  97:Core/Src/stm32l0xx_hal_msp.c ****     __HAL_RCC_GPIOB_CLK_ENABLE();
 120              		.loc 1 97 5 view .LVU17
 121 0030 DA6A     		ldr	r2, [r3, #44]
 122 0032 0A40     		ands	r2, r1
 123 0034 0192     		str	r2, [sp, #4]
  97:Core/Src/stm32l0xx_hal_msp.c ****     __HAL_RCC_GPIOB_CLK_ENABLE();
 124              		.loc 1 97 5 view .LVU18
 125 0036 019A     		ldr	r2, [sp, #4]
 126              	.LBE2:
  97:Core/Src/stm32l0xx_hal_msp.c ****     __HAL_RCC_GPIOB_CLK_ENABLE();
 127              		.loc 1 97 5 view .LVU19
  98:Core/Src/stm32l0xx_hal_msp.c ****     /**LCD GPIO Configuration
 128              		.loc 1 98 5 view .LVU20
 129              	.LBB3:
  98:Core/Src/stm32l0xx_hal_msp.c ****     /**LCD GPIO Configuration
 130              		.loc 1 98 5 view .LVU21
  98:Core/Src/stm32l0xx_hal_msp.c ****     /**LCD GPIO Configuration
 131              		.loc 1 98 5 view .LVU22
 132 0038 DA6A     		ldr	r2, [r3, #44]
 133 003a 0225     		movs	r5, #2
 134 003c 2A43     		orrs	r2, r5
 135 003e DA62     		str	r2, [r3, #44]
ARM GAS  C:\Users\Tilen\AppData\Local\Temp\ccHhauu2.s 			page 6


  98:Core/Src/stm32l0xx_hal_msp.c ****     /**LCD GPIO Configuration
 136              		.loc 1 98 5 view .LVU23
 137 0040 DB6A     		ldr	r3, [r3, #44]
 138 0042 2B40     		ands	r3, r5
 139 0044 0293     		str	r3, [sp, #8]
  98:Core/Src/stm32l0xx_hal_msp.c ****     /**LCD GPIO Configuration
 140              		.loc 1 98 5 view .LVU24
 141 0046 029B     		ldr	r3, [sp, #8]
 142              	.LBE3:
  98:Core/Src/stm32l0xx_hal_msp.c ****     /**LCD GPIO Configuration
 143              		.loc 1 98 5 view .LVU25
 115:Core/Src/stm32l0xx_hal_msp.c ****                           |GPIO_PIN_9|GPIO_PIN_10;
 144              		.loc 1 115 5 view .LVU26
 115:Core/Src/stm32l0xx_hal_msp.c ****                           |GPIO_PIN_9|GPIO_PIN_10;
 145              		.loc 1 115 25 is_stmt 0 view .LVU27
 146 0048 03AC     		add	r4, sp, #12
 147              	.LVL5:
 115:Core/Src/stm32l0xx_hal_msp.c ****                           |GPIO_PIN_9|GPIO_PIN_10;
 148              		.loc 1 115 25 view .LVU28
 149 004a 114B     		ldr	r3, .L7+8
 150 004c 0393     		str	r3, [sp, #12]
 117:Core/Src/stm32l0xx_hal_msp.c ****     GPIO_InitStruct.Pull = GPIO_NOPULL;
 151              		.loc 1 117 5 is_stmt 1 view .LVU29
 117:Core/Src/stm32l0xx_hal_msp.c ****     GPIO_InitStruct.Pull = GPIO_NOPULL;
 152              		.loc 1 117 26 is_stmt 0 view .LVU30
 153 004e 0495     		str	r5, [sp, #16]
 118:Core/Src/stm32l0xx_hal_msp.c ****     GPIO_InitStruct.Speed = GPIO_SPEED_FREQ_LOW;
 154              		.loc 1 118 5 is_stmt 1 view .LVU31
 119:Core/Src/stm32l0xx_hal_msp.c ****     GPIO_InitStruct.Alternate = GPIO_AF1_LCD;
 155              		.loc 1 119 5 view .LVU32
 120:Core/Src/stm32l0xx_hal_msp.c ****     HAL_GPIO_Init(GPIOA, &GPIO_InitStruct);
 156              		.loc 1 120 5 view .LVU33
 120:Core/Src/stm32l0xx_hal_msp.c ****     HAL_GPIO_Init(GPIOA, &GPIO_InitStruct);
 157              		.loc 1 120 31 is_stmt 0 view .LVU34
 158 0050 0E00     		movs	r6, r1
 159 0052 0791     		str	r1, [sp, #28]
 121:Core/Src/stm32l0xx_hal_msp.c **** 
 160              		.loc 1 121 5 is_stmt 1 view .LVU35
 161 0054 A020     		movs	r0, #160
 162 0056 2100     		movs	r1, r4
 163 0058 C005     		lsls	r0, r0, #23
 164 005a FFF7FEFF 		bl	HAL_GPIO_Init
 165              	.LVL6:
 123:Core/Src/stm32l0xx_hal_msp.c ****                           |GPIO_PIN_4|GPIO_PIN_5|GPIO_PIN_9;
 166              		.loc 1 123 5 view .LVU36
 123:Core/Src/stm32l0xx_hal_msp.c ****                           |GPIO_PIN_4|GPIO_PIN_5|GPIO_PIN_9;
 167              		.loc 1 123 25 is_stmt 0 view .LVU37
 168 005e 0D4B     		ldr	r3, .L7+12
 169 0060 0393     		str	r3, [sp, #12]
 125:Core/Src/stm32l0xx_hal_msp.c ****     GPIO_InitStruct.Pull = GPIO_NOPULL;
 170              		.loc 1 125 5 is_stmt 1 view .LVU38
 125:Core/Src/stm32l0xx_hal_msp.c ****     GPIO_InitStruct.Pull = GPIO_NOPULL;
 171              		.loc 1 125 26 is_stmt 0 view .LVU39
 172 0062 0495     		str	r5, [sp, #16]
 126:Core/Src/stm32l0xx_hal_msp.c ****     GPIO_InitStruct.Speed = GPIO_SPEED_FREQ_LOW;
 173              		.loc 1 126 5 is_stmt 1 view .LVU40
 126:Core/Src/stm32l0xx_hal_msp.c ****     GPIO_InitStruct.Speed = GPIO_SPEED_FREQ_LOW;
ARM GAS  C:\Users\Tilen\AppData\Local\Temp\ccHhauu2.s 			page 7


 174              		.loc 1 126 26 is_stmt 0 view .LVU41
 175 0064 0027     		movs	r7, #0
 176 0066 0597     		str	r7, [sp, #20]
 127:Core/Src/stm32l0xx_hal_msp.c ****     GPIO_InitStruct.Alternate = GPIO_AF1_LCD;
 177              		.loc 1 127 5 is_stmt 1 view .LVU42
 127:Core/Src/stm32l0xx_hal_msp.c ****     GPIO_InitStruct.Alternate = GPIO_AF1_LCD;
 178              		.loc 1 127 27 is_stmt 0 view .LVU43
 179 0068 0697     		str	r7, [sp, #24]
 128:Core/Src/stm32l0xx_hal_msp.c ****     HAL_GPIO_Init(GPIOB, &GPIO_InitStruct);
 180              		.loc 1 128 5 is_stmt 1 view .LVU44
 128:Core/Src/stm32l0xx_hal_msp.c ****     HAL_GPIO_Init(GPIOB, &GPIO_InitStruct);
 181              		.loc 1 128 31 is_stmt 0 view .LVU45
 182 006a 0796     		str	r6, [sp, #28]
 129:Core/Src/stm32l0xx_hal_msp.c **** 
 183              		.loc 1 129 5 is_stmt 1 view .LVU46
 184 006c 2100     		movs	r1, r4
 185 006e 0A48     		ldr	r0, .L7+16
 186 0070 FFF7FEFF 		bl	HAL_GPIO_Init
 187              	.LVL7:
 131:Core/Src/stm32l0xx_hal_msp.c ****     GPIO_InitStruct.Mode = GPIO_MODE_AF_PP;
 188              		.loc 1 131 5 view .LVU47
 131:Core/Src/stm32l0xx_hal_msp.c ****     GPIO_InitStruct.Mode = GPIO_MODE_AF_PP;
 189              		.loc 1 131 25 is_stmt 0 view .LVU48
 190 0074 0423     		movs	r3, #4
 191 0076 0393     		str	r3, [sp, #12]
 132:Core/Src/stm32l0xx_hal_msp.c ****     GPIO_InitStruct.Pull = GPIO_NOPULL;
 192              		.loc 1 132 5 is_stmt 1 view .LVU49
 132:Core/Src/stm32l0xx_hal_msp.c ****     GPIO_InitStruct.Pull = GPIO_NOPULL;
 193              		.loc 1 132 26 is_stmt 0 view .LVU50
 194 0078 0495     		str	r5, [sp, #16]
 133:Core/Src/stm32l0xx_hal_msp.c ****     GPIO_InitStruct.Speed = GPIO_SPEED_FREQ_LOW;
 195              		.loc 1 133 5 is_stmt 1 view .LVU51
 133:Core/Src/stm32l0xx_hal_msp.c ****     GPIO_InitStruct.Speed = GPIO_SPEED_FREQ_LOW;
 196              		.loc 1 133 26 is_stmt 0 view .LVU52
 197 007a 0597     		str	r7, [sp, #20]
 134:Core/Src/stm32l0xx_hal_msp.c ****     HAL_GPIO_Init(GPIOB, &GPIO_InitStruct);
 198              		.loc 1 134 5 is_stmt 1 view .LVU53
 134:Core/Src/stm32l0xx_hal_msp.c ****     HAL_GPIO_Init(GPIOB, &GPIO_InitStruct);
 199              		.loc 1 134 27 is_stmt 0 view .LVU54
 200 007c 0697     		str	r7, [sp, #24]
 135:Core/Src/stm32l0xx_hal_msp.c **** 
 201              		.loc 1 135 5 is_stmt 1 view .LVU55
 202 007e 2100     		movs	r1, r4
 203 0080 0548     		ldr	r0, .L7+16
 204 0082 FFF7FEFF 		bl	HAL_GPIO_Init
 205              	.LVL8:
 206              		.loc 1 143 1 is_stmt 0 view .LVU56
 207 0086 C7E7     		b	.L4
 208              	.L8:
 209              		.align	2
 210              	.L7:
 211 0088 00240040 		.word	1073751040
 212 008c 00100240 		.word	1073876992
 213 0090 C2070000 		.word	1986
 214 0094 3B060000 		.word	1595
 215 0098 00040050 		.word	1342178304
 216              		.cfi_endproc
ARM GAS  C:\Users\Tilen\AppData\Local\Temp\ccHhauu2.s 			page 8


 217              	.LFE48:
 219              		.section	.text.HAL_LCD_MspDeInit,"ax",%progbits
 220              		.align	1
 221              		.global	HAL_LCD_MspDeInit
 222              		.syntax unified
 223              		.code	16
 224              		.thumb_func
 226              	HAL_LCD_MspDeInit:
 227              	.LVL9:
 228              	.LFB49:
 144:Core/Src/stm32l0xx_hal_msp.c **** 
 145:Core/Src/stm32l0xx_hal_msp.c **** /**
 146:Core/Src/stm32l0xx_hal_msp.c ****   * @brief LCD MSP De-Initialization
 147:Core/Src/stm32l0xx_hal_msp.c ****   * This function freeze the hardware resources used in this example
 148:Core/Src/stm32l0xx_hal_msp.c ****   * @param hlcd: LCD handle pointer
 149:Core/Src/stm32l0xx_hal_msp.c ****   * @retval None
 150:Core/Src/stm32l0xx_hal_msp.c ****   */
 151:Core/Src/stm32l0xx_hal_msp.c **** void HAL_LCD_MspDeInit(LCD_HandleTypeDef* hlcd)
 152:Core/Src/stm32l0xx_hal_msp.c **** {
 229              		.loc 1 152 1 is_stmt 1 view -0
 230              		.cfi_startproc
 231              		@ args = 0, pretend = 0, frame = 0
 232              		@ frame_needed = 0, uses_anonymous_args = 0
 233              		.loc 1 152 1 is_stmt 0 view .LVU58
 234 0000 10B5     		push	{r4, lr}
 235              	.LCFI2:
 236              		.cfi_def_cfa_offset 8
 237              		.cfi_offset 4, -8
 238              		.cfi_offset 14, -4
 153:Core/Src/stm32l0xx_hal_msp.c ****   if(hlcd->Instance==LCD)
 239              		.loc 1 153 3 is_stmt 1 view .LVU59
 240              		.loc 1 153 10 is_stmt 0 view .LVU60
 241 0002 0268     		ldr	r2, [r0]
 242              		.loc 1 153 5 view .LVU61
 243 0004 094B     		ldr	r3, .L12
 244 0006 9A42     		cmp	r2, r3
 245 0008 00D0     		beq	.L11
 246              	.LVL10:
 247              	.L9:
 154:Core/Src/stm32l0xx_hal_msp.c ****   {
 155:Core/Src/stm32l0xx_hal_msp.c ****     /* USER CODE BEGIN LCD_MspDeInit 0 */
 156:Core/Src/stm32l0xx_hal_msp.c **** 
 157:Core/Src/stm32l0xx_hal_msp.c ****     /* USER CODE END LCD_MspDeInit 0 */
 158:Core/Src/stm32l0xx_hal_msp.c ****     /* Peripheral clock disable */
 159:Core/Src/stm32l0xx_hal_msp.c ****     __HAL_RCC_LCD_CLK_DISABLE();
 160:Core/Src/stm32l0xx_hal_msp.c **** 
 161:Core/Src/stm32l0xx_hal_msp.c ****     /**LCD GPIO Configuration
 162:Core/Src/stm32l0xx_hal_msp.c ****     PA1     ------> LCD_SEG0
 163:Core/Src/stm32l0xx_hal_msp.c ****     PA6     ------> LCD_SEG3
 164:Core/Src/stm32l0xx_hal_msp.c ****     PA7     ------> LCD_SEG4
 165:Core/Src/stm32l0xx_hal_msp.c ****     PB0     ------> LCD_SEG5
 166:Core/Src/stm32l0xx_hal_msp.c ****     PB1     ------> LCD_SEG6
 167:Core/Src/stm32l0xx_hal_msp.c ****     PB2     ------> LCD_VLCD2
 168:Core/Src/stm32l0xx_hal_msp.c ****     PB10     ------> LCD_SEG10
 169:Core/Src/stm32l0xx_hal_msp.c ****     PA8     ------> LCD_COM0
 170:Core/Src/stm32l0xx_hal_msp.c ****     PA9     ------> LCD_COM1
 171:Core/Src/stm32l0xx_hal_msp.c ****     PA10     ------> LCD_COM2
ARM GAS  C:\Users\Tilen\AppData\Local\Temp\ccHhauu2.s 			page 9


 172:Core/Src/stm32l0xx_hal_msp.c ****     PB3     ------> LCD_SEG7
 173:Core/Src/stm32l0xx_hal_msp.c ****     PB4     ------> LCD_SEG8
 174:Core/Src/stm32l0xx_hal_msp.c ****     PB5     ------> LCD_SEG9
 175:Core/Src/stm32l0xx_hal_msp.c ****     PB9     ------> LCD_COM3
 176:Core/Src/stm32l0xx_hal_msp.c ****     */
 177:Core/Src/stm32l0xx_hal_msp.c ****     HAL_GPIO_DeInit(GPIOA, GPIO_PIN_1|GPIO_PIN_6|GPIO_PIN_7|GPIO_PIN_8
 178:Core/Src/stm32l0xx_hal_msp.c ****                           |GPIO_PIN_9|GPIO_PIN_10);
 179:Core/Src/stm32l0xx_hal_msp.c **** 
 180:Core/Src/stm32l0xx_hal_msp.c ****     HAL_GPIO_DeInit(GPIOB, GPIO_PIN_0|GPIO_PIN_1|GPIO_PIN_2|GPIO_PIN_10
 181:Core/Src/stm32l0xx_hal_msp.c ****                           |GPIO_PIN_3|GPIO_PIN_4|GPIO_PIN_5|GPIO_PIN_9);
 182:Core/Src/stm32l0xx_hal_msp.c **** 
 183:Core/Src/stm32l0xx_hal_msp.c ****     /* USER CODE BEGIN LCD_MspDeInit 1 */
 184:Core/Src/stm32l0xx_hal_msp.c **** 
 185:Core/Src/stm32l0xx_hal_msp.c ****     /* USER CODE END LCD_MspDeInit 1 */
 186:Core/Src/stm32l0xx_hal_msp.c ****   }
 187:Core/Src/stm32l0xx_hal_msp.c **** 
 188:Core/Src/stm32l0xx_hal_msp.c **** }
 248              		.loc 1 188 1 view .LVU62
 249              		@ sp needed
 250 000a 10BD     		pop	{r4, pc}
 251              	.LVL11:
 252              	.L11:
 159:Core/Src/stm32l0xx_hal_msp.c **** 
 253              		.loc 1 159 5 is_stmt 1 view .LVU63
 254 000c 084A     		ldr	r2, .L12+4
 255 000e 936B     		ldr	r3, [r2, #56]
 256 0010 0849     		ldr	r1, .L12+8
 257 0012 0B40     		ands	r3, r1
 258 0014 9363     		str	r3, [r2, #56]
 177:Core/Src/stm32l0xx_hal_msp.c ****                           |GPIO_PIN_9|GPIO_PIN_10);
 259              		.loc 1 177 5 view .LVU64
 260 0016 A020     		movs	r0, #160
 261              	.LVL12:
 177:Core/Src/stm32l0xx_hal_msp.c ****                           |GPIO_PIN_9|GPIO_PIN_10);
 262              		.loc 1 177 5 is_stmt 0 view .LVU65
 263 0018 0749     		ldr	r1, .L12+12
 264 001a C005     		lsls	r0, r0, #23
 265 001c FFF7FEFF 		bl	HAL_GPIO_DeInit
 266              	.LVL13:
 180:Core/Src/stm32l0xx_hal_msp.c ****                           |GPIO_PIN_3|GPIO_PIN_4|GPIO_PIN_5|GPIO_PIN_9);
 267              		.loc 1 180 5 is_stmt 1 view .LVU66
 268 0020 0649     		ldr	r1, .L12+16
 269 0022 0748     		ldr	r0, .L12+20
 270 0024 FFF7FEFF 		bl	HAL_GPIO_DeInit
 271              	.LVL14:
 272              		.loc 1 188 1 is_stmt 0 view .LVU67
 273 0028 EFE7     		b	.L9
 274              	.L13:
 275 002a C046     		.align	2
 276              	.L12:
 277 002c 00240040 		.word	1073751040
 278 0030 00100240 		.word	1073876992
 279 0034 FFFDFFFF 		.word	-513
 280 0038 C2070000 		.word	1986
 281 003c 3F060000 		.word	1599
 282 0040 00040050 		.word	1342178304
 283              		.cfi_endproc
ARM GAS  C:\Users\Tilen\AppData\Local\Temp\ccHhauu2.s 			page 10


 284              	.LFE49:
 286              		.section	.text.HAL_UART_MspInit,"ax",%progbits
 287              		.align	1
 288              		.global	HAL_UART_MspInit
 289              		.syntax unified
 290              		.code	16
 291              		.thumb_func
 293              	HAL_UART_MspInit:
 294              	.LVL15:
 295              	.LFB50:
 189:Core/Src/stm32l0xx_hal_msp.c **** 
 190:Core/Src/stm32l0xx_hal_msp.c **** /**
 191:Core/Src/stm32l0xx_hal_msp.c ****   * @brief UART MSP Initialization
 192:Core/Src/stm32l0xx_hal_msp.c ****   * This function configures the hardware resources used in this example
 193:Core/Src/stm32l0xx_hal_msp.c ****   * @param huart: UART handle pointer
 194:Core/Src/stm32l0xx_hal_msp.c ****   * @retval None
 195:Core/Src/stm32l0xx_hal_msp.c ****   */
 196:Core/Src/stm32l0xx_hal_msp.c **** void HAL_UART_MspInit(UART_HandleTypeDef* huart)
 197:Core/Src/stm32l0xx_hal_msp.c **** {
 296              		.loc 1 197 1 is_stmt 1 view -0
 297              		.cfi_startproc
 298              		@ args = 0, pretend = 0, frame = 24
 299              		@ frame_needed = 0, uses_anonymous_args = 0
 300              		.loc 1 197 1 is_stmt 0 view .LVU69
 301 0000 10B5     		push	{r4, lr}
 302              	.LCFI3:
 303              		.cfi_def_cfa_offset 8
 304              		.cfi_offset 4, -8
 305              		.cfi_offset 14, -4
 306 0002 86B0     		sub	sp, sp, #24
 307              	.LCFI4:
 308              		.cfi_def_cfa_offset 32
 309 0004 0400     		movs	r4, r0
 198:Core/Src/stm32l0xx_hal_msp.c ****   GPIO_InitTypeDef GPIO_InitStruct = {0};
 310              		.loc 1 198 3 is_stmt 1 view .LVU70
 311              		.loc 1 198 20 is_stmt 0 view .LVU71
 312 0006 1422     		movs	r2, #20
 313 0008 0021     		movs	r1, #0
 314 000a 01A8     		add	r0, sp, #4
 315              	.LVL16:
 316              		.loc 1 198 20 view .LVU72
 317 000c FFF7FEFF 		bl	memset
 318              	.LVL17:
 199:Core/Src/stm32l0xx_hal_msp.c ****   if(huart->Instance==USART2)
 319              		.loc 1 199 3 is_stmt 1 view .LVU73
 320              		.loc 1 199 11 is_stmt 0 view .LVU74
 321 0010 2268     		ldr	r2, [r4]
 322              		.loc 1 199 5 view .LVU75
 323 0012 104B     		ldr	r3, .L17
 324 0014 9A42     		cmp	r2, r3
 325 0016 01D0     		beq	.L16
 326              	.L14:
 200:Core/Src/stm32l0xx_hal_msp.c ****   {
 201:Core/Src/stm32l0xx_hal_msp.c ****     /* USER CODE BEGIN USART2_MspInit 0 */
 202:Core/Src/stm32l0xx_hal_msp.c **** 
 203:Core/Src/stm32l0xx_hal_msp.c ****     /* USER CODE END USART2_MspInit 0 */
 204:Core/Src/stm32l0xx_hal_msp.c ****     /* Peripheral clock enable */
ARM GAS  C:\Users\Tilen\AppData\Local\Temp\ccHhauu2.s 			page 11


 205:Core/Src/stm32l0xx_hal_msp.c ****     __HAL_RCC_USART2_CLK_ENABLE();
 206:Core/Src/stm32l0xx_hal_msp.c **** 
 207:Core/Src/stm32l0xx_hal_msp.c ****     __HAL_RCC_GPIOA_CLK_ENABLE();
 208:Core/Src/stm32l0xx_hal_msp.c ****     /**USART2 GPIO Configuration
 209:Core/Src/stm32l0xx_hal_msp.c ****     PA2     ------> USART2_TX
 210:Core/Src/stm32l0xx_hal_msp.c ****     PA3     ------> USART2_RX
 211:Core/Src/stm32l0xx_hal_msp.c ****     */
 212:Core/Src/stm32l0xx_hal_msp.c ****     GPIO_InitStruct.Pin = USART_TX_Pin|USART_RX_Pin;
 213:Core/Src/stm32l0xx_hal_msp.c ****     GPIO_InitStruct.Mode = GPIO_MODE_AF_PP;
 214:Core/Src/stm32l0xx_hal_msp.c ****     GPIO_InitStruct.Pull = GPIO_NOPULL;
 215:Core/Src/stm32l0xx_hal_msp.c ****     GPIO_InitStruct.Speed = GPIO_SPEED_FREQ_VERY_HIGH;
 216:Core/Src/stm32l0xx_hal_msp.c ****     GPIO_InitStruct.Alternate = GPIO_AF4_USART2;
 217:Core/Src/stm32l0xx_hal_msp.c ****     HAL_GPIO_Init(GPIOA, &GPIO_InitStruct);
 218:Core/Src/stm32l0xx_hal_msp.c **** 
 219:Core/Src/stm32l0xx_hal_msp.c ****     /* USER CODE BEGIN USART2_MspInit 1 */
 220:Core/Src/stm32l0xx_hal_msp.c **** 
 221:Core/Src/stm32l0xx_hal_msp.c ****     /* USER CODE END USART2_MspInit 1 */
 222:Core/Src/stm32l0xx_hal_msp.c **** 
 223:Core/Src/stm32l0xx_hal_msp.c ****   }
 224:Core/Src/stm32l0xx_hal_msp.c **** 
 225:Core/Src/stm32l0xx_hal_msp.c **** }
 327              		.loc 1 225 1 view .LVU76
 328 0018 06B0     		add	sp, sp, #24
 329              		@ sp needed
 330              	.LVL18:
 331              		.loc 1 225 1 view .LVU77
 332 001a 10BD     		pop	{r4, pc}
 333              	.LVL19:
 334              	.L16:
 205:Core/Src/stm32l0xx_hal_msp.c **** 
 335              		.loc 1 205 5 is_stmt 1 view .LVU78
 336 001c 0E4B     		ldr	r3, .L17+4
 337 001e 996B     		ldr	r1, [r3, #56]
 338 0020 8022     		movs	r2, #128
 339 0022 9202     		lsls	r2, r2, #10
 340 0024 0A43     		orrs	r2, r1
 341 0026 9A63     		str	r2, [r3, #56]
 207:Core/Src/stm32l0xx_hal_msp.c ****     /**USART2 GPIO Configuration
 342              		.loc 1 207 5 view .LVU79
 343              	.LBB4:
 207:Core/Src/stm32l0xx_hal_msp.c ****     /**USART2 GPIO Configuration
 344              		.loc 1 207 5 view .LVU80
 207:Core/Src/stm32l0xx_hal_msp.c ****     /**USART2 GPIO Configuration
 345              		.loc 1 207 5 view .LVU81
 346 0028 D96A     		ldr	r1, [r3, #44]
 347 002a 0122     		movs	r2, #1
 348 002c 1143     		orrs	r1, r2
 349 002e D962     		str	r1, [r3, #44]
 207:Core/Src/stm32l0xx_hal_msp.c ****     /**USART2 GPIO Configuration
 350              		.loc 1 207 5 view .LVU82
 351 0030 DB6A     		ldr	r3, [r3, #44]
 352 0032 1A40     		ands	r2, r3
 353 0034 0092     		str	r2, [sp]
 207:Core/Src/stm32l0xx_hal_msp.c ****     /**USART2 GPIO Configuration
 354              		.loc 1 207 5 view .LVU83
 355 0036 009B     		ldr	r3, [sp]
 356              	.LBE4:
ARM GAS  C:\Users\Tilen\AppData\Local\Temp\ccHhauu2.s 			page 12


 207:Core/Src/stm32l0xx_hal_msp.c ****     /**USART2 GPIO Configuration
 357              		.loc 1 207 5 view .LVU84
 212:Core/Src/stm32l0xx_hal_msp.c ****     GPIO_InitStruct.Mode = GPIO_MODE_AF_PP;
 358              		.loc 1 212 5 view .LVU85
 212:Core/Src/stm32l0xx_hal_msp.c ****     GPIO_InitStruct.Mode = GPIO_MODE_AF_PP;
 359              		.loc 1 212 25 is_stmt 0 view .LVU86
 360 0038 01A9     		add	r1, sp, #4
 361 003a 0C23     		movs	r3, #12
 362 003c 0193     		str	r3, [sp, #4]
 213:Core/Src/stm32l0xx_hal_msp.c ****     GPIO_InitStruct.Pull = GPIO_NOPULL;
 363              		.loc 1 213 5 is_stmt 1 view .LVU87
 213:Core/Src/stm32l0xx_hal_msp.c ****     GPIO_InitStruct.Pull = GPIO_NOPULL;
 364              		.loc 1 213 26 is_stmt 0 view .LVU88
 365 003e 0A3B     		subs	r3, r3, #10
 366 0040 4B60     		str	r3, [r1, #4]
 214:Core/Src/stm32l0xx_hal_msp.c ****     GPIO_InitStruct.Speed = GPIO_SPEED_FREQ_VERY_HIGH;
 367              		.loc 1 214 5 is_stmt 1 view .LVU89
 215:Core/Src/stm32l0xx_hal_msp.c ****     GPIO_InitStruct.Alternate = GPIO_AF4_USART2;
 368              		.loc 1 215 5 view .LVU90
 215:Core/Src/stm32l0xx_hal_msp.c ****     GPIO_InitStruct.Alternate = GPIO_AF4_USART2;
 369              		.loc 1 215 27 is_stmt 0 view .LVU91
 370 0042 0133     		adds	r3, r3, #1
 371 0044 CB60     		str	r3, [r1, #12]
 216:Core/Src/stm32l0xx_hal_msp.c ****     HAL_GPIO_Init(GPIOA, &GPIO_InitStruct);
 372              		.loc 1 216 5 is_stmt 1 view .LVU92
 216:Core/Src/stm32l0xx_hal_msp.c ****     HAL_GPIO_Init(GPIOA, &GPIO_InitStruct);
 373              		.loc 1 216 31 is_stmt 0 view .LVU93
 374 0046 0133     		adds	r3, r3, #1
 375 0048 0B61     		str	r3, [r1, #16]
 217:Core/Src/stm32l0xx_hal_msp.c **** 
 376              		.loc 1 217 5 is_stmt 1 view .LVU94
 377 004a A020     		movs	r0, #160
 378 004c C005     		lsls	r0, r0, #23
 379 004e FFF7FEFF 		bl	HAL_GPIO_Init
 380              	.LVL20:
 381              		.loc 1 225 1 is_stmt 0 view .LVU95
 382 0052 E1E7     		b	.L14
 383              	.L18:
 384              		.align	2
 385              	.L17:
 386 0054 00440040 		.word	1073759232
 387 0058 00100240 		.word	1073876992
 388              		.cfi_endproc
 389              	.LFE50:
 391              		.section	.text.HAL_UART_MspDeInit,"ax",%progbits
 392              		.align	1
 393              		.global	HAL_UART_MspDeInit
 394              		.syntax unified
 395              		.code	16
 396              		.thumb_func
 398              	HAL_UART_MspDeInit:
 399              	.LVL21:
 400              	.LFB51:
 226:Core/Src/stm32l0xx_hal_msp.c **** 
 227:Core/Src/stm32l0xx_hal_msp.c **** /**
 228:Core/Src/stm32l0xx_hal_msp.c ****   * @brief UART MSP De-Initialization
 229:Core/Src/stm32l0xx_hal_msp.c ****   * This function freeze the hardware resources used in this example
ARM GAS  C:\Users\Tilen\AppData\Local\Temp\ccHhauu2.s 			page 13


 230:Core/Src/stm32l0xx_hal_msp.c ****   * @param huart: UART handle pointer
 231:Core/Src/stm32l0xx_hal_msp.c ****   * @retval None
 232:Core/Src/stm32l0xx_hal_msp.c ****   */
 233:Core/Src/stm32l0xx_hal_msp.c **** void HAL_UART_MspDeInit(UART_HandleTypeDef* huart)
 234:Core/Src/stm32l0xx_hal_msp.c **** {
 401              		.loc 1 234 1 is_stmt 1 view -0
 402              		.cfi_startproc
 403              		@ args = 0, pretend = 0, frame = 0
 404              		@ frame_needed = 0, uses_anonymous_args = 0
 405              		.loc 1 234 1 is_stmt 0 view .LVU97
 406 0000 10B5     		push	{r4, lr}
 407              	.LCFI5:
 408              		.cfi_def_cfa_offset 8
 409              		.cfi_offset 4, -8
 410              		.cfi_offset 14, -4
 235:Core/Src/stm32l0xx_hal_msp.c ****   if(huart->Instance==USART2)
 411              		.loc 1 235 3 is_stmt 1 view .LVU98
 412              		.loc 1 235 11 is_stmt 0 view .LVU99
 413 0002 0268     		ldr	r2, [r0]
 414              		.loc 1 235 5 view .LVU100
 415 0004 074B     		ldr	r3, .L22
 416 0006 9A42     		cmp	r2, r3
 417 0008 00D0     		beq	.L21
 418              	.LVL22:
 419              	.L19:
 236:Core/Src/stm32l0xx_hal_msp.c ****   {
 237:Core/Src/stm32l0xx_hal_msp.c ****     /* USER CODE BEGIN USART2_MspDeInit 0 */
 238:Core/Src/stm32l0xx_hal_msp.c **** 
 239:Core/Src/stm32l0xx_hal_msp.c ****     /* USER CODE END USART2_MspDeInit 0 */
 240:Core/Src/stm32l0xx_hal_msp.c ****     /* Peripheral clock disable */
 241:Core/Src/stm32l0xx_hal_msp.c ****     __HAL_RCC_USART2_CLK_DISABLE();
 242:Core/Src/stm32l0xx_hal_msp.c **** 
 243:Core/Src/stm32l0xx_hal_msp.c ****     /**USART2 GPIO Configuration
 244:Core/Src/stm32l0xx_hal_msp.c ****     PA2     ------> USART2_TX
 245:Core/Src/stm32l0xx_hal_msp.c ****     PA3     ------> USART2_RX
 246:Core/Src/stm32l0xx_hal_msp.c ****     */
 247:Core/Src/stm32l0xx_hal_msp.c ****     HAL_GPIO_DeInit(GPIOA, USART_TX_Pin|USART_RX_Pin);
 248:Core/Src/stm32l0xx_hal_msp.c **** 
 249:Core/Src/stm32l0xx_hal_msp.c ****     /* USER CODE BEGIN USART2_MspDeInit 1 */
 250:Core/Src/stm32l0xx_hal_msp.c **** 
 251:Core/Src/stm32l0xx_hal_msp.c ****     /* USER CODE END USART2_MspDeInit 1 */
 252:Core/Src/stm32l0xx_hal_msp.c ****   }
 253:Core/Src/stm32l0xx_hal_msp.c **** 
 254:Core/Src/stm32l0xx_hal_msp.c **** }
 420              		.loc 1 254 1 view .LVU101
 421              		@ sp needed
 422 000a 10BD     		pop	{r4, pc}
 423              	.LVL23:
 424              	.L21:
 241:Core/Src/stm32l0xx_hal_msp.c **** 
 425              		.loc 1 241 5 is_stmt 1 view .LVU102
 426 000c 064A     		ldr	r2, .L22+4
 427 000e 936B     		ldr	r3, [r2, #56]
 428 0010 0649     		ldr	r1, .L22+8
 429 0012 0B40     		ands	r3, r1
 430 0014 9363     		str	r3, [r2, #56]
 247:Core/Src/stm32l0xx_hal_msp.c **** 
ARM GAS  C:\Users\Tilen\AppData\Local\Temp\ccHhauu2.s 			page 14


 431              		.loc 1 247 5 view .LVU103
 432 0016 A020     		movs	r0, #160
 433              	.LVL24:
 247:Core/Src/stm32l0xx_hal_msp.c **** 
 434              		.loc 1 247 5 is_stmt 0 view .LVU104
 435 0018 0C21     		movs	r1, #12
 436 001a C005     		lsls	r0, r0, #23
 437 001c FFF7FEFF 		bl	HAL_GPIO_DeInit
 438              	.LVL25:
 439              		.loc 1 254 1 view .LVU105
 440 0020 F3E7     		b	.L19
 441              	.L23:
 442 0022 C046     		.align	2
 443              	.L22:
 444 0024 00440040 		.word	1073759232
 445 0028 00100240 		.word	1073876992
 446 002c FFFFFDFF 		.word	-131073
 447              		.cfi_endproc
 448              	.LFE51:
 450              		.text
 451              	.Letext0:
 452              		.file 2 "C:/Program Files (x86)/Arm/GNU Toolchain mingw-w64-i686-arm-none-eabi/arm-none-eabi/inclu
 453              		.file 3 "C:/Program Files (x86)/Arm/GNU Toolchain mingw-w64-i686-arm-none-eabi/arm-none-eabi/inclu
 454              		.file 4 "Drivers/CMSIS/Device/ST/STM32L0xx/Include/stm32l053xx.h"
 455              		.file 5 "Drivers/STM32L0xx_HAL_Driver/Inc/stm32l0xx_hal_def.h"
 456              		.file 6 "Drivers/STM32L0xx_HAL_Driver/Inc/stm32l0xx_hal_gpio.h"
 457              		.file 7 "Drivers/STM32L0xx_HAL_Driver/Inc/stm32l0xx_hal_dma.h"
 458              		.file 8 "Drivers/STM32L0xx_HAL_Driver/Inc/stm32l0xx_hal_lcd.h"
 459              		.file 9 "Drivers/STM32L0xx_HAL_Driver/Inc/stm32l0xx_hal_uart.h"
 460              		.file 10 "<built-in>"
ARM GAS  C:\Users\Tilen\AppData\Local\Temp\ccHhauu2.s 			page 15

