ARM GAS  C:\Users\Tilen\AppData\Local\Temp\ccVPkpGt.s 			page 1


   1              		.cpu cortex-m0plus
   2              		.arch armv6s-m
   3              		.fpu softvfp
   4              		.eabi_attribute 20, 1
   5              		.eabi_attribute 21, 1
   6              		.eabi_attribute 23, 3
   7              		.eabi_attribute 24, 1
   8              		.eabi_attribute 25, 1
   9              		.eabi_attribute 26, 1
  10              		.eabi_attribute 30, 1
  11              		.eabi_attribute 34, 0
  12              		.eabi_attribute 18, 4
  13              		.file	"stm32l0xx_hal.c"
  14              		.text
  15              	.Ltext0:
  16              		.cfi_sections	.debug_frame
  17              		.file 1 "Drivers/STM32L0xx_HAL_Driver/Src/stm32l0xx_hal.c"
  18              		.section	.text.HAL_MspInit,"ax",%progbits
  19              		.align	1
  20              		.weak	HAL_MspInit
  21              		.syntax unified
  22              		.code	16
  23              		.thumb_func
  25              	HAL_MspInit:
  26              	.LFB49:
   1:Drivers/STM32L0xx_HAL_Driver/Src/stm32l0xx_hal.c **** /**
   2:Drivers/STM32L0xx_HAL_Driver/Src/stm32l0xx_hal.c ****   ******************************************************************************
   3:Drivers/STM32L0xx_HAL_Driver/Src/stm32l0xx_hal.c ****   * @file    stm32l0xx_hal.c
   4:Drivers/STM32L0xx_HAL_Driver/Src/stm32l0xx_hal.c ****   * @author  MCD Application Team
   5:Drivers/STM32L0xx_HAL_Driver/Src/stm32l0xx_hal.c ****   * @brief   HAL module driver.
   6:Drivers/STM32L0xx_HAL_Driver/Src/stm32l0xx_hal.c ****   *          This is the common part of the HAL initialization
   7:Drivers/STM32L0xx_HAL_Driver/Src/stm32l0xx_hal.c ****   *
   8:Drivers/STM32L0xx_HAL_Driver/Src/stm32l0xx_hal.c ****   ******************************************************************************
   9:Drivers/STM32L0xx_HAL_Driver/Src/stm32l0xx_hal.c ****   * @attention
  10:Drivers/STM32L0xx_HAL_Driver/Src/stm32l0xx_hal.c ****   *
  11:Drivers/STM32L0xx_HAL_Driver/Src/stm32l0xx_hal.c ****   * Copyright (c) 2016 STMicroelectronics.
  12:Drivers/STM32L0xx_HAL_Driver/Src/stm32l0xx_hal.c ****   * All rights reserved.
  13:Drivers/STM32L0xx_HAL_Driver/Src/stm32l0xx_hal.c ****   *
  14:Drivers/STM32L0xx_HAL_Driver/Src/stm32l0xx_hal.c ****   * This software is licensed under terms that can be found in the LICENSE file
  15:Drivers/STM32L0xx_HAL_Driver/Src/stm32l0xx_hal.c ****   * in the root directory of this software component.
  16:Drivers/STM32L0xx_HAL_Driver/Src/stm32l0xx_hal.c ****   * If no LICENSE file comes with this software, it is provided AS-IS.
  17:Drivers/STM32L0xx_HAL_Driver/Src/stm32l0xx_hal.c ****   *
  18:Drivers/STM32L0xx_HAL_Driver/Src/stm32l0xx_hal.c ****   ******************************************************************************
  19:Drivers/STM32L0xx_HAL_Driver/Src/stm32l0xx_hal.c ****   @verbatim
  20:Drivers/STM32L0xx_HAL_Driver/Src/stm32l0xx_hal.c ****   ==============================================================================
  21:Drivers/STM32L0xx_HAL_Driver/Src/stm32l0xx_hal.c ****                      ##### How to use this driver #####
  22:Drivers/STM32L0xx_HAL_Driver/Src/stm32l0xx_hal.c ****   ==============================================================================
  23:Drivers/STM32L0xx_HAL_Driver/Src/stm32l0xx_hal.c ****     [..]
  24:Drivers/STM32L0xx_HAL_Driver/Src/stm32l0xx_hal.c ****     The common HAL driver contains a set of generic and common APIs that can be
  25:Drivers/STM32L0xx_HAL_Driver/Src/stm32l0xx_hal.c ****     used by the PPP peripheral drivers and the user to start using the HAL.
  26:Drivers/STM32L0xx_HAL_Driver/Src/stm32l0xx_hal.c ****     [..]
  27:Drivers/STM32L0xx_HAL_Driver/Src/stm32l0xx_hal.c ****     The HAL contains two APIs categories:
  28:Drivers/STM32L0xx_HAL_Driver/Src/stm32l0xx_hal.c ****          (+) Common HAL APIs
  29:Drivers/STM32L0xx_HAL_Driver/Src/stm32l0xx_hal.c ****          (+) Services HAL APIs
  30:Drivers/STM32L0xx_HAL_Driver/Src/stm32l0xx_hal.c **** 
  31:Drivers/STM32L0xx_HAL_Driver/Src/stm32l0xx_hal.c ****   @endverbatim
  32:Drivers/STM32L0xx_HAL_Driver/Src/stm32l0xx_hal.c ****   ******************************************************************************
ARM GAS  C:\Users\Tilen\AppData\Local\Temp\ccVPkpGt.s 			page 2


  33:Drivers/STM32L0xx_HAL_Driver/Src/stm32l0xx_hal.c ****   */
  34:Drivers/STM32L0xx_HAL_Driver/Src/stm32l0xx_hal.c **** 
  35:Drivers/STM32L0xx_HAL_Driver/Src/stm32l0xx_hal.c **** /* Includes ------------------------------------------------------------------*/
  36:Drivers/STM32L0xx_HAL_Driver/Src/stm32l0xx_hal.c **** #include "stm32l0xx_hal.h"
  37:Drivers/STM32L0xx_HAL_Driver/Src/stm32l0xx_hal.c **** 
  38:Drivers/STM32L0xx_HAL_Driver/Src/stm32l0xx_hal.c **** /** @addtogroup STM32L0xx_HAL_Driver
  39:Drivers/STM32L0xx_HAL_Driver/Src/stm32l0xx_hal.c ****   * @{
  40:Drivers/STM32L0xx_HAL_Driver/Src/stm32l0xx_hal.c ****   */
  41:Drivers/STM32L0xx_HAL_Driver/Src/stm32l0xx_hal.c **** 
  42:Drivers/STM32L0xx_HAL_Driver/Src/stm32l0xx_hal.c **** #ifdef HAL_MODULE_ENABLED
  43:Drivers/STM32L0xx_HAL_Driver/Src/stm32l0xx_hal.c **** 
  44:Drivers/STM32L0xx_HAL_Driver/Src/stm32l0xx_hal.c **** /** @addtogroup HAL
  45:Drivers/STM32L0xx_HAL_Driver/Src/stm32l0xx_hal.c ****   * @brief HAL module driver.
  46:Drivers/STM32L0xx_HAL_Driver/Src/stm32l0xx_hal.c ****   * @{
  47:Drivers/STM32L0xx_HAL_Driver/Src/stm32l0xx_hal.c ****   */
  48:Drivers/STM32L0xx_HAL_Driver/Src/stm32l0xx_hal.c **** 
  49:Drivers/STM32L0xx_HAL_Driver/Src/stm32l0xx_hal.c **** /** @addtogroup HAL_Exported_Constants
  50:Drivers/STM32L0xx_HAL_Driver/Src/stm32l0xx_hal.c ****   * @{
  51:Drivers/STM32L0xx_HAL_Driver/Src/stm32l0xx_hal.c ****   */
  52:Drivers/STM32L0xx_HAL_Driver/Src/stm32l0xx_hal.c **** 
  53:Drivers/STM32L0xx_HAL_Driver/Src/stm32l0xx_hal.c **** /** @defgroup HAL_Version HAL Version
  54:Drivers/STM32L0xx_HAL_Driver/Src/stm32l0xx_hal.c ****   * @{
  55:Drivers/STM32L0xx_HAL_Driver/Src/stm32l0xx_hal.c ****   */
  56:Drivers/STM32L0xx_HAL_Driver/Src/stm32l0xx_hal.c **** 
  57:Drivers/STM32L0xx_HAL_Driver/Src/stm32l0xx_hal.c **** /**
  58:Drivers/STM32L0xx_HAL_Driver/Src/stm32l0xx_hal.c ****  * @brief STM32L0xx HAL Driver version number
  59:Drivers/STM32L0xx_HAL_Driver/Src/stm32l0xx_hal.c ****  */
  60:Drivers/STM32L0xx_HAL_Driver/Src/stm32l0xx_hal.c **** #define __STM32L0xx_HAL_VERSION_MAIN   (0x01U) /*!< [31:24] main version */
  61:Drivers/STM32L0xx_HAL_Driver/Src/stm32l0xx_hal.c **** #define __STM32L0xx_HAL_VERSION_SUB1   (0x0AU) /*!< [23:16] sub1 version */
  62:Drivers/STM32L0xx_HAL_Driver/Src/stm32l0xx_hal.c **** #define __STM32L0xx_HAL_VERSION_SUB2   (0x07U) /*!< [15:8]  sub2 version */
  63:Drivers/STM32L0xx_HAL_Driver/Src/stm32l0xx_hal.c **** #define __STM32L0xx_HAL_VERSION_RC     (0x00U) /*!< [7:0]  release candidate */
  64:Drivers/STM32L0xx_HAL_Driver/Src/stm32l0xx_hal.c **** #define __STM32L0xx_HAL_VERSION         ((__STM32L0xx_HAL_VERSION_MAIN << 24U)\
  65:Drivers/STM32L0xx_HAL_Driver/Src/stm32l0xx_hal.c ****                                         |(__STM32L0xx_HAL_VERSION_SUB1 << 16U)\
  66:Drivers/STM32L0xx_HAL_Driver/Src/stm32l0xx_hal.c ****                                         |(__STM32L0xx_HAL_VERSION_SUB2 << 8U )\
  67:Drivers/STM32L0xx_HAL_Driver/Src/stm32l0xx_hal.c ****                                         |(__STM32L0xx_HAL_VERSION_RC))
  68:Drivers/STM32L0xx_HAL_Driver/Src/stm32l0xx_hal.c **** 
  69:Drivers/STM32L0xx_HAL_Driver/Src/stm32l0xx_hal.c **** #define IDCODE_DEVID_MASK    (0x00000FFFU)
  70:Drivers/STM32L0xx_HAL_Driver/Src/stm32l0xx_hal.c **** 
  71:Drivers/STM32L0xx_HAL_Driver/Src/stm32l0xx_hal.c **** /**
  72:Drivers/STM32L0xx_HAL_Driver/Src/stm32l0xx_hal.c ****   * @}
  73:Drivers/STM32L0xx_HAL_Driver/Src/stm32l0xx_hal.c ****   */
  74:Drivers/STM32L0xx_HAL_Driver/Src/stm32l0xx_hal.c **** 
  75:Drivers/STM32L0xx_HAL_Driver/Src/stm32l0xx_hal.c **** /**
  76:Drivers/STM32L0xx_HAL_Driver/Src/stm32l0xx_hal.c ****   * @}
  77:Drivers/STM32L0xx_HAL_Driver/Src/stm32l0xx_hal.c ****   */
  78:Drivers/STM32L0xx_HAL_Driver/Src/stm32l0xx_hal.c **** 
  79:Drivers/STM32L0xx_HAL_Driver/Src/stm32l0xx_hal.c **** /* Exported variables --------------------------------------------------------*/
  80:Drivers/STM32L0xx_HAL_Driver/Src/stm32l0xx_hal.c **** /** @addtogroup HAL_Exported_Variables
  81:Drivers/STM32L0xx_HAL_Driver/Src/stm32l0xx_hal.c ****   * @{
  82:Drivers/STM32L0xx_HAL_Driver/Src/stm32l0xx_hal.c ****   */
  83:Drivers/STM32L0xx_HAL_Driver/Src/stm32l0xx_hal.c **** __IO uint32_t uwTick;
  84:Drivers/STM32L0xx_HAL_Driver/Src/stm32l0xx_hal.c **** uint32_t uwTickPrio   = (1UL << __NVIC_PRIO_BITS); /* Invalid PRIO */
  85:Drivers/STM32L0xx_HAL_Driver/Src/stm32l0xx_hal.c **** HAL_TickFreqTypeDef uwTickFreq = HAL_TICK_FREQ_DEFAULT;  /* 1KHz */
  86:Drivers/STM32L0xx_HAL_Driver/Src/stm32l0xx_hal.c **** /**
  87:Drivers/STM32L0xx_HAL_Driver/Src/stm32l0xx_hal.c ****   * @}
  88:Drivers/STM32L0xx_HAL_Driver/Src/stm32l0xx_hal.c ****   */
  89:Drivers/STM32L0xx_HAL_Driver/Src/stm32l0xx_hal.c **** 
ARM GAS  C:\Users\Tilen\AppData\Local\Temp\ccVPkpGt.s 			page 3


  90:Drivers/STM32L0xx_HAL_Driver/Src/stm32l0xx_hal.c **** /* Exported functions --------------------------------------------------------*/
  91:Drivers/STM32L0xx_HAL_Driver/Src/stm32l0xx_hal.c **** /** @addtogroup HAL_Exported_Functions
  92:Drivers/STM32L0xx_HAL_Driver/Src/stm32l0xx_hal.c ****   * @{
  93:Drivers/STM32L0xx_HAL_Driver/Src/stm32l0xx_hal.c ****   */
  94:Drivers/STM32L0xx_HAL_Driver/Src/stm32l0xx_hal.c **** 
  95:Drivers/STM32L0xx_HAL_Driver/Src/stm32l0xx_hal.c **** /** @addtogroup HAL_Exported_Functions_Group1
  96:Drivers/STM32L0xx_HAL_Driver/Src/stm32l0xx_hal.c ****  *  @brief    Initialization and de-initialization functions
  97:Drivers/STM32L0xx_HAL_Driver/Src/stm32l0xx_hal.c ****  *
  98:Drivers/STM32L0xx_HAL_Driver/Src/stm32l0xx_hal.c **** @verbatim
  99:Drivers/STM32L0xx_HAL_Driver/Src/stm32l0xx_hal.c ****  ===============================================================================
 100:Drivers/STM32L0xx_HAL_Driver/Src/stm32l0xx_hal.c ****               ##### Initialization and de-initialization functions #####
 101:Drivers/STM32L0xx_HAL_Driver/Src/stm32l0xx_hal.c ****  ===============================================================================
 102:Drivers/STM32L0xx_HAL_Driver/Src/stm32l0xx_hal.c ****    [..]  This section provides functions allowing to:
 103:Drivers/STM32L0xx_HAL_Driver/Src/stm32l0xx_hal.c ****       (+) Initialize the Flash interface, the NVIC allocation and initial clock
 104:Drivers/STM32L0xx_HAL_Driver/Src/stm32l0xx_hal.c ****           configuration. It initializes the source of time base also when timeout
 105:Drivers/STM32L0xx_HAL_Driver/Src/stm32l0xx_hal.c ****           is needed and the backup domain when enabled.
 106:Drivers/STM32L0xx_HAL_Driver/Src/stm32l0xx_hal.c ****       (+) De-initialize common part of the HAL.
 107:Drivers/STM32L0xx_HAL_Driver/Src/stm32l0xx_hal.c ****       (+) Configure the time base source to have 1ms time base with a dedicated
 108:Drivers/STM32L0xx_HAL_Driver/Src/stm32l0xx_hal.c ****           Tick interrupt priority.
 109:Drivers/STM32L0xx_HAL_Driver/Src/stm32l0xx_hal.c ****         (++) SysTick timer is used by default as source of time base, but user
 110:Drivers/STM32L0xx_HAL_Driver/Src/stm32l0xx_hal.c ****              can eventually implement his proper time base source (a general purpose
 111:Drivers/STM32L0xx_HAL_Driver/Src/stm32l0xx_hal.c ****              timer for example or other time source), keeping in mind that Time base
 112:Drivers/STM32L0xx_HAL_Driver/Src/stm32l0xx_hal.c ****              duration should be kept 1ms since PPP_TIMEOUT_VALUEs are defined and
 113:Drivers/STM32L0xx_HAL_Driver/Src/stm32l0xx_hal.c ****              handled in milliseconds basis.
 114:Drivers/STM32L0xx_HAL_Driver/Src/stm32l0xx_hal.c ****         (++) Time base configuration function (HAL_InitTick ()) is called automatically
 115:Drivers/STM32L0xx_HAL_Driver/Src/stm32l0xx_hal.c ****              at the beginning of the program after reset by HAL_Init() or at any time
 116:Drivers/STM32L0xx_HAL_Driver/Src/stm32l0xx_hal.c ****              when clock is configured, by HAL_RCC_ClockConfig().
 117:Drivers/STM32L0xx_HAL_Driver/Src/stm32l0xx_hal.c ****         (++) Source of time base is configured  to generate interrupts at regular
 118:Drivers/STM32L0xx_HAL_Driver/Src/stm32l0xx_hal.c ****              time intervals. Care must be taken if HAL_Delay() is called from a
 119:Drivers/STM32L0xx_HAL_Driver/Src/stm32l0xx_hal.c ****              peripheral ISR process, the Tick interrupt line must have higher priority
 120:Drivers/STM32L0xx_HAL_Driver/Src/stm32l0xx_hal.c ****             (numerically lower) than the peripheral interrupt. Otherwise the caller
 121:Drivers/STM32L0xx_HAL_Driver/Src/stm32l0xx_hal.c ****             ISR process will be blocked.
 122:Drivers/STM32L0xx_HAL_Driver/Src/stm32l0xx_hal.c ****        (++) functions affecting time base configurations are declared as __weak
 123:Drivers/STM32L0xx_HAL_Driver/Src/stm32l0xx_hal.c ****              to make  override possible  in case of other  implementations in user file.
 124:Drivers/STM32L0xx_HAL_Driver/Src/stm32l0xx_hal.c **** 
 125:Drivers/STM32L0xx_HAL_Driver/Src/stm32l0xx_hal.c **** @endverbatim
 126:Drivers/STM32L0xx_HAL_Driver/Src/stm32l0xx_hal.c ****   * @{
 127:Drivers/STM32L0xx_HAL_Driver/Src/stm32l0xx_hal.c ****   */
 128:Drivers/STM32L0xx_HAL_Driver/Src/stm32l0xx_hal.c **** 
 129:Drivers/STM32L0xx_HAL_Driver/Src/stm32l0xx_hal.c **** /**
 130:Drivers/STM32L0xx_HAL_Driver/Src/stm32l0xx_hal.c ****   * @brief This function configures the Flash prefetch, Flash preread and Buffer cache,
 131:Drivers/STM32L0xx_HAL_Driver/Src/stm32l0xx_hal.c ****   *        Configures time base source, NVIC and Low level hardware
 132:Drivers/STM32L0xx_HAL_Driver/Src/stm32l0xx_hal.c ****   * @note This function is called at the beginning of program after reset and before
 133:Drivers/STM32L0xx_HAL_Driver/Src/stm32l0xx_hal.c ****   *       the clock configuration
 134:Drivers/STM32L0xx_HAL_Driver/Src/stm32l0xx_hal.c ****   * @note The time base configuration is based on MSI clock when exiting from Reset.
 135:Drivers/STM32L0xx_HAL_Driver/Src/stm32l0xx_hal.c ****   *       Once done, time base tick start incrementing.
 136:Drivers/STM32L0xx_HAL_Driver/Src/stm32l0xx_hal.c ****   *        In the default implementation,Systick is used as source of time base.
 137:Drivers/STM32L0xx_HAL_Driver/Src/stm32l0xx_hal.c ****   *        the tick variable is incremented each 1ms in its ISR.
 138:Drivers/STM32L0xx_HAL_Driver/Src/stm32l0xx_hal.c ****   * @retval HAL status
 139:Drivers/STM32L0xx_HAL_Driver/Src/stm32l0xx_hal.c ****   */
 140:Drivers/STM32L0xx_HAL_Driver/Src/stm32l0xx_hal.c **** HAL_StatusTypeDef HAL_Init(void)
 141:Drivers/STM32L0xx_HAL_Driver/Src/stm32l0xx_hal.c **** {
 142:Drivers/STM32L0xx_HAL_Driver/Src/stm32l0xx_hal.c ****   HAL_StatusTypeDef  status = HAL_OK;
 143:Drivers/STM32L0xx_HAL_Driver/Src/stm32l0xx_hal.c **** 
 144:Drivers/STM32L0xx_HAL_Driver/Src/stm32l0xx_hal.c ****   /* Configure Buffer cache, Flash prefetch,  Flash preread */
 145:Drivers/STM32L0xx_HAL_Driver/Src/stm32l0xx_hal.c **** #if (BUFFER_CACHE_DISABLE != 0)
 146:Drivers/STM32L0xx_HAL_Driver/Src/stm32l0xx_hal.c ****   __HAL_FLASH_BUFFER_CACHE_DISABLE();
ARM GAS  C:\Users\Tilen\AppData\Local\Temp\ccVPkpGt.s 			page 4


 147:Drivers/STM32L0xx_HAL_Driver/Src/stm32l0xx_hal.c **** #endif /* BUFFER_CACHE_DISABLE */
 148:Drivers/STM32L0xx_HAL_Driver/Src/stm32l0xx_hal.c **** 
 149:Drivers/STM32L0xx_HAL_Driver/Src/stm32l0xx_hal.c **** #if (PREREAD_ENABLE != 0)
 150:Drivers/STM32L0xx_HAL_Driver/Src/stm32l0xx_hal.c ****   __HAL_FLASH_PREREAD_BUFFER_ENABLE();
 151:Drivers/STM32L0xx_HAL_Driver/Src/stm32l0xx_hal.c **** #endif /* PREREAD_ENABLE */
 152:Drivers/STM32L0xx_HAL_Driver/Src/stm32l0xx_hal.c **** 
 153:Drivers/STM32L0xx_HAL_Driver/Src/stm32l0xx_hal.c **** #if (PREFETCH_ENABLE != 0)
 154:Drivers/STM32L0xx_HAL_Driver/Src/stm32l0xx_hal.c ****   __HAL_FLASH_PREFETCH_BUFFER_ENABLE();
 155:Drivers/STM32L0xx_HAL_Driver/Src/stm32l0xx_hal.c **** #endif /* PREFETCH_ENABLE */
 156:Drivers/STM32L0xx_HAL_Driver/Src/stm32l0xx_hal.c **** 
 157:Drivers/STM32L0xx_HAL_Driver/Src/stm32l0xx_hal.c ****   /* Use SysTick as time base source and configure 1ms tick (default clock after Reset is MSI) */
 158:Drivers/STM32L0xx_HAL_Driver/Src/stm32l0xx_hal.c ****   if (HAL_InitTick(TICK_INT_PRIORITY) != HAL_OK)
 159:Drivers/STM32L0xx_HAL_Driver/Src/stm32l0xx_hal.c ****   {
 160:Drivers/STM32L0xx_HAL_Driver/Src/stm32l0xx_hal.c ****     status = HAL_ERROR;
 161:Drivers/STM32L0xx_HAL_Driver/Src/stm32l0xx_hal.c ****   }
 162:Drivers/STM32L0xx_HAL_Driver/Src/stm32l0xx_hal.c ****   else
 163:Drivers/STM32L0xx_HAL_Driver/Src/stm32l0xx_hal.c ****   {
 164:Drivers/STM32L0xx_HAL_Driver/Src/stm32l0xx_hal.c ****     /* Init the low level hardware */
 165:Drivers/STM32L0xx_HAL_Driver/Src/stm32l0xx_hal.c ****     HAL_MspInit();
 166:Drivers/STM32L0xx_HAL_Driver/Src/stm32l0xx_hal.c ****   }
 167:Drivers/STM32L0xx_HAL_Driver/Src/stm32l0xx_hal.c **** 
 168:Drivers/STM32L0xx_HAL_Driver/Src/stm32l0xx_hal.c ****   /* Return function status */
 169:Drivers/STM32L0xx_HAL_Driver/Src/stm32l0xx_hal.c ****   return status;
 170:Drivers/STM32L0xx_HAL_Driver/Src/stm32l0xx_hal.c **** }
 171:Drivers/STM32L0xx_HAL_Driver/Src/stm32l0xx_hal.c **** 
 172:Drivers/STM32L0xx_HAL_Driver/Src/stm32l0xx_hal.c **** /**
 173:Drivers/STM32L0xx_HAL_Driver/Src/stm32l0xx_hal.c ****   * @brief This function de-initializes common part of the HAL and stops the source
 174:Drivers/STM32L0xx_HAL_Driver/Src/stm32l0xx_hal.c ****   *        of time base.
 175:Drivers/STM32L0xx_HAL_Driver/Src/stm32l0xx_hal.c ****   * @note This function is optional.
 176:Drivers/STM32L0xx_HAL_Driver/Src/stm32l0xx_hal.c ****   * @retval HAL status
 177:Drivers/STM32L0xx_HAL_Driver/Src/stm32l0xx_hal.c ****   */
 178:Drivers/STM32L0xx_HAL_Driver/Src/stm32l0xx_hal.c **** HAL_StatusTypeDef HAL_DeInit(void)
 179:Drivers/STM32L0xx_HAL_Driver/Src/stm32l0xx_hal.c **** {
 180:Drivers/STM32L0xx_HAL_Driver/Src/stm32l0xx_hal.c ****   /* Reset of all peripherals */
 181:Drivers/STM32L0xx_HAL_Driver/Src/stm32l0xx_hal.c ****   __HAL_RCC_APB1_FORCE_RESET();
 182:Drivers/STM32L0xx_HAL_Driver/Src/stm32l0xx_hal.c ****   __HAL_RCC_APB1_RELEASE_RESET();
 183:Drivers/STM32L0xx_HAL_Driver/Src/stm32l0xx_hal.c **** 
 184:Drivers/STM32L0xx_HAL_Driver/Src/stm32l0xx_hal.c ****   __HAL_RCC_APB2_FORCE_RESET();
 185:Drivers/STM32L0xx_HAL_Driver/Src/stm32l0xx_hal.c ****   __HAL_RCC_APB2_RELEASE_RESET();
 186:Drivers/STM32L0xx_HAL_Driver/Src/stm32l0xx_hal.c **** 
 187:Drivers/STM32L0xx_HAL_Driver/Src/stm32l0xx_hal.c ****   __HAL_RCC_AHB_FORCE_RESET();
 188:Drivers/STM32L0xx_HAL_Driver/Src/stm32l0xx_hal.c ****   __HAL_RCC_AHB_RELEASE_RESET();
 189:Drivers/STM32L0xx_HAL_Driver/Src/stm32l0xx_hal.c **** 
 190:Drivers/STM32L0xx_HAL_Driver/Src/stm32l0xx_hal.c ****   __HAL_RCC_IOP_FORCE_RESET();
 191:Drivers/STM32L0xx_HAL_Driver/Src/stm32l0xx_hal.c ****   __HAL_RCC_IOP_RELEASE_RESET();
 192:Drivers/STM32L0xx_HAL_Driver/Src/stm32l0xx_hal.c **** 
 193:Drivers/STM32L0xx_HAL_Driver/Src/stm32l0xx_hal.c ****   /* De-Init the low level hardware */
 194:Drivers/STM32L0xx_HAL_Driver/Src/stm32l0xx_hal.c ****   HAL_MspDeInit();
 195:Drivers/STM32L0xx_HAL_Driver/Src/stm32l0xx_hal.c **** 
 196:Drivers/STM32L0xx_HAL_Driver/Src/stm32l0xx_hal.c ****   /* Return function status */
 197:Drivers/STM32L0xx_HAL_Driver/Src/stm32l0xx_hal.c ****   return HAL_OK;
 198:Drivers/STM32L0xx_HAL_Driver/Src/stm32l0xx_hal.c **** }
 199:Drivers/STM32L0xx_HAL_Driver/Src/stm32l0xx_hal.c **** 
 200:Drivers/STM32L0xx_HAL_Driver/Src/stm32l0xx_hal.c **** /**
 201:Drivers/STM32L0xx_HAL_Driver/Src/stm32l0xx_hal.c ****   * @brief  Initializes the MSP.
 202:Drivers/STM32L0xx_HAL_Driver/Src/stm32l0xx_hal.c ****   * @retval None
 203:Drivers/STM32L0xx_HAL_Driver/Src/stm32l0xx_hal.c ****   */
ARM GAS  C:\Users\Tilen\AppData\Local\Temp\ccVPkpGt.s 			page 5


 204:Drivers/STM32L0xx_HAL_Driver/Src/stm32l0xx_hal.c **** __weak void HAL_MspInit(void)
 205:Drivers/STM32L0xx_HAL_Driver/Src/stm32l0xx_hal.c **** {
  27              		.loc 1 205 1 view -0
  28              		.cfi_startproc
  29              		@ args = 0, pretend = 0, frame = 0
  30              		@ frame_needed = 0, uses_anonymous_args = 0
  31              		@ link register save eliminated.
 206:Drivers/STM32L0xx_HAL_Driver/Src/stm32l0xx_hal.c ****   /* NOTE : This function should not be modified, when the callback is needed,
 207:Drivers/STM32L0xx_HAL_Driver/Src/stm32l0xx_hal.c ****             the HAL_MspInit could be implemented in the user file
 208:Drivers/STM32L0xx_HAL_Driver/Src/stm32l0xx_hal.c ****    */
 209:Drivers/STM32L0xx_HAL_Driver/Src/stm32l0xx_hal.c **** }
  32              		.loc 1 209 1 view .LVU1
  33              		@ sp needed
  34 0000 7047     		bx	lr
  35              		.cfi_endproc
  36              	.LFE49:
  38              		.section	.text.HAL_MspDeInit,"ax",%progbits
  39              		.align	1
  40              		.weak	HAL_MspDeInit
  41              		.syntax unified
  42              		.code	16
  43              		.thumb_func
  45              	HAL_MspDeInit:
  46              	.LFB50:
 210:Drivers/STM32L0xx_HAL_Driver/Src/stm32l0xx_hal.c **** 
 211:Drivers/STM32L0xx_HAL_Driver/Src/stm32l0xx_hal.c **** /**
 212:Drivers/STM32L0xx_HAL_Driver/Src/stm32l0xx_hal.c ****   * @brief  DeInitializes the MSP.
 213:Drivers/STM32L0xx_HAL_Driver/Src/stm32l0xx_hal.c ****   * @retval None
 214:Drivers/STM32L0xx_HAL_Driver/Src/stm32l0xx_hal.c ****   */
 215:Drivers/STM32L0xx_HAL_Driver/Src/stm32l0xx_hal.c **** __weak void HAL_MspDeInit(void)
 216:Drivers/STM32L0xx_HAL_Driver/Src/stm32l0xx_hal.c **** {
  47              		.loc 1 216 1 view -0
  48              		.cfi_startproc
  49              		@ args = 0, pretend = 0, frame = 0
  50              		@ frame_needed = 0, uses_anonymous_args = 0
  51              		@ link register save eliminated.
 217:Drivers/STM32L0xx_HAL_Driver/Src/stm32l0xx_hal.c ****   /* NOTE : This function should not be modified, when the callback is needed,
 218:Drivers/STM32L0xx_HAL_Driver/Src/stm32l0xx_hal.c ****             the HAL_MspDeInit could be implemented in the user file
 219:Drivers/STM32L0xx_HAL_Driver/Src/stm32l0xx_hal.c ****    */
 220:Drivers/STM32L0xx_HAL_Driver/Src/stm32l0xx_hal.c **** }
  52              		.loc 1 220 1 view .LVU3
  53              		@ sp needed
  54 0000 7047     		bx	lr
  55              		.cfi_endproc
  56              	.LFE50:
  58              		.section	.text.HAL_DeInit,"ax",%progbits
  59              		.align	1
  60              		.global	HAL_DeInit
  61              		.syntax unified
  62              		.code	16
  63              		.thumb_func
  65              	HAL_DeInit:
  66              	.LFB48:
 179:Drivers/STM32L0xx_HAL_Driver/Src/stm32l0xx_hal.c ****   /* Reset of all peripherals */
  67              		.loc 1 179 1 view -0
  68              		.cfi_startproc
  69              		@ args = 0, pretend = 0, frame = 0
ARM GAS  C:\Users\Tilen\AppData\Local\Temp\ccVPkpGt.s 			page 6


  70              		@ frame_needed = 0, uses_anonymous_args = 0
  71 0000 10B5     		push	{r4, lr}
  72              	.LCFI0:
  73              		.cfi_def_cfa_offset 8
  74              		.cfi_offset 4, -8
  75              		.cfi_offset 14, -4
 181:Drivers/STM32L0xx_HAL_Driver/Src/stm32l0xx_hal.c ****   __HAL_RCC_APB1_RELEASE_RESET();
  76              		.loc 1 181 3 view .LVU5
  77 0002 084B     		ldr	r3, .L4
  78 0004 0121     		movs	r1, #1
  79 0006 4942     		rsbs	r1, r1, #0
  80 0008 9962     		str	r1, [r3, #40]
 182:Drivers/STM32L0xx_HAL_Driver/Src/stm32l0xx_hal.c **** 
  81              		.loc 1 182 3 view .LVU6
  82 000a 0022     		movs	r2, #0
  83 000c 9A62     		str	r2, [r3, #40]
 184:Drivers/STM32L0xx_HAL_Driver/Src/stm32l0xx_hal.c ****   __HAL_RCC_APB2_RELEASE_RESET();
  84              		.loc 1 184 3 view .LVU7
  85 000e 5962     		str	r1, [r3, #36]
 185:Drivers/STM32L0xx_HAL_Driver/Src/stm32l0xx_hal.c **** 
  86              		.loc 1 185 3 view .LVU8
  87 0010 5A62     		str	r2, [r3, #36]
 187:Drivers/STM32L0xx_HAL_Driver/Src/stm32l0xx_hal.c ****   __HAL_RCC_AHB_RELEASE_RESET();
  88              		.loc 1 187 3 view .LVU9
  89 0012 1962     		str	r1, [r3, #32]
 188:Drivers/STM32L0xx_HAL_Driver/Src/stm32l0xx_hal.c **** 
  90              		.loc 1 188 3 view .LVU10
  91 0014 1A62     		str	r2, [r3, #32]
 190:Drivers/STM32L0xx_HAL_Driver/Src/stm32l0xx_hal.c ****   __HAL_RCC_IOP_RELEASE_RESET();
  92              		.loc 1 190 3 view .LVU11
  93 0016 D961     		str	r1, [r3, #28]
 191:Drivers/STM32L0xx_HAL_Driver/Src/stm32l0xx_hal.c **** 
  94              		.loc 1 191 3 view .LVU12
  95 0018 DA61     		str	r2, [r3, #28]
 194:Drivers/STM32L0xx_HAL_Driver/Src/stm32l0xx_hal.c **** 
  96              		.loc 1 194 3 view .LVU13
  97 001a FFF7FEFF 		bl	HAL_MspDeInit
  98              	.LVL0:
 197:Drivers/STM32L0xx_HAL_Driver/Src/stm32l0xx_hal.c **** }
  99              		.loc 1 197 3 view .LVU14
 198:Drivers/STM32L0xx_HAL_Driver/Src/stm32l0xx_hal.c **** 
 100              		.loc 1 198 1 is_stmt 0 view .LVU15
 101 001e 0020     		movs	r0, #0
 102              		@ sp needed
 103 0020 10BD     		pop	{r4, pc}
 104              	.L5:
 105 0022 C046     		.align	2
 106              	.L4:
 107 0024 00100240 		.word	1073876992
 108              		.cfi_endproc
 109              	.LFE48:
 111              		.section	.text.HAL_InitTick,"ax",%progbits
 112              		.align	1
 113              		.weak	HAL_InitTick
 114              		.syntax unified
 115              		.code	16
 116              		.thumb_func
ARM GAS  C:\Users\Tilen\AppData\Local\Temp\ccVPkpGt.s 			page 7


 118              	HAL_InitTick:
 119              	.LVL1:
 120              	.LFB51:
 221:Drivers/STM32L0xx_HAL_Driver/Src/stm32l0xx_hal.c **** 
 222:Drivers/STM32L0xx_HAL_Driver/Src/stm32l0xx_hal.c **** /**
 223:Drivers/STM32L0xx_HAL_Driver/Src/stm32l0xx_hal.c ****   * @brief This function configures the source of the time base:
 224:Drivers/STM32L0xx_HAL_Driver/Src/stm32l0xx_hal.c ****   *        The time source is configured  to have 1ms time base with a dedicated 
 225:Drivers/STM32L0xx_HAL_Driver/Src/stm32l0xx_hal.c ****   *        Tick interrupt priority.
 226:Drivers/STM32L0xx_HAL_Driver/Src/stm32l0xx_hal.c ****   * @note This function is called  automatically at the beginning of program after
 227:Drivers/STM32L0xx_HAL_Driver/Src/stm32l0xx_hal.c ****   *       reset by HAL_Init() or at any time when clock is reconfigured  by HAL_RCC_ClockConfig().
 228:Drivers/STM32L0xx_HAL_Driver/Src/stm32l0xx_hal.c ****   * @note In the default implementation, SysTick timer is the source of time base. 
 229:Drivers/STM32L0xx_HAL_Driver/Src/stm32l0xx_hal.c ****   *       It is used to generate interrupts at regular time intervals. 
 230:Drivers/STM32L0xx_HAL_Driver/Src/stm32l0xx_hal.c ****   *       Care must be taken if HAL_Delay() is called from a peripheral ISR process, 
 231:Drivers/STM32L0xx_HAL_Driver/Src/stm32l0xx_hal.c ****   *       The SysTick interrupt must have higher priority (numerically lower)
 232:Drivers/STM32L0xx_HAL_Driver/Src/stm32l0xx_hal.c ****   *       than the peripheral interrupt. Otherwise the caller ISR process will be blocked.
 233:Drivers/STM32L0xx_HAL_Driver/Src/stm32l0xx_hal.c ****   *       The function is declared as __weak  to be overwritten  in case of other
 234:Drivers/STM32L0xx_HAL_Driver/Src/stm32l0xx_hal.c ****   *       implementation  in user file.
 235:Drivers/STM32L0xx_HAL_Driver/Src/stm32l0xx_hal.c ****   * @param TickPriority Tick interrupt priority.
 236:Drivers/STM32L0xx_HAL_Driver/Src/stm32l0xx_hal.c ****   * @retval HAL status
 237:Drivers/STM32L0xx_HAL_Driver/Src/stm32l0xx_hal.c ****   */
 238:Drivers/STM32L0xx_HAL_Driver/Src/stm32l0xx_hal.c **** __weak HAL_StatusTypeDef HAL_InitTick(uint32_t TickPriority)
 239:Drivers/STM32L0xx_HAL_Driver/Src/stm32l0xx_hal.c **** {
 121              		.loc 1 239 1 is_stmt 1 view -0
 122              		.cfi_startproc
 123              		@ args = 0, pretend = 0, frame = 0
 124              		@ frame_needed = 0, uses_anonymous_args = 0
 125              		.loc 1 239 1 is_stmt 0 view .LVU17
 126 0000 70B5     		push	{r4, r5, r6, lr}
 127              	.LCFI1:
 128              		.cfi_def_cfa_offset 16
 129              		.cfi_offset 4, -16
 130              		.cfi_offset 5, -12
 131              		.cfi_offset 6, -8
 132              		.cfi_offset 14, -4
 133 0002 0500     		movs	r5, r0
 240:Drivers/STM32L0xx_HAL_Driver/Src/stm32l0xx_hal.c ****   /* Configure the SysTick to have interrupt in 1ms time basis*/
 241:Drivers/STM32L0xx_HAL_Driver/Src/stm32l0xx_hal.c ****   if (HAL_SYSTICK_Config(SystemCoreClock / (1000U / uwTickFreq)) > 0U)
 134              		.loc 1 241 3 is_stmt 1 view .LVU18
 135              		.loc 1 241 7 is_stmt 0 view .LVU19
 136 0004 0F4B     		ldr	r3, .L11
 137 0006 1C68     		ldr	r4, [r3]
 138              		.loc 1 241 51 view .LVU20
 139 0008 0F4B     		ldr	r3, .L11+4
 140 000a 1978     		ldrb	r1, [r3]
 141 000c FA20     		movs	r0, #250
 142              	.LVL2:
 143              		.loc 1 241 51 view .LVU21
 144 000e 8000     		lsls	r0, r0, #2
 145 0010 FFF7FEFF 		bl	__aeabi_uidiv
 146              	.LVL3:
 147 0014 0100     		movs	r1, r0
 148              		.loc 1 241 42 view .LVU22
 149 0016 2000     		movs	r0, r4
 150 0018 FFF7FEFF 		bl	__aeabi_uidiv
 151              	.LVL4:
 152              		.loc 1 241 7 view .LVU23
 153 001c FFF7FEFF 		bl	HAL_SYSTICK_Config
ARM GAS  C:\Users\Tilen\AppData\Local\Temp\ccVPkpGt.s 			page 8


 154              	.LVL5:
 155              		.loc 1 241 6 discriminator 1 view .LVU24
 156 0020 0028     		cmp	r0, #0
 157 0022 0DD1     		bne	.L8
 242:Drivers/STM32L0xx_HAL_Driver/Src/stm32l0xx_hal.c ****   {
 243:Drivers/STM32L0xx_HAL_Driver/Src/stm32l0xx_hal.c ****     return HAL_ERROR;
 244:Drivers/STM32L0xx_HAL_Driver/Src/stm32l0xx_hal.c ****   }
 245:Drivers/STM32L0xx_HAL_Driver/Src/stm32l0xx_hal.c **** 
 246:Drivers/STM32L0xx_HAL_Driver/Src/stm32l0xx_hal.c ****   /* Configure the SysTick IRQ priority */
 247:Drivers/STM32L0xx_HAL_Driver/Src/stm32l0xx_hal.c ****   if (TickPriority < (1UL << __NVIC_PRIO_BITS))
 158              		.loc 1 247 3 is_stmt 1 view .LVU25
 159              		.loc 1 247 6 is_stmt 0 view .LVU26
 160 0024 032D     		cmp	r5, #3
 161 0026 01D9     		bls	.L10
 248:Drivers/STM32L0xx_HAL_Driver/Src/stm32l0xx_hal.c ****   {
 249:Drivers/STM32L0xx_HAL_Driver/Src/stm32l0xx_hal.c ****     HAL_NVIC_SetPriority(SysTick_IRQn, TickPriority, 0U);
 250:Drivers/STM32L0xx_HAL_Driver/Src/stm32l0xx_hal.c ****     uwTickPrio = TickPriority;
 251:Drivers/STM32L0xx_HAL_Driver/Src/stm32l0xx_hal.c ****   }
 252:Drivers/STM32L0xx_HAL_Driver/Src/stm32l0xx_hal.c ****   else
 253:Drivers/STM32L0xx_HAL_Driver/Src/stm32l0xx_hal.c ****   {
 254:Drivers/STM32L0xx_HAL_Driver/Src/stm32l0xx_hal.c ****     return HAL_ERROR;
 162              		.loc 1 254 12 view .LVU27
 163 0028 0120     		movs	r0, #1
 164 002a 0AE0     		b	.L7
 165              	.L10:
 249:Drivers/STM32L0xx_HAL_Driver/Src/stm32l0xx_hal.c ****     uwTickPrio = TickPriority;
 166              		.loc 1 249 5 is_stmt 1 view .LVU28
 167 002c 0130     		adds	r0, r0, #1
 168 002e 0022     		movs	r2, #0
 169 0030 2900     		movs	r1, r5
 170 0032 4042     		rsbs	r0, r0, #0
 171 0034 FFF7FEFF 		bl	HAL_NVIC_SetPriority
 172              	.LVL6:
 250:Drivers/STM32L0xx_HAL_Driver/Src/stm32l0xx_hal.c ****   }
 173              		.loc 1 250 5 view .LVU29
 250:Drivers/STM32L0xx_HAL_Driver/Src/stm32l0xx_hal.c ****   }
 174              		.loc 1 250 16 is_stmt 0 view .LVU30
 175 0038 044B     		ldr	r3, .L11+8
 176 003a 1D60     		str	r5, [r3]
 255:Drivers/STM32L0xx_HAL_Driver/Src/stm32l0xx_hal.c ****   }
 256:Drivers/STM32L0xx_HAL_Driver/Src/stm32l0xx_hal.c **** 
 257:Drivers/STM32L0xx_HAL_Driver/Src/stm32l0xx_hal.c ****   /* Return function status */
 258:Drivers/STM32L0xx_HAL_Driver/Src/stm32l0xx_hal.c ****   return HAL_OK;
 177              		.loc 1 258 3 is_stmt 1 view .LVU31
 178              		.loc 1 258 10 is_stmt 0 view .LVU32
 179 003c 0020     		movs	r0, #0
 180 003e 00E0     		b	.L7
 181              	.L8:
 243:Drivers/STM32L0xx_HAL_Driver/Src/stm32l0xx_hal.c ****   }
 182              		.loc 1 243 12 view .LVU33
 183 0040 0120     		movs	r0, #1
 184              	.L7:
 259:Drivers/STM32L0xx_HAL_Driver/Src/stm32l0xx_hal.c **** }
 185              		.loc 1 259 1 view .LVU34
 186              		@ sp needed
 187              	.LVL7:
 188              		.loc 1 259 1 view .LVU35
ARM GAS  C:\Users\Tilen\AppData\Local\Temp\ccVPkpGt.s 			page 9


 189 0042 70BD     		pop	{r4, r5, r6, pc}
 190              	.L12:
 191              		.align	2
 192              	.L11:
 193 0044 00000000 		.word	SystemCoreClock
 194 0048 00000000 		.word	uwTickFreq
 195 004c 00000000 		.word	uwTickPrio
 196              		.cfi_endproc
 197              	.LFE51:
 199              		.section	.text.HAL_Init,"ax",%progbits
 200              		.align	1
 201              		.global	HAL_Init
 202              		.syntax unified
 203              		.code	16
 204              		.thumb_func
 206              	HAL_Init:
 207              	.LFB47:
 141:Drivers/STM32L0xx_HAL_Driver/Src/stm32l0xx_hal.c ****   HAL_StatusTypeDef  status = HAL_OK;
 208              		.loc 1 141 1 is_stmt 1 view -0
 209              		.cfi_startproc
 210              		@ args = 0, pretend = 0, frame = 0
 211              		@ frame_needed = 0, uses_anonymous_args = 0
 212 0000 10B5     		push	{r4, lr}
 213              	.LCFI2:
 214              		.cfi_def_cfa_offset 8
 215              		.cfi_offset 4, -8
 216              		.cfi_offset 14, -4
 142:Drivers/STM32L0xx_HAL_Driver/Src/stm32l0xx_hal.c **** 
 217              		.loc 1 142 3 view .LVU37
 218              	.LVL8:
 150:Drivers/STM32L0xx_HAL_Driver/Src/stm32l0xx_hal.c **** #endif /* PREREAD_ENABLE */
 219              		.loc 1 150 3 view .LVU38
 220 0002 084A     		ldr	r2, .L17
 221 0004 1368     		ldr	r3, [r2]
 222 0006 4021     		movs	r1, #64
 223 0008 0B43     		orrs	r3, r1
 224 000a 1360     		str	r3, [r2]
 158:Drivers/STM32L0xx_HAL_Driver/Src/stm32l0xx_hal.c ****   {
 225              		.loc 1 158 3 view .LVU39
 158:Drivers/STM32L0xx_HAL_Driver/Src/stm32l0xx_hal.c ****   {
 226              		.loc 1 158 7 is_stmt 0 view .LVU40
 227 000c 0020     		movs	r0, #0
 228 000e FFF7FEFF 		bl	HAL_InitTick
 229              	.LVL9:
 230 0012 041E     		subs	r4, r0, #0
 158:Drivers/STM32L0xx_HAL_Driver/Src/stm32l0xx_hal.c ****   {
 231              		.loc 1 158 6 discriminator 1 view .LVU41
 232 0014 02D0     		beq	.L16
 160:Drivers/STM32L0xx_HAL_Driver/Src/stm32l0xx_hal.c ****   }
 233              		.loc 1 160 12 view .LVU42
 234 0016 0124     		movs	r4, #1
 235              	.L14:
 236              	.LVL10:
 169:Drivers/STM32L0xx_HAL_Driver/Src/stm32l0xx_hal.c **** }
 237              		.loc 1 169 3 is_stmt 1 view .LVU43
 170:Drivers/STM32L0xx_HAL_Driver/Src/stm32l0xx_hal.c **** 
 238              		.loc 1 170 1 is_stmt 0 view .LVU44
ARM GAS  C:\Users\Tilen\AppData\Local\Temp\ccVPkpGt.s 			page 10


 239 0018 2000     		movs	r0, r4
 240              		@ sp needed
 241              	.LVL11:
 170:Drivers/STM32L0xx_HAL_Driver/Src/stm32l0xx_hal.c **** 
 242              		.loc 1 170 1 view .LVU45
 243 001a 10BD     		pop	{r4, pc}
 244              	.LVL12:
 245              	.L16:
 165:Drivers/STM32L0xx_HAL_Driver/Src/stm32l0xx_hal.c ****   }
 246              		.loc 1 165 5 is_stmt 1 view .LVU46
 247 001c FFF7FEFF 		bl	HAL_MspInit
 248              	.LVL13:
 249 0020 FAE7     		b	.L14
 250              	.L18:
 251 0022 C046     		.align	2
 252              	.L17:
 253 0024 00200240 		.word	1073881088
 254              		.cfi_endproc
 255              	.LFE47:
 257              		.section	.text.HAL_IncTick,"ax",%progbits
 258              		.align	1
 259              		.weak	HAL_IncTick
 260              		.syntax unified
 261              		.code	16
 262              		.thumb_func
 264              	HAL_IncTick:
 265              	.LFB52:
 260:Drivers/STM32L0xx_HAL_Driver/Src/stm32l0xx_hal.c **** 
 261:Drivers/STM32L0xx_HAL_Driver/Src/stm32l0xx_hal.c **** /**
 262:Drivers/STM32L0xx_HAL_Driver/Src/stm32l0xx_hal.c ****   * @}
 263:Drivers/STM32L0xx_HAL_Driver/Src/stm32l0xx_hal.c ****   */
 264:Drivers/STM32L0xx_HAL_Driver/Src/stm32l0xx_hal.c **** 
 265:Drivers/STM32L0xx_HAL_Driver/Src/stm32l0xx_hal.c **** /** @addtogroup HAL_Exported_Functions_Group2
 266:Drivers/STM32L0xx_HAL_Driver/Src/stm32l0xx_hal.c ****  *  @brief    HAL Control functions
 267:Drivers/STM32L0xx_HAL_Driver/Src/stm32l0xx_hal.c ****  *
 268:Drivers/STM32L0xx_HAL_Driver/Src/stm32l0xx_hal.c **** @verbatim
 269:Drivers/STM32L0xx_HAL_Driver/Src/stm32l0xx_hal.c ****  ===============================================================================
 270:Drivers/STM32L0xx_HAL_Driver/Src/stm32l0xx_hal.c ****                       ##### HAL Control functions #####
 271:Drivers/STM32L0xx_HAL_Driver/Src/stm32l0xx_hal.c ****  ===============================================================================
 272:Drivers/STM32L0xx_HAL_Driver/Src/stm32l0xx_hal.c ****     [..]  This section provides functions allowing to:
 273:Drivers/STM32L0xx_HAL_Driver/Src/stm32l0xx_hal.c ****       (+) Provide a tick value in millisecond
 274:Drivers/STM32L0xx_HAL_Driver/Src/stm32l0xx_hal.c ****       (+) Provide a blocking delay in millisecond
 275:Drivers/STM32L0xx_HAL_Driver/Src/stm32l0xx_hal.c ****       (+) Suspend the time base source interrupt
 276:Drivers/STM32L0xx_HAL_Driver/Src/stm32l0xx_hal.c ****       (+) Resume the time base source interrupt
 277:Drivers/STM32L0xx_HAL_Driver/Src/stm32l0xx_hal.c ****       (+) Get the HAL API driver version
 278:Drivers/STM32L0xx_HAL_Driver/Src/stm32l0xx_hal.c ****       (+) Get the device identifier
 279:Drivers/STM32L0xx_HAL_Driver/Src/stm32l0xx_hal.c ****       (+) Get the device revision identifier
 280:Drivers/STM32L0xx_HAL_Driver/Src/stm32l0xx_hal.c **** 
 281:Drivers/STM32L0xx_HAL_Driver/Src/stm32l0xx_hal.c **** @endverbatim
 282:Drivers/STM32L0xx_HAL_Driver/Src/stm32l0xx_hal.c ****   * @{
 283:Drivers/STM32L0xx_HAL_Driver/Src/stm32l0xx_hal.c ****   */
 284:Drivers/STM32L0xx_HAL_Driver/Src/stm32l0xx_hal.c **** 
 285:Drivers/STM32L0xx_HAL_Driver/Src/stm32l0xx_hal.c **** /**
 286:Drivers/STM32L0xx_HAL_Driver/Src/stm32l0xx_hal.c ****   * @brief This function is called to increment a global variable "uwTick"
 287:Drivers/STM32L0xx_HAL_Driver/Src/stm32l0xx_hal.c ****   *        used as application time base.
 288:Drivers/STM32L0xx_HAL_Driver/Src/stm32l0xx_hal.c ****   * @note In the default implementation, this variable is incremented each 1ms
 289:Drivers/STM32L0xx_HAL_Driver/Src/stm32l0xx_hal.c ****   *       in SysTick ISR.
ARM GAS  C:\Users\Tilen\AppData\Local\Temp\ccVPkpGt.s 			page 11


 290:Drivers/STM32L0xx_HAL_Driver/Src/stm32l0xx_hal.c ****  * @note This function is declared as __weak to be overwritten in case of other
 291:Drivers/STM32L0xx_HAL_Driver/Src/stm32l0xx_hal.c ****   *      implementations in user file.
 292:Drivers/STM32L0xx_HAL_Driver/Src/stm32l0xx_hal.c ****   * @retval None
 293:Drivers/STM32L0xx_HAL_Driver/Src/stm32l0xx_hal.c ****   */
 294:Drivers/STM32L0xx_HAL_Driver/Src/stm32l0xx_hal.c **** __weak void HAL_IncTick(void)
 295:Drivers/STM32L0xx_HAL_Driver/Src/stm32l0xx_hal.c **** {
 266              		.loc 1 295 1 view -0
 267              		.cfi_startproc
 268              		@ args = 0, pretend = 0, frame = 0
 269              		@ frame_needed = 0, uses_anonymous_args = 0
 270              		@ link register save eliminated.
 296:Drivers/STM32L0xx_HAL_Driver/Src/stm32l0xx_hal.c ****   uwTick += uwTickFreq;
 271              		.loc 1 296 3 view .LVU48
 272              		.loc 1 296 10 is_stmt 0 view .LVU49
 273 0000 034A     		ldr	r2, .L20
 274 0002 1168     		ldr	r1, [r2]
 275 0004 034B     		ldr	r3, .L20+4
 276 0006 1B78     		ldrb	r3, [r3]
 277 0008 5B18     		adds	r3, r3, r1
 278 000a 1360     		str	r3, [r2]
 297:Drivers/STM32L0xx_HAL_Driver/Src/stm32l0xx_hal.c **** }
 279              		.loc 1 297 1 view .LVU50
 280              		@ sp needed
 281 000c 7047     		bx	lr
 282              	.L21:
 283 000e C046     		.align	2
 284              	.L20:
 285 0010 00000000 		.word	uwTick
 286 0014 00000000 		.word	uwTickFreq
 287              		.cfi_endproc
 288              	.LFE52:
 290              		.section	.text.HAL_GetTick,"ax",%progbits
 291              		.align	1
 292              		.weak	HAL_GetTick
 293              		.syntax unified
 294              		.code	16
 295              		.thumb_func
 297              	HAL_GetTick:
 298              	.LFB53:
 298:Drivers/STM32L0xx_HAL_Driver/Src/stm32l0xx_hal.c **** 
 299:Drivers/STM32L0xx_HAL_Driver/Src/stm32l0xx_hal.c **** /**
 300:Drivers/STM32L0xx_HAL_Driver/Src/stm32l0xx_hal.c ****   * @brief Provides a tick value in millisecond.
 301:Drivers/STM32L0xx_HAL_Driver/Src/stm32l0xx_hal.c ****   * @note This function is declared as __weak to be overwritten in case of other
 302:Drivers/STM32L0xx_HAL_Driver/Src/stm32l0xx_hal.c ****   *       implementations in user file.
 303:Drivers/STM32L0xx_HAL_Driver/Src/stm32l0xx_hal.c ****   * @retval tick value
 304:Drivers/STM32L0xx_HAL_Driver/Src/stm32l0xx_hal.c ****   */
 305:Drivers/STM32L0xx_HAL_Driver/Src/stm32l0xx_hal.c **** __weak uint32_t HAL_GetTick(void)
 306:Drivers/STM32L0xx_HAL_Driver/Src/stm32l0xx_hal.c **** {
 299              		.loc 1 306 1 is_stmt 1 view -0
 300              		.cfi_startproc
 301              		@ args = 0, pretend = 0, frame = 0
 302              		@ frame_needed = 0, uses_anonymous_args = 0
 303              		@ link register save eliminated.
 307:Drivers/STM32L0xx_HAL_Driver/Src/stm32l0xx_hal.c ****   return uwTick;
 304              		.loc 1 307 3 view .LVU52
 305              		.loc 1 307 10 is_stmt 0 view .LVU53
 306 0000 014B     		ldr	r3, .L23
ARM GAS  C:\Users\Tilen\AppData\Local\Temp\ccVPkpGt.s 			page 12


 307 0002 1868     		ldr	r0, [r3]
 308:Drivers/STM32L0xx_HAL_Driver/Src/stm32l0xx_hal.c **** }
 308              		.loc 1 308 1 view .LVU54
 309              		@ sp needed
 310 0004 7047     		bx	lr
 311              	.L24:
 312 0006 C046     		.align	2
 313              	.L23:
 314 0008 00000000 		.word	uwTick
 315              		.cfi_endproc
 316              	.LFE53:
 318              		.section	.text.HAL_GetTickPrio,"ax",%progbits
 319              		.align	1
 320              		.global	HAL_GetTickPrio
 321              		.syntax unified
 322              		.code	16
 323              		.thumb_func
 325              	HAL_GetTickPrio:
 326              	.LFB54:
 309:Drivers/STM32L0xx_HAL_Driver/Src/stm32l0xx_hal.c **** 
 310:Drivers/STM32L0xx_HAL_Driver/Src/stm32l0xx_hal.c **** /**
 311:Drivers/STM32L0xx_HAL_Driver/Src/stm32l0xx_hal.c ****   * @brief This function returns a tick priority.
 312:Drivers/STM32L0xx_HAL_Driver/Src/stm32l0xx_hal.c ****   * @retval tick priority
 313:Drivers/STM32L0xx_HAL_Driver/Src/stm32l0xx_hal.c ****   */
 314:Drivers/STM32L0xx_HAL_Driver/Src/stm32l0xx_hal.c **** uint32_t HAL_GetTickPrio(void)
 315:Drivers/STM32L0xx_HAL_Driver/Src/stm32l0xx_hal.c **** {
 327              		.loc 1 315 1 is_stmt 1 view -0
 328              		.cfi_startproc
 329              		@ args = 0, pretend = 0, frame = 0
 330              		@ frame_needed = 0, uses_anonymous_args = 0
 331              		@ link register save eliminated.
 316:Drivers/STM32L0xx_HAL_Driver/Src/stm32l0xx_hal.c ****   return uwTickPrio;
 332              		.loc 1 316 3 view .LVU56
 333              		.loc 1 316 10 is_stmt 0 view .LVU57
 334 0000 014B     		ldr	r3, .L26
 335              		.loc 1 316 10 discriminator 1 view .LVU58
 336 0002 1868     		ldr	r0, [r3]
 317:Drivers/STM32L0xx_HAL_Driver/Src/stm32l0xx_hal.c **** }
 337              		.loc 1 317 1 view .LVU59
 338              		@ sp needed
 339 0004 7047     		bx	lr
 340              	.L27:
 341 0006 C046     		.align	2
 342              	.L26:
 343 0008 00000000 		.word	uwTickPrio
 344              		.cfi_endproc
 345              	.LFE54:
 347              		.section	.text.HAL_SetTickFreq,"ax",%progbits
 348              		.align	1
 349              		.global	HAL_SetTickFreq
 350              		.syntax unified
 351              		.code	16
 352              		.thumb_func
 354              	HAL_SetTickFreq:
 355              	.LVL14:
 356              	.LFB55:
 318:Drivers/STM32L0xx_HAL_Driver/Src/stm32l0xx_hal.c **** 
ARM GAS  C:\Users\Tilen\AppData\Local\Temp\ccVPkpGt.s 			page 13


 319:Drivers/STM32L0xx_HAL_Driver/Src/stm32l0xx_hal.c **** /**
 320:Drivers/STM32L0xx_HAL_Driver/Src/stm32l0xx_hal.c ****   * @brief Set new tick Freq.
 321:Drivers/STM32L0xx_HAL_Driver/Src/stm32l0xx_hal.c ****   * @retval Status
 322:Drivers/STM32L0xx_HAL_Driver/Src/stm32l0xx_hal.c ****   */
 323:Drivers/STM32L0xx_HAL_Driver/Src/stm32l0xx_hal.c **** HAL_StatusTypeDef HAL_SetTickFreq(HAL_TickFreqTypeDef Freq)
 324:Drivers/STM32L0xx_HAL_Driver/Src/stm32l0xx_hal.c **** {
 357              		.loc 1 324 1 is_stmt 1 view -0
 358              		.cfi_startproc
 359              		@ args = 0, pretend = 0, frame = 0
 360              		@ frame_needed = 0, uses_anonymous_args = 0
 361              		.loc 1 324 1 is_stmt 0 view .LVU61
 362 0000 10B5     		push	{r4, lr}
 363              	.LCFI3:
 364              		.cfi_def_cfa_offset 8
 365              		.cfi_offset 4, -8
 366              		.cfi_offset 14, -4
 325:Drivers/STM32L0xx_HAL_Driver/Src/stm32l0xx_hal.c ****   HAL_StatusTypeDef status  = HAL_OK;
 367              		.loc 1 325 3 is_stmt 1 view .LVU62
 368              	.LVL15:
 326:Drivers/STM32L0xx_HAL_Driver/Src/stm32l0xx_hal.c ****   HAL_TickFreqTypeDef prevTickFreq;
 369              		.loc 1 326 3 view .LVU63
 327:Drivers/STM32L0xx_HAL_Driver/Src/stm32l0xx_hal.c **** 
 328:Drivers/STM32L0xx_HAL_Driver/Src/stm32l0xx_hal.c ****   assert_param(IS_TICKFREQ(Freq));
 370              		.loc 1 328 3 view .LVU64
 329:Drivers/STM32L0xx_HAL_Driver/Src/stm32l0xx_hal.c **** 
 330:Drivers/STM32L0xx_HAL_Driver/Src/stm32l0xx_hal.c ****   if (uwTickFreq != Freq)
 371              		.loc 1 330 3 view .LVU65
 372              		.loc 1 330 18 is_stmt 0 view .LVU66
 373 0002 084B     		ldr	r3, .L32
 374 0004 1C78     		ldrb	r4, [r3]
 375              		.loc 1 330 6 view .LVU67
 376 0006 8442     		cmp	r4, r0
 377 0008 01D1     		bne	.L31
 325:Drivers/STM32L0xx_HAL_Driver/Src/stm32l0xx_hal.c ****   HAL_TickFreqTypeDef prevTickFreq;
 378              		.loc 1 325 21 view .LVU68
 379 000a 0020     		movs	r0, #0
 380              	.LVL16:
 381              	.L29:
 331:Drivers/STM32L0xx_HAL_Driver/Src/stm32l0xx_hal.c ****   {
 332:Drivers/STM32L0xx_HAL_Driver/Src/stm32l0xx_hal.c ****     /* Back up uwTickFreq frequency */
 333:Drivers/STM32L0xx_HAL_Driver/Src/stm32l0xx_hal.c ****     prevTickFreq = uwTickFreq;
 334:Drivers/STM32L0xx_HAL_Driver/Src/stm32l0xx_hal.c **** 
 335:Drivers/STM32L0xx_HAL_Driver/Src/stm32l0xx_hal.c ****     /* Update uwTickFreq global variable used by HAL_InitTick() */
 336:Drivers/STM32L0xx_HAL_Driver/Src/stm32l0xx_hal.c ****     uwTickFreq = Freq;
 337:Drivers/STM32L0xx_HAL_Driver/Src/stm32l0xx_hal.c **** 
 338:Drivers/STM32L0xx_HAL_Driver/Src/stm32l0xx_hal.c ****     /* Apply the new tick Freq  */
 339:Drivers/STM32L0xx_HAL_Driver/Src/stm32l0xx_hal.c ****     status = HAL_InitTick(uwTickPrio);
 340:Drivers/STM32L0xx_HAL_Driver/Src/stm32l0xx_hal.c **** 
 341:Drivers/STM32L0xx_HAL_Driver/Src/stm32l0xx_hal.c ****     if (status != HAL_OK)
 342:Drivers/STM32L0xx_HAL_Driver/Src/stm32l0xx_hal.c ****     {
 343:Drivers/STM32L0xx_HAL_Driver/Src/stm32l0xx_hal.c ****       /* Restore previous tick frequency */
 344:Drivers/STM32L0xx_HAL_Driver/Src/stm32l0xx_hal.c ****       uwTickFreq = prevTickFreq;
 345:Drivers/STM32L0xx_HAL_Driver/Src/stm32l0xx_hal.c ****     }
 346:Drivers/STM32L0xx_HAL_Driver/Src/stm32l0xx_hal.c ****   }
 347:Drivers/STM32L0xx_HAL_Driver/Src/stm32l0xx_hal.c **** 
 348:Drivers/STM32L0xx_HAL_Driver/Src/stm32l0xx_hal.c ****   return status;
 382              		.loc 1 348 3 is_stmt 1 view .LVU69
ARM GAS  C:\Users\Tilen\AppData\Local\Temp\ccVPkpGt.s 			page 14


 349:Drivers/STM32L0xx_HAL_Driver/Src/stm32l0xx_hal.c **** }
 383              		.loc 1 349 1 is_stmt 0 view .LVU70
 384              		@ sp needed
 385 000c 10BD     		pop	{r4, pc}
 386              	.LVL17:
 387              	.L31:
 333:Drivers/STM32L0xx_HAL_Driver/Src/stm32l0xx_hal.c **** 
 388              		.loc 1 333 5 is_stmt 1 view .LVU71
 336:Drivers/STM32L0xx_HAL_Driver/Src/stm32l0xx_hal.c **** 
 389              		.loc 1 336 5 view .LVU72
 336:Drivers/STM32L0xx_HAL_Driver/Src/stm32l0xx_hal.c **** 
 390              		.loc 1 336 16 is_stmt 0 view .LVU73
 391 000e 1870     		strb	r0, [r3]
 339:Drivers/STM32L0xx_HAL_Driver/Src/stm32l0xx_hal.c **** 
 392              		.loc 1 339 5 is_stmt 1 view .LVU74
 339:Drivers/STM32L0xx_HAL_Driver/Src/stm32l0xx_hal.c **** 
 393              		.loc 1 339 14 is_stmt 0 view .LVU75
 394 0010 054B     		ldr	r3, .L32+4
 395 0012 1868     		ldr	r0, [r3]
 396              	.LVL18:
 339:Drivers/STM32L0xx_HAL_Driver/Src/stm32l0xx_hal.c **** 
 397              		.loc 1 339 14 view .LVU76
 398 0014 FFF7FEFF 		bl	HAL_InitTick
 399              	.LVL19:
 341:Drivers/STM32L0xx_HAL_Driver/Src/stm32l0xx_hal.c ****     {
 400              		.loc 1 341 5 is_stmt 1 view .LVU77
 341:Drivers/STM32L0xx_HAL_Driver/Src/stm32l0xx_hal.c ****     {
 401              		.loc 1 341 8 is_stmt 0 view .LVU78
 402 0018 0028     		cmp	r0, #0
 403 001a F7D0     		beq	.L29
 344:Drivers/STM32L0xx_HAL_Driver/Src/stm32l0xx_hal.c ****     }
 404              		.loc 1 344 7 is_stmt 1 view .LVU79
 344:Drivers/STM32L0xx_HAL_Driver/Src/stm32l0xx_hal.c ****     }
 405              		.loc 1 344 18 is_stmt 0 view .LVU80
 406 001c 014B     		ldr	r3, .L32
 407 001e 1C70     		strb	r4, [r3]
 408 0020 F4E7     		b	.L29
 409              	.L33:
 410 0022 C046     		.align	2
 411              	.L32:
 412 0024 00000000 		.word	uwTickFreq
 413 0028 00000000 		.word	uwTickPrio
 414              		.cfi_endproc
 415              	.LFE55:
 417              		.section	.text.HAL_GetTickFreq,"ax",%progbits
 418              		.align	1
 419              		.global	HAL_GetTickFreq
 420              		.syntax unified
 421              		.code	16
 422              		.thumb_func
 424              	HAL_GetTickFreq:
 425              	.LFB56:
 350:Drivers/STM32L0xx_HAL_Driver/Src/stm32l0xx_hal.c **** 
 351:Drivers/STM32L0xx_HAL_Driver/Src/stm32l0xx_hal.c **** /**
 352:Drivers/STM32L0xx_HAL_Driver/Src/stm32l0xx_hal.c ****   * @brief Return tick frequency.
 353:Drivers/STM32L0xx_HAL_Driver/Src/stm32l0xx_hal.c ****   * @retval Tick frequency.
 354:Drivers/STM32L0xx_HAL_Driver/Src/stm32l0xx_hal.c ****   *         Value of @ref HAL_TickFreqTypeDef.
ARM GAS  C:\Users\Tilen\AppData\Local\Temp\ccVPkpGt.s 			page 15


 355:Drivers/STM32L0xx_HAL_Driver/Src/stm32l0xx_hal.c ****   */
 356:Drivers/STM32L0xx_HAL_Driver/Src/stm32l0xx_hal.c **** HAL_TickFreqTypeDef HAL_GetTickFreq(void)
 357:Drivers/STM32L0xx_HAL_Driver/Src/stm32l0xx_hal.c **** {
 426              		.loc 1 357 1 is_stmt 1 view -0
 427              		.cfi_startproc
 428              		@ args = 0, pretend = 0, frame = 0
 429              		@ frame_needed = 0, uses_anonymous_args = 0
 430              		@ link register save eliminated.
 358:Drivers/STM32L0xx_HAL_Driver/Src/stm32l0xx_hal.c ****   return uwTickFreq;
 431              		.loc 1 358 3 view .LVU82
 432              		.loc 1 358 10 is_stmt 0 view .LVU83
 433 0000 014B     		ldr	r3, .L35
 434              		.loc 1 358 10 discriminator 1 view .LVU84
 435 0002 1878     		ldrb	r0, [r3]
 359:Drivers/STM32L0xx_HAL_Driver/Src/stm32l0xx_hal.c **** }
 436              		.loc 1 359 1 view .LVU85
 437              		@ sp needed
 438 0004 7047     		bx	lr
 439              	.L36:
 440 0006 C046     		.align	2
 441              	.L35:
 442 0008 00000000 		.word	uwTickFreq
 443              		.cfi_endproc
 444              	.LFE56:
 446              		.section	.text.HAL_Delay,"ax",%progbits
 447              		.align	1
 448              		.weak	HAL_Delay
 449              		.syntax unified
 450              		.code	16
 451              		.thumb_func
 453              	HAL_Delay:
 454              	.LVL20:
 455              	.LFB57:
 360:Drivers/STM32L0xx_HAL_Driver/Src/stm32l0xx_hal.c **** 
 361:Drivers/STM32L0xx_HAL_Driver/Src/stm32l0xx_hal.c **** /**
 362:Drivers/STM32L0xx_HAL_Driver/Src/stm32l0xx_hal.c ****   * @brief This function provides minimum delay (in milliseconds) based
 363:Drivers/STM32L0xx_HAL_Driver/Src/stm32l0xx_hal.c ****   *        on variable incremented.
 364:Drivers/STM32L0xx_HAL_Driver/Src/stm32l0xx_hal.c ****   * @note In the default implementation , SysTick timer is the source of time base.
 365:Drivers/STM32L0xx_HAL_Driver/Src/stm32l0xx_hal.c ****   *       It is used to generate interrupts at regular time intervals where uwTick
 366:Drivers/STM32L0xx_HAL_Driver/Src/stm32l0xx_hal.c ****   *       is incremented.
 367:Drivers/STM32L0xx_HAL_Driver/Src/stm32l0xx_hal.c ****   * @note This function is declared as __weak to be overwritten in case of other
 368:Drivers/STM32L0xx_HAL_Driver/Src/stm32l0xx_hal.c ****   *       implementations in user file.
 369:Drivers/STM32L0xx_HAL_Driver/Src/stm32l0xx_hal.c ****   * @param Delay specifies the delay time length, in milliseconds.
 370:Drivers/STM32L0xx_HAL_Driver/Src/stm32l0xx_hal.c ****   * @retval None
 371:Drivers/STM32L0xx_HAL_Driver/Src/stm32l0xx_hal.c ****   */
 372:Drivers/STM32L0xx_HAL_Driver/Src/stm32l0xx_hal.c **** __weak void HAL_Delay(uint32_t Delay)
 373:Drivers/STM32L0xx_HAL_Driver/Src/stm32l0xx_hal.c **** {
 456              		.loc 1 373 1 is_stmt 1 view -0
 457              		.cfi_startproc
 458              		@ args = 0, pretend = 0, frame = 0
 459              		@ frame_needed = 0, uses_anonymous_args = 0
 460              		.loc 1 373 1 is_stmt 0 view .LVU87
 461 0000 70B5     		push	{r4, r5, r6, lr}
 462              	.LCFI4:
 463              		.cfi_def_cfa_offset 16
 464              		.cfi_offset 4, -16
 465              		.cfi_offset 5, -12
ARM GAS  C:\Users\Tilen\AppData\Local\Temp\ccVPkpGt.s 			page 16


 466              		.cfi_offset 6, -8
 467              		.cfi_offset 14, -4
 468 0002 0400     		movs	r4, r0
 374:Drivers/STM32L0xx_HAL_Driver/Src/stm32l0xx_hal.c ****   uint32_t tickstart = HAL_GetTick();
 469              		.loc 1 374 3 is_stmt 1 view .LVU88
 470              		.loc 1 374 24 is_stmt 0 view .LVU89
 471 0004 FFF7FEFF 		bl	HAL_GetTick
 472              	.LVL21:
 473              		.loc 1 374 24 view .LVU90
 474 0008 0500     		movs	r5, r0
 475              	.LVL22:
 375:Drivers/STM32L0xx_HAL_Driver/Src/stm32l0xx_hal.c ****   uint32_t wait = Delay;
 476              		.loc 1 375 3 is_stmt 1 view .LVU91
 376:Drivers/STM32L0xx_HAL_Driver/Src/stm32l0xx_hal.c **** 
 377:Drivers/STM32L0xx_HAL_Driver/Src/stm32l0xx_hal.c ****   /* Add a freq to guarantee minimum wait */
 378:Drivers/STM32L0xx_HAL_Driver/Src/stm32l0xx_hal.c ****   if (wait < HAL_MAX_DELAY)
 477              		.loc 1 378 3 view .LVU92
 478              		.loc 1 378 6 is_stmt 0 view .LVU93
 479 000a 631C     		adds	r3, r4, #1
 480 000c 02D0     		beq	.L39
 379:Drivers/STM32L0xx_HAL_Driver/Src/stm32l0xx_hal.c ****   {
 380:Drivers/STM32L0xx_HAL_Driver/Src/stm32l0xx_hal.c ****     wait += (uint32_t)(uwTickFreq);
 481              		.loc 1 380 5 is_stmt 1 view .LVU94
 482              		.loc 1 380 13 is_stmt 0 view .LVU95
 483 000e 044B     		ldr	r3, .L41
 484 0010 1B78     		ldrb	r3, [r3]
 485              		.loc 1 380 10 view .LVU96
 486 0012 E418     		adds	r4, r4, r3
 487              	.LVL23:
 488              	.L39:
 381:Drivers/STM32L0xx_HAL_Driver/Src/stm32l0xx_hal.c ****   }
 382:Drivers/STM32L0xx_HAL_Driver/Src/stm32l0xx_hal.c **** 
 383:Drivers/STM32L0xx_HAL_Driver/Src/stm32l0xx_hal.c ****   while((HAL_GetTick() - tickstart) < wait)
 384:Drivers/STM32L0xx_HAL_Driver/Src/stm32l0xx_hal.c ****   {
 385:Drivers/STM32L0xx_HAL_Driver/Src/stm32l0xx_hal.c ****   }
 489              		.loc 1 385 3 is_stmt 1 view .LVU97
 383:Drivers/STM32L0xx_HAL_Driver/Src/stm32l0xx_hal.c ****   {
 490              		.loc 1 383 37 discriminator 2 view .LVU98
 383:Drivers/STM32L0xx_HAL_Driver/Src/stm32l0xx_hal.c ****   {
 491              		.loc 1 383 10 is_stmt 0 discriminator 2 view .LVU99
 492 0014 FFF7FEFF 		bl	HAL_GetTick
 493              	.LVL24:
 383:Drivers/STM32L0xx_HAL_Driver/Src/stm32l0xx_hal.c ****   {
 494              		.loc 1 383 24 discriminator 2 view .LVU100
 495 0018 401B     		subs	r0, r0, r5
 383:Drivers/STM32L0xx_HAL_Driver/Src/stm32l0xx_hal.c ****   {
 496              		.loc 1 383 37 discriminator 2 view .LVU101
 497 001a A042     		cmp	r0, r4
 498 001c FAD3     		bcc	.L39
 386:Drivers/STM32L0xx_HAL_Driver/Src/stm32l0xx_hal.c **** }
 499              		.loc 1 386 1 view .LVU102
 500              		@ sp needed
 501              	.LVL25:
 502              	.LVL26:
 503              		.loc 1 386 1 view .LVU103
 504 001e 70BD     		pop	{r4, r5, r6, pc}
 505              	.L42:
ARM GAS  C:\Users\Tilen\AppData\Local\Temp\ccVPkpGt.s 			page 17


 506              		.align	2
 507              	.L41:
 508 0020 00000000 		.word	uwTickFreq
 509              		.cfi_endproc
 510              	.LFE57:
 512              		.section	.text.HAL_SuspendTick,"ax",%progbits
 513              		.align	1
 514              		.weak	HAL_SuspendTick
 515              		.syntax unified
 516              		.code	16
 517              		.thumb_func
 519              	HAL_SuspendTick:
 520              	.LFB58:
 387:Drivers/STM32L0xx_HAL_Driver/Src/stm32l0xx_hal.c **** 
 388:Drivers/STM32L0xx_HAL_Driver/Src/stm32l0xx_hal.c **** /**
 389:Drivers/STM32L0xx_HAL_Driver/Src/stm32l0xx_hal.c ****   * @brief Suspends the Tick increment.
 390:Drivers/STM32L0xx_HAL_Driver/Src/stm32l0xx_hal.c ****   * @note In the default implementation , SysTick timer is the source of time base. It is
 391:Drivers/STM32L0xx_HAL_Driver/Src/stm32l0xx_hal.c ****   *       used to generate interrupts at regular time intervals. Once HAL_SuspendTick()
 392:Drivers/STM32L0xx_HAL_Driver/Src/stm32l0xx_hal.c ****   *       is called, the SysTick interrupt will be disabled and so Tick increment
 393:Drivers/STM32L0xx_HAL_Driver/Src/stm32l0xx_hal.c ****   *       is suspended.
 394:Drivers/STM32L0xx_HAL_Driver/Src/stm32l0xx_hal.c ****   * @note This function is declared as __weak to be overwritten in case of other
 395:Drivers/STM32L0xx_HAL_Driver/Src/stm32l0xx_hal.c ****   *       implementations in user file.
 396:Drivers/STM32L0xx_HAL_Driver/Src/stm32l0xx_hal.c ****   * @retval None
 397:Drivers/STM32L0xx_HAL_Driver/Src/stm32l0xx_hal.c ****   */
 398:Drivers/STM32L0xx_HAL_Driver/Src/stm32l0xx_hal.c **** __weak void HAL_SuspendTick(void)
 399:Drivers/STM32L0xx_HAL_Driver/Src/stm32l0xx_hal.c **** {
 521              		.loc 1 399 1 is_stmt 1 view -0
 522              		.cfi_startproc
 523              		@ args = 0, pretend = 0, frame = 0
 524              		@ frame_needed = 0, uses_anonymous_args = 0
 525              		@ link register save eliminated.
 400:Drivers/STM32L0xx_HAL_Driver/Src/stm32l0xx_hal.c ****   /* Disable SysTick Interrupt */
 401:Drivers/STM32L0xx_HAL_Driver/Src/stm32l0xx_hal.c ****   SysTick->CTRL &= ~SysTick_CTRL_TICKINT_Msk;
 526              		.loc 1 401 3 view .LVU105
 527              		.loc 1 401 10 is_stmt 0 view .LVU106
 528 0000 024A     		ldr	r2, .L44
 529 0002 1368     		ldr	r3, [r2]
 530              		.loc 1 401 17 view .LVU107
 531 0004 0221     		movs	r1, #2
 532 0006 8B43     		bics	r3, r1
 533 0008 1360     		str	r3, [r2]
 402:Drivers/STM32L0xx_HAL_Driver/Src/stm32l0xx_hal.c **** }
 534              		.loc 1 402 1 view .LVU108
 535              		@ sp needed
 536 000a 7047     		bx	lr
 537              	.L45:
 538              		.align	2
 539              	.L44:
 540 000c 10E000E0 		.word	-536813552
 541              		.cfi_endproc
 542              	.LFE58:
 544              		.section	.text.HAL_ResumeTick,"ax",%progbits
 545              		.align	1
 546              		.weak	HAL_ResumeTick
 547              		.syntax unified
 548              		.code	16
 549              		.thumb_func
ARM GAS  C:\Users\Tilen\AppData\Local\Temp\ccVPkpGt.s 			page 18


 551              	HAL_ResumeTick:
 552              	.LFB59:
 403:Drivers/STM32L0xx_HAL_Driver/Src/stm32l0xx_hal.c **** 
 404:Drivers/STM32L0xx_HAL_Driver/Src/stm32l0xx_hal.c **** /**
 405:Drivers/STM32L0xx_HAL_Driver/Src/stm32l0xx_hal.c ****   * @brief Resumes the Tick increment.
 406:Drivers/STM32L0xx_HAL_Driver/Src/stm32l0xx_hal.c ****   * @note In the default implementation , SysTick timer is the source of time base. It is
 407:Drivers/STM32L0xx_HAL_Driver/Src/stm32l0xx_hal.c ****   *       used to generate interrupts at regular time intervals. Once HAL_ResumeTick()
 408:Drivers/STM32L0xx_HAL_Driver/Src/stm32l0xx_hal.c ****   *       is called, the SysTick interrupt will be enabled and so Tick increment
 409:Drivers/STM32L0xx_HAL_Driver/Src/stm32l0xx_hal.c ****   *       is resumed.
 410:Drivers/STM32L0xx_HAL_Driver/Src/stm32l0xx_hal.c ****   * @note This function is declared as __weak to be overwritten in case of other
 411:Drivers/STM32L0xx_HAL_Driver/Src/stm32l0xx_hal.c ****   *       implementations in user file.
 412:Drivers/STM32L0xx_HAL_Driver/Src/stm32l0xx_hal.c ****   * @retval None
 413:Drivers/STM32L0xx_HAL_Driver/Src/stm32l0xx_hal.c ****   */
 414:Drivers/STM32L0xx_HAL_Driver/Src/stm32l0xx_hal.c **** __weak void HAL_ResumeTick(void)
 415:Drivers/STM32L0xx_HAL_Driver/Src/stm32l0xx_hal.c **** {
 553              		.loc 1 415 1 is_stmt 1 view -0
 554              		.cfi_startproc
 555              		@ args = 0, pretend = 0, frame = 0
 556              		@ frame_needed = 0, uses_anonymous_args = 0
 557              		@ link register save eliminated.
 416:Drivers/STM32L0xx_HAL_Driver/Src/stm32l0xx_hal.c ****   /* Enable SysTick Interrupt */
 417:Drivers/STM32L0xx_HAL_Driver/Src/stm32l0xx_hal.c ****   SysTick->CTRL  |= SysTick_CTRL_TICKINT_Msk;
 558              		.loc 1 417 3 view .LVU110
 559              		.loc 1 417 10 is_stmt 0 view .LVU111
 560 0000 024A     		ldr	r2, .L47
 561 0002 1368     		ldr	r3, [r2]
 562              		.loc 1 417 18 view .LVU112
 563 0004 0221     		movs	r1, #2
 564 0006 0B43     		orrs	r3, r1
 565 0008 1360     		str	r3, [r2]
 418:Drivers/STM32L0xx_HAL_Driver/Src/stm32l0xx_hal.c **** }
 566              		.loc 1 418 1 view .LVU113
 567              		@ sp needed
 568 000a 7047     		bx	lr
 569              	.L48:
 570              		.align	2
 571              	.L47:
 572 000c 10E000E0 		.word	-536813552
 573              		.cfi_endproc
 574              	.LFE59:
 576              		.section	.text.HAL_GetHalVersion,"ax",%progbits
 577              		.align	1
 578              		.global	HAL_GetHalVersion
 579              		.syntax unified
 580              		.code	16
 581              		.thumb_func
 583              	HAL_GetHalVersion:
 584              	.LFB60:
 419:Drivers/STM32L0xx_HAL_Driver/Src/stm32l0xx_hal.c **** 
 420:Drivers/STM32L0xx_HAL_Driver/Src/stm32l0xx_hal.c **** /**
 421:Drivers/STM32L0xx_HAL_Driver/Src/stm32l0xx_hal.c ****   * @brief Returns the HAL revision
 422:Drivers/STM32L0xx_HAL_Driver/Src/stm32l0xx_hal.c ****   * @retval version: 0xXYZR (8bits for each decimal, R for RC)
 423:Drivers/STM32L0xx_HAL_Driver/Src/stm32l0xx_hal.c ****   */
 424:Drivers/STM32L0xx_HAL_Driver/Src/stm32l0xx_hal.c **** uint32_t HAL_GetHalVersion(void)
 425:Drivers/STM32L0xx_HAL_Driver/Src/stm32l0xx_hal.c **** {
 585              		.loc 1 425 1 is_stmt 1 view -0
 586              		.cfi_startproc
ARM GAS  C:\Users\Tilen\AppData\Local\Temp\ccVPkpGt.s 			page 19


 587              		@ args = 0, pretend = 0, frame = 0
 588              		@ frame_needed = 0, uses_anonymous_args = 0
 589              		@ link register save eliminated.
 426:Drivers/STM32L0xx_HAL_Driver/Src/stm32l0xx_hal.c ****   return __STM32L0xx_HAL_VERSION;
 590              		.loc 1 426 3 view .LVU115
 427:Drivers/STM32L0xx_HAL_Driver/Src/stm32l0xx_hal.c **** }
 591              		.loc 1 427 1 is_stmt 0 view .LVU116
 592 0000 0048     		ldr	r0, .L50
 593              		@ sp needed
 594 0002 7047     		bx	lr
 595              	.L51:
 596              		.align	2
 597              	.L50:
 598 0004 00070A01 		.word	17434368
 599              		.cfi_endproc
 600              	.LFE60:
 602              		.section	.text.HAL_GetREVID,"ax",%progbits
 603              		.align	1
 604              		.global	HAL_GetREVID
 605              		.syntax unified
 606              		.code	16
 607              		.thumb_func
 609              	HAL_GetREVID:
 610              	.LFB61:
 428:Drivers/STM32L0xx_HAL_Driver/Src/stm32l0xx_hal.c **** 
 429:Drivers/STM32L0xx_HAL_Driver/Src/stm32l0xx_hal.c **** /**
 430:Drivers/STM32L0xx_HAL_Driver/Src/stm32l0xx_hal.c ****   * @brief Returns the device revision identifier.
 431:Drivers/STM32L0xx_HAL_Driver/Src/stm32l0xx_hal.c ****   * @retval Device revision identifier
 432:Drivers/STM32L0xx_HAL_Driver/Src/stm32l0xx_hal.c ****   */
 433:Drivers/STM32L0xx_HAL_Driver/Src/stm32l0xx_hal.c **** uint32_t HAL_GetREVID(void)
 434:Drivers/STM32L0xx_HAL_Driver/Src/stm32l0xx_hal.c **** {
 611              		.loc 1 434 1 is_stmt 1 view -0
 612              		.cfi_startproc
 613              		@ args = 0, pretend = 0, frame = 0
 614              		@ frame_needed = 0, uses_anonymous_args = 0
 615              		@ link register save eliminated.
 435:Drivers/STM32L0xx_HAL_Driver/Src/stm32l0xx_hal.c ****   return((DBGMCU->IDCODE) >> 16U);
 616              		.loc 1 435 3 view .LVU118
 617              		.loc 1 435 17 is_stmt 0 view .LVU119
 618 0000 014B     		ldr	r3, .L53
 619 0002 1868     		ldr	r0, [r3]
 620              		.loc 1 435 27 view .LVU120
 621 0004 000C     		lsrs	r0, r0, #16
 436:Drivers/STM32L0xx_HAL_Driver/Src/stm32l0xx_hal.c **** }
 622              		.loc 1 436 1 view .LVU121
 623              		@ sp needed
 624 0006 7047     		bx	lr
 625              	.L54:
 626              		.align	2
 627              	.L53:
 628 0008 00580140 		.word	1073829888
 629              		.cfi_endproc
 630              	.LFE61:
 632              		.section	.text.HAL_GetDEVID,"ax",%progbits
 633              		.align	1
 634              		.global	HAL_GetDEVID
 635              		.syntax unified
ARM GAS  C:\Users\Tilen\AppData\Local\Temp\ccVPkpGt.s 			page 20


 636              		.code	16
 637              		.thumb_func
 639              	HAL_GetDEVID:
 640              	.LFB62:
 437:Drivers/STM32L0xx_HAL_Driver/Src/stm32l0xx_hal.c **** 
 438:Drivers/STM32L0xx_HAL_Driver/Src/stm32l0xx_hal.c **** /**
 439:Drivers/STM32L0xx_HAL_Driver/Src/stm32l0xx_hal.c ****   * @brief  Returns the device identifier.
 440:Drivers/STM32L0xx_HAL_Driver/Src/stm32l0xx_hal.c ****   * @retval Device identifier
 441:Drivers/STM32L0xx_HAL_Driver/Src/stm32l0xx_hal.c ****   */
 442:Drivers/STM32L0xx_HAL_Driver/Src/stm32l0xx_hal.c **** uint32_t HAL_GetDEVID(void)
 443:Drivers/STM32L0xx_HAL_Driver/Src/stm32l0xx_hal.c **** {
 641              		.loc 1 443 1 is_stmt 1 view -0
 642              		.cfi_startproc
 643              		@ args = 0, pretend = 0, frame = 0
 644              		@ frame_needed = 0, uses_anonymous_args = 0
 645              		@ link register save eliminated.
 444:Drivers/STM32L0xx_HAL_Driver/Src/stm32l0xx_hal.c ****    return((DBGMCU->IDCODE) & IDCODE_DEVID_MASK);
 646              		.loc 1 444 4 view .LVU123
 647              		.loc 1 444 18 is_stmt 0 view .LVU124
 648 0000 024B     		ldr	r3, .L56
 649 0002 1868     		ldr	r0, [r3]
 650              		.loc 1 444 28 view .LVU125
 651 0004 0005     		lsls	r0, r0, #20
 652 0006 000D     		lsrs	r0, r0, #20
 445:Drivers/STM32L0xx_HAL_Driver/Src/stm32l0xx_hal.c **** }
 653              		.loc 1 445 1 view .LVU126
 654              		@ sp needed
 655 0008 7047     		bx	lr
 656              	.L57:
 657 000a C046     		.align	2
 658              	.L56:
 659 000c 00580140 		.word	1073829888
 660              		.cfi_endproc
 661              	.LFE62:
 663              		.section	.text.HAL_GetUIDw0,"ax",%progbits
 664              		.align	1
 665              		.global	HAL_GetUIDw0
 666              		.syntax unified
 667              		.code	16
 668              		.thumb_func
 670              	HAL_GetUIDw0:
 671              	.LFB63:
 446:Drivers/STM32L0xx_HAL_Driver/Src/stm32l0xx_hal.c **** 
 447:Drivers/STM32L0xx_HAL_Driver/Src/stm32l0xx_hal.c **** /**
 448:Drivers/STM32L0xx_HAL_Driver/Src/stm32l0xx_hal.c ****   * @brief  Returns the first word of the unique device identifier (UID based on 96 bits)
 449:Drivers/STM32L0xx_HAL_Driver/Src/stm32l0xx_hal.c ****   * @retval Device identifier
 450:Drivers/STM32L0xx_HAL_Driver/Src/stm32l0xx_hal.c ****   */
 451:Drivers/STM32L0xx_HAL_Driver/Src/stm32l0xx_hal.c **** uint32_t HAL_GetUIDw0(void)
 452:Drivers/STM32L0xx_HAL_Driver/Src/stm32l0xx_hal.c **** {
 672              		.loc 1 452 1 is_stmt 1 view -0
 673              		.cfi_startproc
 674              		@ args = 0, pretend = 0, frame = 0
 675              		@ frame_needed = 0, uses_anonymous_args = 0
 676              		@ link register save eliminated.
 453:Drivers/STM32L0xx_HAL_Driver/Src/stm32l0xx_hal.c ****   return(READ_REG(*((uint32_t *)UID_BASE)));
 677              		.loc 1 453 3 view .LVU128
 678              		.loc 1 453 10 is_stmt 0 view .LVU129
ARM GAS  C:\Users\Tilen\AppData\Local\Temp\ccVPkpGt.s 			page 21


 679 0000 014B     		ldr	r3, .L59
 680              		.loc 1 453 10 discriminator 1 view .LVU130
 681 0002 1868     		ldr	r0, [r3]
 454:Drivers/STM32L0xx_HAL_Driver/Src/stm32l0xx_hal.c **** }
 682              		.loc 1 454 1 view .LVU131
 683              		@ sp needed
 684 0004 7047     		bx	lr
 685              	.L60:
 686 0006 C046     		.align	2
 687              	.L59:
 688 0008 5000F81F 		.word	536346704
 689              		.cfi_endproc
 690              	.LFE63:
 692              		.section	.text.HAL_GetUIDw1,"ax",%progbits
 693              		.align	1
 694              		.global	HAL_GetUIDw1
 695              		.syntax unified
 696              		.code	16
 697              		.thumb_func
 699              	HAL_GetUIDw1:
 700              	.LFB64:
 455:Drivers/STM32L0xx_HAL_Driver/Src/stm32l0xx_hal.c **** 
 456:Drivers/STM32L0xx_HAL_Driver/Src/stm32l0xx_hal.c **** /**
 457:Drivers/STM32L0xx_HAL_Driver/Src/stm32l0xx_hal.c ****   * @brief  Returns the second word of the unique device identifier (UID based on 96 bits)
 458:Drivers/STM32L0xx_HAL_Driver/Src/stm32l0xx_hal.c ****   * @retval Device identifier
 459:Drivers/STM32L0xx_HAL_Driver/Src/stm32l0xx_hal.c ****   */
 460:Drivers/STM32L0xx_HAL_Driver/Src/stm32l0xx_hal.c **** uint32_t HAL_GetUIDw1(void)
 461:Drivers/STM32L0xx_HAL_Driver/Src/stm32l0xx_hal.c **** {
 701              		.loc 1 461 1 is_stmt 1 view -0
 702              		.cfi_startproc
 703              		@ args = 0, pretend = 0, frame = 0
 704              		@ frame_needed = 0, uses_anonymous_args = 0
 705              		@ link register save eliminated.
 462:Drivers/STM32L0xx_HAL_Driver/Src/stm32l0xx_hal.c ****   return(READ_REG(*((uint32_t *)(UID_BASE + 0x04U))));
 706              		.loc 1 462 3 view .LVU133
 707              		.loc 1 462 10 is_stmt 0 view .LVU134
 708 0000 014B     		ldr	r3, .L62
 709              		.loc 1 462 10 discriminator 1 view .LVU135
 710 0002 1868     		ldr	r0, [r3]
 463:Drivers/STM32L0xx_HAL_Driver/Src/stm32l0xx_hal.c **** }
 711              		.loc 1 463 1 view .LVU136
 712              		@ sp needed
 713 0004 7047     		bx	lr
 714              	.L63:
 715 0006 C046     		.align	2
 716              	.L62:
 717 0008 5400F81F 		.word	536346708
 718              		.cfi_endproc
 719              	.LFE64:
 721              		.section	.text.HAL_GetUIDw2,"ax",%progbits
 722              		.align	1
 723              		.global	HAL_GetUIDw2
 724              		.syntax unified
 725              		.code	16
 726              		.thumb_func
 728              	HAL_GetUIDw2:
 729              	.LFB65:
ARM GAS  C:\Users\Tilen\AppData\Local\Temp\ccVPkpGt.s 			page 22


 464:Drivers/STM32L0xx_HAL_Driver/Src/stm32l0xx_hal.c **** 
 465:Drivers/STM32L0xx_HAL_Driver/Src/stm32l0xx_hal.c **** /**
 466:Drivers/STM32L0xx_HAL_Driver/Src/stm32l0xx_hal.c ****   * @brief  Returns the third word of the unique device identifier (UID based on 96 bits)
 467:Drivers/STM32L0xx_HAL_Driver/Src/stm32l0xx_hal.c ****   * @retval Device identifier
 468:Drivers/STM32L0xx_HAL_Driver/Src/stm32l0xx_hal.c ****   */
 469:Drivers/STM32L0xx_HAL_Driver/Src/stm32l0xx_hal.c **** uint32_t HAL_GetUIDw2(void)
 470:Drivers/STM32L0xx_HAL_Driver/Src/stm32l0xx_hal.c **** {
 730              		.loc 1 470 1 is_stmt 1 view -0
 731              		.cfi_startproc
 732              		@ args = 0, pretend = 0, frame = 0
 733              		@ frame_needed = 0, uses_anonymous_args = 0
 734              		@ link register save eliminated.
 471:Drivers/STM32L0xx_HAL_Driver/Src/stm32l0xx_hal.c ****   return(READ_REG(*((uint32_t *)(UID_BASE + 0x14U))));
 735              		.loc 1 471 3 view .LVU138
 736              		.loc 1 471 10 is_stmt 0 view .LVU139
 737 0000 014B     		ldr	r3, .L65
 738              		.loc 1 471 10 discriminator 1 view .LVU140
 739 0002 1868     		ldr	r0, [r3]
 472:Drivers/STM32L0xx_HAL_Driver/Src/stm32l0xx_hal.c **** }
 740              		.loc 1 472 1 view .LVU141
 741              		@ sp needed
 742 0004 7047     		bx	lr
 743              	.L66:
 744 0006 C046     		.align	2
 745              	.L65:
 746 0008 6400F81F 		.word	536346724
 747              		.cfi_endproc
 748              	.LFE65:
 750              		.section	.text.HAL_DBGMCU_EnableDBGSleepMode,"ax",%progbits
 751              		.align	1
 752              		.global	HAL_DBGMCU_EnableDBGSleepMode
 753              		.syntax unified
 754              		.code	16
 755              		.thumb_func
 757              	HAL_DBGMCU_EnableDBGSleepMode:
 758              	.LFB66:
 473:Drivers/STM32L0xx_HAL_Driver/Src/stm32l0xx_hal.c **** 
 474:Drivers/STM32L0xx_HAL_Driver/Src/stm32l0xx_hal.c **** /**
 475:Drivers/STM32L0xx_HAL_Driver/Src/stm32l0xx_hal.c ****   * @}
 476:Drivers/STM32L0xx_HAL_Driver/Src/stm32l0xx_hal.c ****   */
 477:Drivers/STM32L0xx_HAL_Driver/Src/stm32l0xx_hal.c **** 
 478:Drivers/STM32L0xx_HAL_Driver/Src/stm32l0xx_hal.c **** /** @addtogroup HAL_Exported_Functions_Group2
 479:Drivers/STM32L0xx_HAL_Driver/Src/stm32l0xx_hal.c ****  *  @brief    HAL Debug functions
 480:Drivers/STM32L0xx_HAL_Driver/Src/stm32l0xx_hal.c ****  *
 481:Drivers/STM32L0xx_HAL_Driver/Src/stm32l0xx_hal.c **** @verbatim
 482:Drivers/STM32L0xx_HAL_Driver/Src/stm32l0xx_hal.c ****  ===============================================================================
 483:Drivers/STM32L0xx_HAL_Driver/Src/stm32l0xx_hal.c ****                       ##### HAL Debug functions #####
 484:Drivers/STM32L0xx_HAL_Driver/Src/stm32l0xx_hal.c ****  ===============================================================================
 485:Drivers/STM32L0xx_HAL_Driver/Src/stm32l0xx_hal.c ****     [..]  This section provides functions allowing to:
 486:Drivers/STM32L0xx_HAL_Driver/Src/stm32l0xx_hal.c ****       (+) Enable/Disable Debug module during SLEEP mode
 487:Drivers/STM32L0xx_HAL_Driver/Src/stm32l0xx_hal.c ****       (+) Enable/Disable Debug module during STOP mode
 488:Drivers/STM32L0xx_HAL_Driver/Src/stm32l0xx_hal.c ****       (+) Enable/Disable Debug module during STANDBY mode
 489:Drivers/STM32L0xx_HAL_Driver/Src/stm32l0xx_hal.c **** 
 490:Drivers/STM32L0xx_HAL_Driver/Src/stm32l0xx_hal.c **** @endverbatim
 491:Drivers/STM32L0xx_HAL_Driver/Src/stm32l0xx_hal.c ****   * @{
 492:Drivers/STM32L0xx_HAL_Driver/Src/stm32l0xx_hal.c ****   */
 493:Drivers/STM32L0xx_HAL_Driver/Src/stm32l0xx_hal.c **** 
ARM GAS  C:\Users\Tilen\AppData\Local\Temp\ccVPkpGt.s 			page 23


 494:Drivers/STM32L0xx_HAL_Driver/Src/stm32l0xx_hal.c **** /**
 495:Drivers/STM32L0xx_HAL_Driver/Src/stm32l0xx_hal.c ****   * @brief  Enables the Debug Module during SLEEP mode
 496:Drivers/STM32L0xx_HAL_Driver/Src/stm32l0xx_hal.c ****   * @retval None
 497:Drivers/STM32L0xx_HAL_Driver/Src/stm32l0xx_hal.c ****   */
 498:Drivers/STM32L0xx_HAL_Driver/Src/stm32l0xx_hal.c **** void HAL_DBGMCU_EnableDBGSleepMode(void)
 499:Drivers/STM32L0xx_HAL_Driver/Src/stm32l0xx_hal.c **** {
 759              		.loc 1 499 1 is_stmt 1 view -0
 760              		.cfi_startproc
 761              		@ args = 0, pretend = 0, frame = 0
 762              		@ frame_needed = 0, uses_anonymous_args = 0
 763              		@ link register save eliminated.
 500:Drivers/STM32L0xx_HAL_Driver/Src/stm32l0xx_hal.c ****   SET_BIT(DBGMCU->CR, DBGMCU_CR_DBG_SLEEP);
 764              		.loc 1 500 3 view .LVU143
 765 0000 024A     		ldr	r2, .L68
 766 0002 5368     		ldr	r3, [r2, #4]
 767 0004 0121     		movs	r1, #1
 768 0006 0B43     		orrs	r3, r1
 769 0008 5360     		str	r3, [r2, #4]
 501:Drivers/STM32L0xx_HAL_Driver/Src/stm32l0xx_hal.c **** }
 770              		.loc 1 501 1 is_stmt 0 view .LVU144
 771              		@ sp needed
 772 000a 7047     		bx	lr
 773              	.L69:
 774              		.align	2
 775              	.L68:
 776 000c 00580140 		.word	1073829888
 777              		.cfi_endproc
 778              	.LFE66:
 780              		.section	.text.HAL_DBGMCU_DisableDBGSleepMode,"ax",%progbits
 781              		.align	1
 782              		.global	HAL_DBGMCU_DisableDBGSleepMode
 783              		.syntax unified
 784              		.code	16
 785              		.thumb_func
 787              	HAL_DBGMCU_DisableDBGSleepMode:
 788              	.LFB67:
 502:Drivers/STM32L0xx_HAL_Driver/Src/stm32l0xx_hal.c **** 
 503:Drivers/STM32L0xx_HAL_Driver/Src/stm32l0xx_hal.c **** /**
 504:Drivers/STM32L0xx_HAL_Driver/Src/stm32l0xx_hal.c ****   * @brief  Disables the Debug Module during SLEEP mode
 505:Drivers/STM32L0xx_HAL_Driver/Src/stm32l0xx_hal.c ****   * @retval None
 506:Drivers/STM32L0xx_HAL_Driver/Src/stm32l0xx_hal.c ****   */
 507:Drivers/STM32L0xx_HAL_Driver/Src/stm32l0xx_hal.c **** void HAL_DBGMCU_DisableDBGSleepMode(void)
 508:Drivers/STM32L0xx_HAL_Driver/Src/stm32l0xx_hal.c **** {
 789              		.loc 1 508 1 is_stmt 1 view -0
 790              		.cfi_startproc
 791              		@ args = 0, pretend = 0, frame = 0
 792              		@ frame_needed = 0, uses_anonymous_args = 0
 793              		@ link register save eliminated.
 509:Drivers/STM32L0xx_HAL_Driver/Src/stm32l0xx_hal.c ****   CLEAR_BIT(DBGMCU->CR, DBGMCU_CR_DBG_SLEEP);
 794              		.loc 1 509 3 view .LVU146
 795 0000 024A     		ldr	r2, .L71
 796 0002 5368     		ldr	r3, [r2, #4]
 797 0004 0121     		movs	r1, #1
 798 0006 8B43     		bics	r3, r1
 799 0008 5360     		str	r3, [r2, #4]
 510:Drivers/STM32L0xx_HAL_Driver/Src/stm32l0xx_hal.c **** }
 800              		.loc 1 510 1 is_stmt 0 view .LVU147
ARM GAS  C:\Users\Tilen\AppData\Local\Temp\ccVPkpGt.s 			page 24


 801              		@ sp needed
 802 000a 7047     		bx	lr
 803              	.L72:
 804              		.align	2
 805              	.L71:
 806 000c 00580140 		.word	1073829888
 807              		.cfi_endproc
 808              	.LFE67:
 810              		.section	.text.HAL_DBGMCU_EnableDBGStopMode,"ax",%progbits
 811              		.align	1
 812              		.global	HAL_DBGMCU_EnableDBGStopMode
 813              		.syntax unified
 814              		.code	16
 815              		.thumb_func
 817              	HAL_DBGMCU_EnableDBGStopMode:
 818              	.LFB68:
 511:Drivers/STM32L0xx_HAL_Driver/Src/stm32l0xx_hal.c **** 
 512:Drivers/STM32L0xx_HAL_Driver/Src/stm32l0xx_hal.c **** /**
 513:Drivers/STM32L0xx_HAL_Driver/Src/stm32l0xx_hal.c ****   * @brief  Enables the Debug Module during STOP mode
 514:Drivers/STM32L0xx_HAL_Driver/Src/stm32l0xx_hal.c ****   * @retval None
 515:Drivers/STM32L0xx_HAL_Driver/Src/stm32l0xx_hal.c ****   */
 516:Drivers/STM32L0xx_HAL_Driver/Src/stm32l0xx_hal.c **** void HAL_DBGMCU_EnableDBGStopMode(void)
 517:Drivers/STM32L0xx_HAL_Driver/Src/stm32l0xx_hal.c **** {
 819              		.loc 1 517 1 is_stmt 1 view -0
 820              		.cfi_startproc
 821              		@ args = 0, pretend = 0, frame = 0
 822              		@ frame_needed = 0, uses_anonymous_args = 0
 823              		@ link register save eliminated.
 518:Drivers/STM32L0xx_HAL_Driver/Src/stm32l0xx_hal.c ****   SET_BIT(DBGMCU->CR, DBGMCU_CR_DBG_STOP);
 824              		.loc 1 518 3 view .LVU149
 825 0000 024A     		ldr	r2, .L74
 826 0002 5368     		ldr	r3, [r2, #4]
 827 0004 0221     		movs	r1, #2
 828 0006 0B43     		orrs	r3, r1
 829 0008 5360     		str	r3, [r2, #4]
 519:Drivers/STM32L0xx_HAL_Driver/Src/stm32l0xx_hal.c **** }
 830              		.loc 1 519 1 is_stmt 0 view .LVU150
 831              		@ sp needed
 832 000a 7047     		bx	lr
 833              	.L75:
 834              		.align	2
 835              	.L74:
 836 000c 00580140 		.word	1073829888
 837              		.cfi_endproc
 838              	.LFE68:
 840              		.section	.text.HAL_DBGMCU_DisableDBGStopMode,"ax",%progbits
 841              		.align	1
 842              		.global	HAL_DBGMCU_DisableDBGStopMode
 843              		.syntax unified
 844              		.code	16
 845              		.thumb_func
 847              	HAL_DBGMCU_DisableDBGStopMode:
 848              	.LFB69:
 520:Drivers/STM32L0xx_HAL_Driver/Src/stm32l0xx_hal.c **** 
 521:Drivers/STM32L0xx_HAL_Driver/Src/stm32l0xx_hal.c **** /**
 522:Drivers/STM32L0xx_HAL_Driver/Src/stm32l0xx_hal.c ****   * @brief  Disables the Debug Module during STOP mode
 523:Drivers/STM32L0xx_HAL_Driver/Src/stm32l0xx_hal.c ****   * @retval None
ARM GAS  C:\Users\Tilen\AppData\Local\Temp\ccVPkpGt.s 			page 25


 524:Drivers/STM32L0xx_HAL_Driver/Src/stm32l0xx_hal.c ****   */
 525:Drivers/STM32L0xx_HAL_Driver/Src/stm32l0xx_hal.c **** void HAL_DBGMCU_DisableDBGStopMode(void)
 526:Drivers/STM32L0xx_HAL_Driver/Src/stm32l0xx_hal.c **** {
 849              		.loc 1 526 1 is_stmt 1 view -0
 850              		.cfi_startproc
 851              		@ args = 0, pretend = 0, frame = 0
 852              		@ frame_needed = 0, uses_anonymous_args = 0
 853              		@ link register save eliminated.
 527:Drivers/STM32L0xx_HAL_Driver/Src/stm32l0xx_hal.c ****   CLEAR_BIT(DBGMCU->CR, DBGMCU_CR_DBG_STOP);
 854              		.loc 1 527 3 view .LVU152
 855 0000 024A     		ldr	r2, .L77
 856 0002 5368     		ldr	r3, [r2, #4]
 857 0004 0221     		movs	r1, #2
 858 0006 8B43     		bics	r3, r1
 859 0008 5360     		str	r3, [r2, #4]
 528:Drivers/STM32L0xx_HAL_Driver/Src/stm32l0xx_hal.c **** }
 860              		.loc 1 528 1 is_stmt 0 view .LVU153
 861              		@ sp needed
 862 000a 7047     		bx	lr
 863              	.L78:
 864              		.align	2
 865              	.L77:
 866 000c 00580140 		.word	1073829888
 867              		.cfi_endproc
 868              	.LFE69:
 870              		.section	.text.HAL_DBGMCU_EnableDBGStandbyMode,"ax",%progbits
 871              		.align	1
 872              		.global	HAL_DBGMCU_EnableDBGStandbyMode
 873              		.syntax unified
 874              		.code	16
 875              		.thumb_func
 877              	HAL_DBGMCU_EnableDBGStandbyMode:
 878              	.LFB70:
 529:Drivers/STM32L0xx_HAL_Driver/Src/stm32l0xx_hal.c **** 
 530:Drivers/STM32L0xx_HAL_Driver/Src/stm32l0xx_hal.c **** /**
 531:Drivers/STM32L0xx_HAL_Driver/Src/stm32l0xx_hal.c ****   * @brief  Enables the Debug Module during STANDBY mode
 532:Drivers/STM32L0xx_HAL_Driver/Src/stm32l0xx_hal.c ****   * @retval None
 533:Drivers/STM32L0xx_HAL_Driver/Src/stm32l0xx_hal.c ****   */
 534:Drivers/STM32L0xx_HAL_Driver/Src/stm32l0xx_hal.c **** void HAL_DBGMCU_EnableDBGStandbyMode(void)
 535:Drivers/STM32L0xx_HAL_Driver/Src/stm32l0xx_hal.c **** {
 879              		.loc 1 535 1 is_stmt 1 view -0
 880              		.cfi_startproc
 881              		@ args = 0, pretend = 0, frame = 0
 882              		@ frame_needed = 0, uses_anonymous_args = 0
 883              		@ link register save eliminated.
 536:Drivers/STM32L0xx_HAL_Driver/Src/stm32l0xx_hal.c ****   SET_BIT(DBGMCU->CR, DBGMCU_CR_DBG_STANDBY);
 884              		.loc 1 536 3 view .LVU155
 885 0000 024A     		ldr	r2, .L80
 886 0002 5368     		ldr	r3, [r2, #4]
 887 0004 0421     		movs	r1, #4
 888 0006 0B43     		orrs	r3, r1
 889 0008 5360     		str	r3, [r2, #4]
 537:Drivers/STM32L0xx_HAL_Driver/Src/stm32l0xx_hal.c **** }
 890              		.loc 1 537 1 is_stmt 0 view .LVU156
 891              		@ sp needed
 892 000a 7047     		bx	lr
 893              	.L81:
ARM GAS  C:\Users\Tilen\AppData\Local\Temp\ccVPkpGt.s 			page 26


 894              		.align	2
 895              	.L80:
 896 000c 00580140 		.word	1073829888
 897              		.cfi_endproc
 898              	.LFE70:
 900              		.section	.text.HAL_DBGMCU_DisableDBGStandbyMode,"ax",%progbits
 901              		.align	1
 902              		.global	HAL_DBGMCU_DisableDBGStandbyMode
 903              		.syntax unified
 904              		.code	16
 905              		.thumb_func
 907              	HAL_DBGMCU_DisableDBGStandbyMode:
 908              	.LFB71:
 538:Drivers/STM32L0xx_HAL_Driver/Src/stm32l0xx_hal.c **** 
 539:Drivers/STM32L0xx_HAL_Driver/Src/stm32l0xx_hal.c **** /**
 540:Drivers/STM32L0xx_HAL_Driver/Src/stm32l0xx_hal.c ****   * @brief  Disables the Debug Module during STANDBY mode
 541:Drivers/STM32L0xx_HAL_Driver/Src/stm32l0xx_hal.c ****   * @retval None
 542:Drivers/STM32L0xx_HAL_Driver/Src/stm32l0xx_hal.c ****   */
 543:Drivers/STM32L0xx_HAL_Driver/Src/stm32l0xx_hal.c **** void HAL_DBGMCU_DisableDBGStandbyMode(void)
 544:Drivers/STM32L0xx_HAL_Driver/Src/stm32l0xx_hal.c **** {
 909              		.loc 1 544 1 is_stmt 1 view -0
 910              		.cfi_startproc
 911              		@ args = 0, pretend = 0, frame = 0
 912              		@ frame_needed = 0, uses_anonymous_args = 0
 913              		@ link register save eliminated.
 545:Drivers/STM32L0xx_HAL_Driver/Src/stm32l0xx_hal.c ****   CLEAR_BIT(DBGMCU->CR, DBGMCU_CR_DBG_STANDBY);
 914              		.loc 1 545 3 view .LVU158
 915 0000 024A     		ldr	r2, .L83
 916 0002 5368     		ldr	r3, [r2, #4]
 917 0004 0421     		movs	r1, #4
 918 0006 8B43     		bics	r3, r1
 919 0008 5360     		str	r3, [r2, #4]
 546:Drivers/STM32L0xx_HAL_Driver/Src/stm32l0xx_hal.c **** }
 920              		.loc 1 546 1 is_stmt 0 view .LVU159
 921              		@ sp needed
 922 000a 7047     		bx	lr
 923              	.L84:
 924              		.align	2
 925              	.L83:
 926 000c 00580140 		.word	1073829888
 927              		.cfi_endproc
 928              	.LFE71:
 930              		.section	.text.HAL_DBGMCU_DBG_EnableLowPowerConfig,"ax",%progbits
 931              		.align	1
 932              		.global	HAL_DBGMCU_DBG_EnableLowPowerConfig
 933              		.syntax unified
 934              		.code	16
 935              		.thumb_func
 937              	HAL_DBGMCU_DBG_EnableLowPowerConfig:
 938              	.LVL27:
 939              	.LFB72:
 547:Drivers/STM32L0xx_HAL_Driver/Src/stm32l0xx_hal.c **** 
 548:Drivers/STM32L0xx_HAL_Driver/Src/stm32l0xx_hal.c **** /**
 549:Drivers/STM32L0xx_HAL_Driver/Src/stm32l0xx_hal.c ****   * @brief  Enable low power mode behavior when the MCU is in Debug mode.
 550:Drivers/STM32L0xx_HAL_Driver/Src/stm32l0xx_hal.c ****   * @param Periph: specifies the low power mode.
 551:Drivers/STM32L0xx_HAL_Driver/Src/stm32l0xx_hal.c ****   *   This parameter can be any combination of the following values:
 552:Drivers/STM32L0xx_HAL_Driver/Src/stm32l0xx_hal.c ****   *     @arg DBGMCU_SLEEP: Keep debugger connection during SLEEP mode
ARM GAS  C:\Users\Tilen\AppData\Local\Temp\ccVPkpGt.s 			page 27


 553:Drivers/STM32L0xx_HAL_Driver/Src/stm32l0xx_hal.c ****   *     @arg DBGMCU_STOP: Keep debugger connection during STOP mode
 554:Drivers/STM32L0xx_HAL_Driver/Src/stm32l0xx_hal.c ****   *     @arg DBGMCU_STANDBY: Keep debugger connection during STANDBY mode
 555:Drivers/STM32L0xx_HAL_Driver/Src/stm32l0xx_hal.c ****   * @retval None
 556:Drivers/STM32L0xx_HAL_Driver/Src/stm32l0xx_hal.c ****   */
 557:Drivers/STM32L0xx_HAL_Driver/Src/stm32l0xx_hal.c **** void HAL_DBGMCU_DBG_EnableLowPowerConfig(uint32_t Periph)
 558:Drivers/STM32L0xx_HAL_Driver/Src/stm32l0xx_hal.c **** {
 940              		.loc 1 558 1 is_stmt 1 view -0
 941              		.cfi_startproc
 942              		@ args = 0, pretend = 0, frame = 0
 943              		@ frame_needed = 0, uses_anonymous_args = 0
 944              		@ link register save eliminated.
 559:Drivers/STM32L0xx_HAL_Driver/Src/stm32l0xx_hal.c ****   /* Check the parameters */
 560:Drivers/STM32L0xx_HAL_Driver/Src/stm32l0xx_hal.c ****   assert_param(IS_DBGMCU_PERIPH(Periph));
 945              		.loc 1 560 3 view .LVU161
 561:Drivers/STM32L0xx_HAL_Driver/Src/stm32l0xx_hal.c **** 
 562:Drivers/STM32L0xx_HAL_Driver/Src/stm32l0xx_hal.c ****   DBGMCU->CR |= Periph;
 946              		.loc 1 562 3 view .LVU162
 947              		.loc 1 562 9 is_stmt 0 view .LVU163
 948 0000 024A     		ldr	r2, .L86
 949 0002 5368     		ldr	r3, [r2, #4]
 950              		.loc 1 562 14 view .LVU164
 951 0004 0343     		orrs	r3, r0
 952 0006 5360     		str	r3, [r2, #4]
 563:Drivers/STM32L0xx_HAL_Driver/Src/stm32l0xx_hal.c **** 
 564:Drivers/STM32L0xx_HAL_Driver/Src/stm32l0xx_hal.c **** }
 953              		.loc 1 564 1 view .LVU165
 954              		@ sp needed
 955 0008 7047     		bx	lr
 956              	.L87:
 957 000a C046     		.align	2
 958              	.L86:
 959 000c 00580140 		.word	1073829888
 960              		.cfi_endproc
 961              	.LFE72:
 963              		.section	.text.HAL_DBGMCU_DBG_DisableLowPowerConfig,"ax",%progbits
 964              		.align	1
 965              		.global	HAL_DBGMCU_DBG_DisableLowPowerConfig
 966              		.syntax unified
 967              		.code	16
 968              		.thumb_func
 970              	HAL_DBGMCU_DBG_DisableLowPowerConfig:
 971              	.LVL28:
 972              	.LFB73:
 565:Drivers/STM32L0xx_HAL_Driver/Src/stm32l0xx_hal.c **** /**
 566:Drivers/STM32L0xx_HAL_Driver/Src/stm32l0xx_hal.c ****   * @brief  Disable low power mode behavior when the MCU is in Debug mode.
 567:Drivers/STM32L0xx_HAL_Driver/Src/stm32l0xx_hal.c ****   * @param Periph: specifies the low power mode.
 568:Drivers/STM32L0xx_HAL_Driver/Src/stm32l0xx_hal.c ****   *   This parameter can be any combination of the following values:
 569:Drivers/STM32L0xx_HAL_Driver/Src/stm32l0xx_hal.c ****   *     @arg DBGMCU_SLEEP: Keep debugger connection during SLEEP mode
 570:Drivers/STM32L0xx_HAL_Driver/Src/stm32l0xx_hal.c ****   *     @arg DBGMCU_STOP: Keep debugger connection during STOP mode
 571:Drivers/STM32L0xx_HAL_Driver/Src/stm32l0xx_hal.c ****   *     @arg DBGMCU_STANDBY: Keep debugger connection during STANDBY mode
 572:Drivers/STM32L0xx_HAL_Driver/Src/stm32l0xx_hal.c ****   * @retval None
 573:Drivers/STM32L0xx_HAL_Driver/Src/stm32l0xx_hal.c ****   */
 574:Drivers/STM32L0xx_HAL_Driver/Src/stm32l0xx_hal.c **** void HAL_DBGMCU_DBG_DisableLowPowerConfig(uint32_t Periph)
 575:Drivers/STM32L0xx_HAL_Driver/Src/stm32l0xx_hal.c **** {
 973              		.loc 1 575 1 is_stmt 1 view -0
 974              		.cfi_startproc
 975              		@ args = 0, pretend = 0, frame = 0
ARM GAS  C:\Users\Tilen\AppData\Local\Temp\ccVPkpGt.s 			page 28


 976              		@ frame_needed = 0, uses_anonymous_args = 0
 977              		@ link register save eliminated.
 576:Drivers/STM32L0xx_HAL_Driver/Src/stm32l0xx_hal.c ****   /* Check the parameters */
 577:Drivers/STM32L0xx_HAL_Driver/Src/stm32l0xx_hal.c ****   assert_param(IS_DBGMCU_PERIPH(Periph));
 978              		.loc 1 577 3 view .LVU167
 578:Drivers/STM32L0xx_HAL_Driver/Src/stm32l0xx_hal.c ****   {
 579:Drivers/STM32L0xx_HAL_Driver/Src/stm32l0xx_hal.c ****     DBGMCU->CR &= ~Periph;
 979              		.loc 1 579 5 view .LVU168
 980              		.loc 1 579 11 is_stmt 0 view .LVU169
 981 0000 024A     		ldr	r2, .L89
 982 0002 5368     		ldr	r3, [r2, #4]
 983              		.loc 1 579 16 view .LVU170
 984 0004 8343     		bics	r3, r0
 985 0006 5360     		str	r3, [r2, #4]
 580:Drivers/STM32L0xx_HAL_Driver/Src/stm32l0xx_hal.c ****   }
 581:Drivers/STM32L0xx_HAL_Driver/Src/stm32l0xx_hal.c **** }
 986              		.loc 1 581 1 view .LVU171
 987              		@ sp needed
 988 0008 7047     		bx	lr
 989              	.L90:
 990 000a C046     		.align	2
 991              	.L89:
 992 000c 00580140 		.word	1073829888
 993              		.cfi_endproc
 994              	.LFE73:
 996              		.section	.text.HAL_SYSCFG_GetBootMode,"ax",%progbits
 997              		.align	1
 998              		.global	HAL_SYSCFG_GetBootMode
 999              		.syntax unified
 1000              		.code	16
 1001              		.thumb_func
 1003              	HAL_SYSCFG_GetBootMode:
 1004              	.LFB74:
 582:Drivers/STM32L0xx_HAL_Driver/Src/stm32l0xx_hal.c **** 
 583:Drivers/STM32L0xx_HAL_Driver/Src/stm32l0xx_hal.c **** /**
 584:Drivers/STM32L0xx_HAL_Driver/Src/stm32l0xx_hal.c ****   * @}
 585:Drivers/STM32L0xx_HAL_Driver/Src/stm32l0xx_hal.c ****   */
 586:Drivers/STM32L0xx_HAL_Driver/Src/stm32l0xx_hal.c **** 
 587:Drivers/STM32L0xx_HAL_Driver/Src/stm32l0xx_hal.c **** /** @addtogroup HAL_Exported_Functions_Group3
 588:Drivers/STM32L0xx_HAL_Driver/Src/stm32l0xx_hal.c ****  *  @brief    HAL SYSCFG configuration functions
 589:Drivers/STM32L0xx_HAL_Driver/Src/stm32l0xx_hal.c ****  *
 590:Drivers/STM32L0xx_HAL_Driver/Src/stm32l0xx_hal.c **** @verbatim
 591:Drivers/STM32L0xx_HAL_Driver/Src/stm32l0xx_hal.c ****  ===============================================================================
 592:Drivers/STM32L0xx_HAL_Driver/Src/stm32l0xx_hal.c ****                       ##### HAL SYSCFG configuration functions #####
 593:Drivers/STM32L0xx_HAL_Driver/Src/stm32l0xx_hal.c ****  ===============================================================================
 594:Drivers/STM32L0xx_HAL_Driver/Src/stm32l0xx_hal.c ****     [..]  This section provides functions allowing to:
 595:Drivers/STM32L0xx_HAL_Driver/Src/stm32l0xx_hal.c ****       (+) Return the boot mode
 596:Drivers/STM32L0xx_HAL_Driver/Src/stm32l0xx_hal.c ****       (+) Select the output of internal reference voltage (VREFINT)
 597:Drivers/STM32L0xx_HAL_Driver/Src/stm32l0xx_hal.c ****       (+) Lock/Unlock the SYSCFG VREF register values
 598:Drivers/STM32L0xx_HAL_Driver/Src/stm32l0xx_hal.c **** 
 599:Drivers/STM32L0xx_HAL_Driver/Src/stm32l0xx_hal.c **** @endverbatim
 600:Drivers/STM32L0xx_HAL_Driver/Src/stm32l0xx_hal.c ****   * @{
 601:Drivers/STM32L0xx_HAL_Driver/Src/stm32l0xx_hal.c ****   */
 602:Drivers/STM32L0xx_HAL_Driver/Src/stm32l0xx_hal.c **** 
 603:Drivers/STM32L0xx_HAL_Driver/Src/stm32l0xx_hal.c **** /**
 604:Drivers/STM32L0xx_HAL_Driver/Src/stm32l0xx_hal.c ****   * @brief  Returns the boot mode as configured by user.
 605:Drivers/STM32L0xx_HAL_Driver/Src/stm32l0xx_hal.c ****   * @retval The boot mode as configured by user. The returned value can be one
ARM GAS  C:\Users\Tilen\AppData\Local\Temp\ccVPkpGt.s 			page 29


 606:Drivers/STM32L0xx_HAL_Driver/Src/stm32l0xx_hal.c ****   *         of the following values:
 607:Drivers/STM32L0xx_HAL_Driver/Src/stm32l0xx_hal.c ****   *              - 0x00000000 : Boot is configured in Main Flash memory
 608:Drivers/STM32L0xx_HAL_Driver/Src/stm32l0xx_hal.c ****   *              - 0x00000100 : Boot is configured in System Flash memory
 609:Drivers/STM32L0xx_HAL_Driver/Src/stm32l0xx_hal.c ****   *              - 0x00000300 : Boot is configured in Embedded SRAM memory
 610:Drivers/STM32L0xx_HAL_Driver/Src/stm32l0xx_hal.c ****   */
 611:Drivers/STM32L0xx_HAL_Driver/Src/stm32l0xx_hal.c **** uint32_t  HAL_SYSCFG_GetBootMode(void)
 612:Drivers/STM32L0xx_HAL_Driver/Src/stm32l0xx_hal.c **** {
 1005              		.loc 1 612 1 is_stmt 1 view -0
 1006              		.cfi_startproc
 1007              		@ args = 0, pretend = 0, frame = 0
 1008              		@ frame_needed = 0, uses_anonymous_args = 0
 1009              		@ link register save eliminated.
 613:Drivers/STM32L0xx_HAL_Driver/Src/stm32l0xx_hal.c ****   return (SYSCFG->CFGR1 & SYSCFG_CFGR1_BOOT_MODE);
 1010              		.loc 1 613 3 view .LVU173
 1011              		.loc 1 613 17 is_stmt 0 view .LVU174
 1012 0000 024B     		ldr	r3, .L92
 1013 0002 1868     		ldr	r0, [r3]
 1014              		.loc 1 613 25 view .LVU175
 1015 0004 C023     		movs	r3, #192
 1016 0006 9B00     		lsls	r3, r3, #2
 1017 0008 1840     		ands	r0, r3
 614:Drivers/STM32L0xx_HAL_Driver/Src/stm32l0xx_hal.c **** }
 1018              		.loc 1 614 1 view .LVU176
 1019              		@ sp needed
 1020 000a 7047     		bx	lr
 1021              	.L93:
 1022              		.align	2
 1023              	.L92:
 1024 000c 00000140 		.word	1073807360
 1025              		.cfi_endproc
 1026              	.LFE74:
 1028              		.section	.text.HAL_SYSCFG_VREFINT_OutputSelect,"ax",%progbits
 1029              		.align	1
 1030              		.global	HAL_SYSCFG_VREFINT_OutputSelect
 1031              		.syntax unified
 1032              		.code	16
 1033              		.thumb_func
 1035              	HAL_SYSCFG_VREFINT_OutputSelect:
 1036              	.LVL29:
 1037              	.LFB75:
 615:Drivers/STM32L0xx_HAL_Driver/Src/stm32l0xx_hal.c **** 
 616:Drivers/STM32L0xx_HAL_Driver/Src/stm32l0xx_hal.c **** /**
 617:Drivers/STM32L0xx_HAL_Driver/Src/stm32l0xx_hal.c ****   * @brief Selects the output of internal reference voltage (VREFINT).
 618:Drivers/STM32L0xx_HAL_Driver/Src/stm32l0xx_hal.c ****   *        The VREFINT output can be routed to(PB0) or
 619:Drivers/STM32L0xx_HAL_Driver/Src/stm32l0xx_hal.c ****   *        (PB1) or both.
 620:Drivers/STM32L0xx_HAL_Driver/Src/stm32l0xx_hal.c ****   * @param SYSCFG_Vrefint_OUTPUT: new state of the Vrefint output.
 621:Drivers/STM32L0xx_HAL_Driver/Src/stm32l0xx_hal.c ****   *        This parameter can be one of the following values:
 622:Drivers/STM32L0xx_HAL_Driver/Src/stm32l0xx_hal.c ****   *     @arg SYSCFG_VREFINT_OUT_NONE
 623:Drivers/STM32L0xx_HAL_Driver/Src/stm32l0xx_hal.c ****   *     @arg SYSCFG_VREFINT_OUT_PB0
 624:Drivers/STM32L0xx_HAL_Driver/Src/stm32l0xx_hal.c ****   *     @arg SYSCFG_VREFINT_OUT_PB1
 625:Drivers/STM32L0xx_HAL_Driver/Src/stm32l0xx_hal.c ****   *     @arg SYSCFG_VREFINT_OUT_PB0_PB1
 626:Drivers/STM32L0xx_HAL_Driver/Src/stm32l0xx_hal.c ****   * @retval None
 627:Drivers/STM32L0xx_HAL_Driver/Src/stm32l0xx_hal.c ****   */
 628:Drivers/STM32L0xx_HAL_Driver/Src/stm32l0xx_hal.c **** void HAL_SYSCFG_VREFINT_OutputSelect(uint32_t SYSCFG_Vrefint_OUTPUT)
 629:Drivers/STM32L0xx_HAL_Driver/Src/stm32l0xx_hal.c **** {
 1038              		.loc 1 629 1 is_stmt 1 view -0
 1039              		.cfi_startproc
ARM GAS  C:\Users\Tilen\AppData\Local\Temp\ccVPkpGt.s 			page 30


 1040              		@ args = 0, pretend = 0, frame = 0
 1041              		@ frame_needed = 0, uses_anonymous_args = 0
 1042              		@ link register save eliminated.
 630:Drivers/STM32L0xx_HAL_Driver/Src/stm32l0xx_hal.c ****   /* Check the parameters */
 631:Drivers/STM32L0xx_HAL_Driver/Src/stm32l0xx_hal.c ****   assert_param(IS_SYSCFG_VREFINT_OUT_SELECT(SYSCFG_Vrefint_OUTPUT));
 1043              		.loc 1 631 3 view .LVU178
 632:Drivers/STM32L0xx_HAL_Driver/Src/stm32l0xx_hal.c **** 
 633:Drivers/STM32L0xx_HAL_Driver/Src/stm32l0xx_hal.c ****   /* Set the output Vrefint pin */
 634:Drivers/STM32L0xx_HAL_Driver/Src/stm32l0xx_hal.c ****   SYSCFG->CFGR3 &= ~(SYSCFG_CFGR3_VREF_OUT);
 1044              		.loc 1 634 3 view .LVU179
 1045              		.loc 1 634 9 is_stmt 0 view .LVU180
 1046 0000 044B     		ldr	r3, .L95
 1047 0002 1A6A     		ldr	r2, [r3, #32]
 1048              		.loc 1 634 17 view .LVU181
 1049 0004 3021     		movs	r1, #48
 1050 0006 8A43     		bics	r2, r1
 1051 0008 1A62     		str	r2, [r3, #32]
 635:Drivers/STM32L0xx_HAL_Driver/Src/stm32l0xx_hal.c ****   SYSCFG->CFGR3 |= (uint32_t)(SYSCFG_Vrefint_OUTPUT);
 1052              		.loc 1 635 3 is_stmt 1 view .LVU182
 1053              		.loc 1 635 9 is_stmt 0 view .LVU183
 1054 000a 1A6A     		ldr	r2, [r3, #32]
 1055              		.loc 1 635 17 view .LVU184
 1056 000c 0243     		orrs	r2, r0
 1057 000e 1A62     		str	r2, [r3, #32]
 636:Drivers/STM32L0xx_HAL_Driver/Src/stm32l0xx_hal.c **** }
 1058              		.loc 1 636 1 view .LVU185
 1059              		@ sp needed
 1060 0010 7047     		bx	lr
 1061              	.L96:
 1062 0012 C046     		.align	2
 1063              	.L95:
 1064 0014 00000140 		.word	1073807360
 1065              		.cfi_endproc
 1066              	.LFE75:
 1068              		.section	.text.HAL_SYSCFG_Enable_Lock_VREFINT,"ax",%progbits
 1069              		.align	1
 1070              		.global	HAL_SYSCFG_Enable_Lock_VREFINT
 1071              		.syntax unified
 1072              		.code	16
 1073              		.thumb_func
 1075              	HAL_SYSCFG_Enable_Lock_VREFINT:
 1076              	.LFB76:
 637:Drivers/STM32L0xx_HAL_Driver/Src/stm32l0xx_hal.c **** 
 638:Drivers/STM32L0xx_HAL_Driver/Src/stm32l0xx_hal.c **** /**
 639:Drivers/STM32L0xx_HAL_Driver/Src/stm32l0xx_hal.c ****   * @brief  Lock the SYSCFG VREF register values
 640:Drivers/STM32L0xx_HAL_Driver/Src/stm32l0xx_hal.c ****   * @retval None
 641:Drivers/STM32L0xx_HAL_Driver/Src/stm32l0xx_hal.c ****   */
 642:Drivers/STM32L0xx_HAL_Driver/Src/stm32l0xx_hal.c **** void HAL_SYSCFG_Enable_Lock_VREFINT(void)
 643:Drivers/STM32L0xx_HAL_Driver/Src/stm32l0xx_hal.c **** {
 1077              		.loc 1 643 1 is_stmt 1 view -0
 1078              		.cfi_startproc
 1079              		@ args = 0, pretend = 0, frame = 0
 1080              		@ frame_needed = 0, uses_anonymous_args = 0
 1081              		@ link register save eliminated.
 644:Drivers/STM32L0xx_HAL_Driver/Src/stm32l0xx_hal.c ****     /* Enable the LOCK by setting REF_LOCK bit in the CFGR3 register */
 645:Drivers/STM32L0xx_HAL_Driver/Src/stm32l0xx_hal.c ****     SET_BIT(SYSCFG->CFGR3, SYSCFG_CFGR3_REF_LOCK);
 1082              		.loc 1 645 5 view .LVU187
ARM GAS  C:\Users\Tilen\AppData\Local\Temp\ccVPkpGt.s 			page 31


 1083 0000 034A     		ldr	r2, .L98
 1084 0002 116A     		ldr	r1, [r2, #32]
 1085 0004 8023     		movs	r3, #128
 1086 0006 1B06     		lsls	r3, r3, #24
 1087 0008 0B43     		orrs	r3, r1
 1088 000a 1362     		str	r3, [r2, #32]
 646:Drivers/STM32L0xx_HAL_Driver/Src/stm32l0xx_hal.c **** }
 1089              		.loc 1 646 1 is_stmt 0 view .LVU188
 1090              		@ sp needed
 1091 000c 7047     		bx	lr
 1092              	.L99:
 1093 000e C046     		.align	2
 1094              	.L98:
 1095 0010 00000140 		.word	1073807360
 1096              		.cfi_endproc
 1097              	.LFE76:
 1099              		.section	.text.HAL_SYSCFG_Disable_Lock_VREFINT,"ax",%progbits
 1100              		.align	1
 1101              		.global	HAL_SYSCFG_Disable_Lock_VREFINT
 1102              		.syntax unified
 1103              		.code	16
 1104              		.thumb_func
 1106              	HAL_SYSCFG_Disable_Lock_VREFINT:
 1107              	.LFB77:
 647:Drivers/STM32L0xx_HAL_Driver/Src/stm32l0xx_hal.c **** 
 648:Drivers/STM32L0xx_HAL_Driver/Src/stm32l0xx_hal.c **** /**
 649:Drivers/STM32L0xx_HAL_Driver/Src/stm32l0xx_hal.c ****   * @brief  Unlock the overall SYSCFG VREF register values
 650:Drivers/STM32L0xx_HAL_Driver/Src/stm32l0xx_hal.c ****   * @retval None
 651:Drivers/STM32L0xx_HAL_Driver/Src/stm32l0xx_hal.c ****   */
 652:Drivers/STM32L0xx_HAL_Driver/Src/stm32l0xx_hal.c **** void HAL_SYSCFG_Disable_Lock_VREFINT(void)
 653:Drivers/STM32L0xx_HAL_Driver/Src/stm32l0xx_hal.c **** {
 1108              		.loc 1 653 1 is_stmt 1 view -0
 1109              		.cfi_startproc
 1110              		@ args = 0, pretend = 0, frame = 0
 1111              		@ frame_needed = 0, uses_anonymous_args = 0
 1112              		@ link register save eliminated.
 654:Drivers/STM32L0xx_HAL_Driver/Src/stm32l0xx_hal.c ****     /* Disable the LOCK by setting REF_LOCK bit in the CFGR3 register */
 655:Drivers/STM32L0xx_HAL_Driver/Src/stm32l0xx_hal.c ****     CLEAR_BIT(SYSCFG->CFGR3, SYSCFG_CFGR3_REF_LOCK);
 1113              		.loc 1 655 5 view .LVU190
 1114 0000 024A     		ldr	r2, .L101
 1115 0002 136A     		ldr	r3, [r2, #32]
 1116 0004 5B00     		lsls	r3, r3, #1
 1117 0006 5B08     		lsrs	r3, r3, #1
 1118 0008 1362     		str	r3, [r2, #32]
 656:Drivers/STM32L0xx_HAL_Driver/Src/stm32l0xx_hal.c **** }
 1119              		.loc 1 656 1 is_stmt 0 view .LVU191
 1120              		@ sp needed
 1121 000a 7047     		bx	lr
 1122              	.L102:
 1123              		.align	2
 1124              	.L101:
 1125 000c 00000140 		.word	1073807360
 1126              		.cfi_endproc
 1127              	.LFE77:
 1129              		.global	uwTickFreq
 1130              		.section	.data.uwTickFreq,"aw"
 1133              	uwTickFreq:
ARM GAS  C:\Users\Tilen\AppData\Local\Temp\ccVPkpGt.s 			page 32


 1134 0000 01       		.byte	1
 1135              		.global	uwTickPrio
 1136              		.section	.data.uwTickPrio,"aw"
 1137              		.align	2
 1140              	uwTickPrio:
 1141 0000 04000000 		.word	4
 1142              		.global	uwTick
 1143              		.section	.bss.uwTick,"aw",%nobits
 1144              		.align	2
 1147              	uwTick:
 1148 0000 00000000 		.space	4
 1149              		.text
 1150              	.Letext0:
 1151              		.file 2 "Drivers/CMSIS/Device/ST/STM32L0xx/Include/stm32l053xx.h"
 1152              		.file 3 "C:/Program Files (x86)/Arm/GNU Toolchain mingw-w64-i686-arm-none-eabi/arm-none-eabi/inclu
 1153              		.file 4 "C:/Program Files (x86)/Arm/GNU Toolchain mingw-w64-i686-arm-none-eabi/arm-none-eabi/inclu
 1154              		.file 5 "Drivers/CMSIS/Include/core_cm0plus.h"
 1155              		.file 6 "Drivers/STM32L0xx_HAL_Driver/Inc/stm32l0xx_hal_def.h"
 1156              		.file 7 "Drivers/STM32L0xx_HAL_Driver/Inc/stm32l0xx_hal.h"
 1157              		.file 8 "Drivers/CMSIS/Device/ST/STM32L0xx/Include/system_stm32l0xx.h"
 1158              		.file 9 "Drivers/STM32L0xx_HAL_Driver/Inc/stm32l0xx_hal_cortex.h"
ARM GAS  C:\Users\Tilen\AppData\Local\Temp\ccVPkpGt.s 			page 33

