ARM GAS  C:\Users\Tilen\AppData\Local\Temp\ccC0CAdr.s 			page 1


   1              		.cpu cortex-m0plus
   2              		.arch armv6s-m
   3              		.fpu softvfp
   4              		.eabi_attribute 20, 1
   5              		.eabi_attribute 21, 1
   6              		.eabi_attribute 23, 3
   7              		.eabi_attribute 24, 1
   8              		.eabi_attribute 25, 1
   9              		.eabi_attribute 26, 1
  10              		.eabi_attribute 30, 1
  11              		.eabi_attribute 34, 0
  12              		.eabi_attribute 18, 4
  13              		.file	"stm32l0xx_hal_rcc.c"
  14              		.text
  15              	.Ltext0:
  16              		.cfi_sections	.debug_frame
  17              		.file 1 "Drivers/STM32L0xx_HAL_Driver/Src/stm32l0xx_hal_rcc.c"
  18              		.section	.text.HAL_RCC_DeInit,"ax",%progbits
  19              		.align	1
  20              		.global	HAL_RCC_DeInit
  21              		.syntax unified
  22              		.code	16
  23              		.thumb_func
  25              	HAL_RCC_DeInit:
  26              	.LFB47:
   1:Drivers/STM32L0xx_HAL_Driver/Src/stm32l0xx_hal_rcc.c **** /**
   2:Drivers/STM32L0xx_HAL_Driver/Src/stm32l0xx_hal_rcc.c ****   ******************************************************************************
   3:Drivers/STM32L0xx_HAL_Driver/Src/stm32l0xx_hal_rcc.c ****   * @file    stm32l0xx_hal_rcc.c
   4:Drivers/STM32L0xx_HAL_Driver/Src/stm32l0xx_hal_rcc.c ****   * @author  MCD Application Team
   5:Drivers/STM32L0xx_HAL_Driver/Src/stm32l0xx_hal_rcc.c ****   * @brief   RCC HAL module driver.
   6:Drivers/STM32L0xx_HAL_Driver/Src/stm32l0xx_hal_rcc.c ****   *          This file provides firmware functions to manage the following
   7:Drivers/STM32L0xx_HAL_Driver/Src/stm32l0xx_hal_rcc.c ****   *          functionalities of the Reset and Clock Control (RCC) peripheral:
   8:Drivers/STM32L0xx_HAL_Driver/Src/stm32l0xx_hal_rcc.c ****   *           + Initialization and de-initialization functions
   9:Drivers/STM32L0xx_HAL_Driver/Src/stm32l0xx_hal_rcc.c ****   *           + Peripheral Control functions
  10:Drivers/STM32L0xx_HAL_Driver/Src/stm32l0xx_hal_rcc.c ****   *
  11:Drivers/STM32L0xx_HAL_Driver/Src/stm32l0xx_hal_rcc.c ****   @verbatim
  12:Drivers/STM32L0xx_HAL_Driver/Src/stm32l0xx_hal_rcc.c ****   ==============================================================================
  13:Drivers/STM32L0xx_HAL_Driver/Src/stm32l0xx_hal_rcc.c ****                       ##### RCC specific features #####
  14:Drivers/STM32L0xx_HAL_Driver/Src/stm32l0xx_hal_rcc.c ****   ==============================================================================
  15:Drivers/STM32L0xx_HAL_Driver/Src/stm32l0xx_hal_rcc.c ****     [..]
  16:Drivers/STM32L0xx_HAL_Driver/Src/stm32l0xx_hal_rcc.c ****       After reset the device is running from multispeed internal oscillator clock
  17:Drivers/STM32L0xx_HAL_Driver/Src/stm32l0xx_hal_rcc.c ****       (MSI 2.097MHz) with Flash 0 wait state and Flash prefetch buffer is disabled,
  18:Drivers/STM32L0xx_HAL_Driver/Src/stm32l0xx_hal_rcc.c ****       and all peripherals are off except internal SRAM, Flash and JTAG.
  19:Drivers/STM32L0xx_HAL_Driver/Src/stm32l0xx_hal_rcc.c ****       (+) There is no prescaler on High speed (AHB) and Low speed (APB) buses;
  20:Drivers/STM32L0xx_HAL_Driver/Src/stm32l0xx_hal_rcc.c ****           all peripherals mapped on these buses are running at MSI speed.
  21:Drivers/STM32L0xx_HAL_Driver/Src/stm32l0xx_hal_rcc.c ****       (+) The clock for all peripherals is switched off, except the SRAM and FLASH.
  22:Drivers/STM32L0xx_HAL_Driver/Src/stm32l0xx_hal_rcc.c ****       (+) All GPIOs are in input floating state, except the JTAG pins which
  23:Drivers/STM32L0xx_HAL_Driver/Src/stm32l0xx_hal_rcc.c ****           are assigned to be used for debug purpose.
  24:Drivers/STM32L0xx_HAL_Driver/Src/stm32l0xx_hal_rcc.c ****     [..] Once the device started from reset, the user application has to:
  25:Drivers/STM32L0xx_HAL_Driver/Src/stm32l0xx_hal_rcc.c ****       (+) Configure the clock source to be used to drive the System clock
  26:Drivers/STM32L0xx_HAL_Driver/Src/stm32l0xx_hal_rcc.c ****           (if the application needs higher frequency/performance)
  27:Drivers/STM32L0xx_HAL_Driver/Src/stm32l0xx_hal_rcc.c ****       (+) Configure the System clock frequency and Flash settings
  28:Drivers/STM32L0xx_HAL_Driver/Src/stm32l0xx_hal_rcc.c ****       (+) Configure the AHB and APB buses prescalers
  29:Drivers/STM32L0xx_HAL_Driver/Src/stm32l0xx_hal_rcc.c ****       (+) Enable the clock for the peripheral(s) to be used
  30:Drivers/STM32L0xx_HAL_Driver/Src/stm32l0xx_hal_rcc.c ****       (+) Configure the clock source(s) for peripherals whose clocks are not
  31:Drivers/STM32L0xx_HAL_Driver/Src/stm32l0xx_hal_rcc.c ****           derived from the System clock (I2S, RTC, ADC, USB OTG FS/SDIO/RNG)
  32:Drivers/STM32L0xx_HAL_Driver/Src/stm32l0xx_hal_rcc.c ****           (*) SDIO only for STM32L0xxxD devices
ARM GAS  C:\Users\Tilen\AppData\Local\Temp\ccC0CAdr.s 			page 2


  33:Drivers/STM32L0xx_HAL_Driver/Src/stm32l0xx_hal_rcc.c **** 
  34:Drivers/STM32L0xx_HAL_Driver/Src/stm32l0xx_hal_rcc.c ****                       ##### RCC Limitations #####
  35:Drivers/STM32L0xx_HAL_Driver/Src/stm32l0xx_hal_rcc.c ****   ==============================================================================
  36:Drivers/STM32L0xx_HAL_Driver/Src/stm32l0xx_hal_rcc.c ****     [..]
  37:Drivers/STM32L0xx_HAL_Driver/Src/stm32l0xx_hal_rcc.c ****       A delay between an RCC peripheral clock enable and the effective peripheral
  38:Drivers/STM32L0xx_HAL_Driver/Src/stm32l0xx_hal_rcc.c ****       enabling should be taken into account in order to manage the peripheral read/write
  39:Drivers/STM32L0xx_HAL_Driver/Src/stm32l0xx_hal_rcc.c ****       from/to registers.
  40:Drivers/STM32L0xx_HAL_Driver/Src/stm32l0xx_hal_rcc.c ****       (+) This delay depends on the peripheral mapping.
  41:Drivers/STM32L0xx_HAL_Driver/Src/stm32l0xx_hal_rcc.c ****         (++) AHB & APB peripherals, 1 dummy read is necessary
  42:Drivers/STM32L0xx_HAL_Driver/Src/stm32l0xx_hal_rcc.c **** 
  43:Drivers/STM32L0xx_HAL_Driver/Src/stm32l0xx_hal_rcc.c ****     [..]
  44:Drivers/STM32L0xx_HAL_Driver/Src/stm32l0xx_hal_rcc.c ****       Workarounds:
  45:Drivers/STM32L0xx_HAL_Driver/Src/stm32l0xx_hal_rcc.c ****       (#) For AHB & APB peripherals, a dummy read to the peripheral register has been
  46:Drivers/STM32L0xx_HAL_Driver/Src/stm32l0xx_hal_rcc.c ****           inserted in each __HAL_RCC_PPP_CLK_ENABLE() macro.
  47:Drivers/STM32L0xx_HAL_Driver/Src/stm32l0xx_hal_rcc.c **** 
  48:Drivers/STM32L0xx_HAL_Driver/Src/stm32l0xx_hal_rcc.c ****   @endverbatim
  49:Drivers/STM32L0xx_HAL_Driver/Src/stm32l0xx_hal_rcc.c ****   ******************************************************************************
  50:Drivers/STM32L0xx_HAL_Driver/Src/stm32l0xx_hal_rcc.c ****   * @attention
  51:Drivers/STM32L0xx_HAL_Driver/Src/stm32l0xx_hal_rcc.c ****   *
  52:Drivers/STM32L0xx_HAL_Driver/Src/stm32l0xx_hal_rcc.c ****   * Copyright (c) 2016 STMicroelectronics.
  53:Drivers/STM32L0xx_HAL_Driver/Src/stm32l0xx_hal_rcc.c ****   * All rights reserved.
  54:Drivers/STM32L0xx_HAL_Driver/Src/stm32l0xx_hal_rcc.c ****   *
  55:Drivers/STM32L0xx_HAL_Driver/Src/stm32l0xx_hal_rcc.c ****   * This software is licensed under terms that can be found in the LICENSE file in
  56:Drivers/STM32L0xx_HAL_Driver/Src/stm32l0xx_hal_rcc.c ****   * the root directory of this software component.
  57:Drivers/STM32L0xx_HAL_Driver/Src/stm32l0xx_hal_rcc.c ****   * If no LICENSE file comes with this software, it is provided AS-IS.
  58:Drivers/STM32L0xx_HAL_Driver/Src/stm32l0xx_hal_rcc.c ****   ******************************************************************************
  59:Drivers/STM32L0xx_HAL_Driver/Src/stm32l0xx_hal_rcc.c **** */
  60:Drivers/STM32L0xx_HAL_Driver/Src/stm32l0xx_hal_rcc.c **** 
  61:Drivers/STM32L0xx_HAL_Driver/Src/stm32l0xx_hal_rcc.c **** /* Includes ------------------------------------------------------------------*/
  62:Drivers/STM32L0xx_HAL_Driver/Src/stm32l0xx_hal_rcc.c **** #include "stm32l0xx_hal.h"
  63:Drivers/STM32L0xx_HAL_Driver/Src/stm32l0xx_hal_rcc.c **** 
  64:Drivers/STM32L0xx_HAL_Driver/Src/stm32l0xx_hal_rcc.c **** /** @addtogroup STM32L0xx_HAL_Driver
  65:Drivers/STM32L0xx_HAL_Driver/Src/stm32l0xx_hal_rcc.c ****   * @{
  66:Drivers/STM32L0xx_HAL_Driver/Src/stm32l0xx_hal_rcc.c ****   */
  67:Drivers/STM32L0xx_HAL_Driver/Src/stm32l0xx_hal_rcc.c **** 
  68:Drivers/STM32L0xx_HAL_Driver/Src/stm32l0xx_hal_rcc.c **** /** @defgroup RCC RCC
  69:Drivers/STM32L0xx_HAL_Driver/Src/stm32l0xx_hal_rcc.c **** * @brief RCC HAL module driver
  70:Drivers/STM32L0xx_HAL_Driver/Src/stm32l0xx_hal_rcc.c ****   * @{
  71:Drivers/STM32L0xx_HAL_Driver/Src/stm32l0xx_hal_rcc.c ****   */
  72:Drivers/STM32L0xx_HAL_Driver/Src/stm32l0xx_hal_rcc.c **** 
  73:Drivers/STM32L0xx_HAL_Driver/Src/stm32l0xx_hal_rcc.c **** #ifdef HAL_RCC_MODULE_ENABLED
  74:Drivers/STM32L0xx_HAL_Driver/Src/stm32l0xx_hal_rcc.c **** 
  75:Drivers/STM32L0xx_HAL_Driver/Src/stm32l0xx_hal_rcc.c **** /* Private typedef -----------------------------------------------------------*/
  76:Drivers/STM32L0xx_HAL_Driver/Src/stm32l0xx_hal_rcc.c **** /* Private define ------------------------------------------------------------*/
  77:Drivers/STM32L0xx_HAL_Driver/Src/stm32l0xx_hal_rcc.c **** /* Private macro -------------------------------------------------------------*/
  78:Drivers/STM32L0xx_HAL_Driver/Src/stm32l0xx_hal_rcc.c **** /** @defgroup RCC_Private_Macros RCC Private Macros
  79:Drivers/STM32L0xx_HAL_Driver/Src/stm32l0xx_hal_rcc.c ****   * @{
  80:Drivers/STM32L0xx_HAL_Driver/Src/stm32l0xx_hal_rcc.c ****   */
  81:Drivers/STM32L0xx_HAL_Driver/Src/stm32l0xx_hal_rcc.c **** 
  82:Drivers/STM32L0xx_HAL_Driver/Src/stm32l0xx_hal_rcc.c **** #define MCO1_CLK_ENABLE()     __HAL_RCC_GPIOA_CLK_ENABLE()
  83:Drivers/STM32L0xx_HAL_Driver/Src/stm32l0xx_hal_rcc.c **** #define MCO1_GPIO_PORT        GPIOA
  84:Drivers/STM32L0xx_HAL_Driver/Src/stm32l0xx_hal_rcc.c **** #define MCO1_PIN              GPIO_PIN_8
  85:Drivers/STM32L0xx_HAL_Driver/Src/stm32l0xx_hal_rcc.c **** 
  86:Drivers/STM32L0xx_HAL_Driver/Src/stm32l0xx_hal_rcc.c **** #define MCO2_CLK_ENABLE()     __HAL_RCC_GPIOA_CLK_ENABLE()
  87:Drivers/STM32L0xx_HAL_Driver/Src/stm32l0xx_hal_rcc.c **** #define MCO2_GPIO_PORT        GPIOA
  88:Drivers/STM32L0xx_HAL_Driver/Src/stm32l0xx_hal_rcc.c **** #define MCO2_PIN              GPIO_PIN_9
  89:Drivers/STM32L0xx_HAL_Driver/Src/stm32l0xx_hal_rcc.c **** 
ARM GAS  C:\Users\Tilen\AppData\Local\Temp\ccC0CAdr.s 			page 3


  90:Drivers/STM32L0xx_HAL_Driver/Src/stm32l0xx_hal_rcc.c **** #if defined(RCC_MCO3_SUPPORT)
  91:Drivers/STM32L0xx_HAL_Driver/Src/stm32l0xx_hal_rcc.c **** #define MCO3_CLK_ENABLE()     __HAL_RCC_GPIOB_CLK_ENABLE()
  92:Drivers/STM32L0xx_HAL_Driver/Src/stm32l0xx_hal_rcc.c **** #define MCO3_GPIO_PORT        GPIOB
  93:Drivers/STM32L0xx_HAL_Driver/Src/stm32l0xx_hal_rcc.c **** #define MCO3_PIN              GPIO_PIN_13
  94:Drivers/STM32L0xx_HAL_Driver/Src/stm32l0xx_hal_rcc.c **** #endif /* RCC_MCO3_SUPPORT */
  95:Drivers/STM32L0xx_HAL_Driver/Src/stm32l0xx_hal_rcc.c **** 
  96:Drivers/STM32L0xx_HAL_Driver/Src/stm32l0xx_hal_rcc.c **** /**
  97:Drivers/STM32L0xx_HAL_Driver/Src/stm32l0xx_hal_rcc.c ****   * @}
  98:Drivers/STM32L0xx_HAL_Driver/Src/stm32l0xx_hal_rcc.c ****   */
  99:Drivers/STM32L0xx_HAL_Driver/Src/stm32l0xx_hal_rcc.c **** 
 100:Drivers/STM32L0xx_HAL_Driver/Src/stm32l0xx_hal_rcc.c **** /* Private variables ---------------------------------------------------------*/
 101:Drivers/STM32L0xx_HAL_Driver/Src/stm32l0xx_hal_rcc.c **** /* Private function prototypes -----------------------------------------------*/
 102:Drivers/STM32L0xx_HAL_Driver/Src/stm32l0xx_hal_rcc.c **** /* Exported functions ---------------------------------------------------------*/
 103:Drivers/STM32L0xx_HAL_Driver/Src/stm32l0xx_hal_rcc.c **** 
 104:Drivers/STM32L0xx_HAL_Driver/Src/stm32l0xx_hal_rcc.c **** /** @defgroup RCC_Exported_Functions RCC Exported Functions
 105:Drivers/STM32L0xx_HAL_Driver/Src/stm32l0xx_hal_rcc.c ****   * @{
 106:Drivers/STM32L0xx_HAL_Driver/Src/stm32l0xx_hal_rcc.c ****   */
 107:Drivers/STM32L0xx_HAL_Driver/Src/stm32l0xx_hal_rcc.c **** 
 108:Drivers/STM32L0xx_HAL_Driver/Src/stm32l0xx_hal_rcc.c **** /** @defgroup RCC_Exported_Functions_Group1 Initialization and de-initialization functions
 109:Drivers/STM32L0xx_HAL_Driver/Src/stm32l0xx_hal_rcc.c ****   *  @brief    Initialization and Configuration functions
 110:Drivers/STM32L0xx_HAL_Driver/Src/stm32l0xx_hal_rcc.c ****   *
 111:Drivers/STM32L0xx_HAL_Driver/Src/stm32l0xx_hal_rcc.c ****   @verbatim
 112:Drivers/STM32L0xx_HAL_Driver/Src/stm32l0xx_hal_rcc.c ****   ===============================================================================
 113:Drivers/STM32L0xx_HAL_Driver/Src/stm32l0xx_hal_rcc.c ****            ##### Initialization and de-initialization functions #####
 114:Drivers/STM32L0xx_HAL_Driver/Src/stm32l0xx_hal_rcc.c ****   ===============================================================================
 115:Drivers/STM32L0xx_HAL_Driver/Src/stm32l0xx_hal_rcc.c ****     [..]
 116:Drivers/STM32L0xx_HAL_Driver/Src/stm32l0xx_hal_rcc.c ****       This section provides functions allowing to configure the internal/external oscillators
 117:Drivers/STM32L0xx_HAL_Driver/Src/stm32l0xx_hal_rcc.c ****       (MSI, HSE, HSI, LSE, LSI, PLL, CSS and MCO) and the System buses clocks (SYSCLK, AHB, APB1
 118:Drivers/STM32L0xx_HAL_Driver/Src/stm32l0xx_hal_rcc.c ****       and APB2).
 119:Drivers/STM32L0xx_HAL_Driver/Src/stm32l0xx_hal_rcc.c **** 
 120:Drivers/STM32L0xx_HAL_Driver/Src/stm32l0xx_hal_rcc.c ****     [..] Internal/external clock and PLL configuration
 121:Drivers/STM32L0xx_HAL_Driver/Src/stm32l0xx_hal_rcc.c ****       (#) MSI (Multispeed internal), Seven frequency ranges are available: 65.536 kHz,
 122:Drivers/STM32L0xx_HAL_Driver/Src/stm32l0xx_hal_rcc.c ****           131.072 kHz, 262.144 kHz, 524.288 kHz, 1.048 MHz, 2.097 MHz (default value) and 4.194 MHz
 123:Drivers/STM32L0xx_HAL_Driver/Src/stm32l0xx_hal_rcc.c **** 
 124:Drivers/STM32L0xx_HAL_Driver/Src/stm32l0xx_hal_rcc.c ****       (#) HSI (high-speed internal), 16 MHz factory-trimmed RC used directly or through
 125:Drivers/STM32L0xx_HAL_Driver/Src/stm32l0xx_hal_rcc.c ****           the PLL as System clock source.
 126:Drivers/STM32L0xx_HAL_Driver/Src/stm32l0xx_hal_rcc.c ****       (#) LSI (low-speed internal), ~37 KHz low consumption RC used as IWDG and/or RTC
 127:Drivers/STM32L0xx_HAL_Driver/Src/stm32l0xx_hal_rcc.c ****           clock source.
 128:Drivers/STM32L0xx_HAL_Driver/Src/stm32l0xx_hal_rcc.c **** 
 129:Drivers/STM32L0xx_HAL_Driver/Src/stm32l0xx_hal_rcc.c ****       (#) HSE (high-speed external), 1 to 24 MHz crystal oscillator used directly or
 130:Drivers/STM32L0xx_HAL_Driver/Src/stm32l0xx_hal_rcc.c ****           through the PLL as System clock source. Can be used also as RTC clock source.
 131:Drivers/STM32L0xx_HAL_Driver/Src/stm32l0xx_hal_rcc.c **** 
 132:Drivers/STM32L0xx_HAL_Driver/Src/stm32l0xx_hal_rcc.c ****       (#) LSE (low-speed external), 32 KHz oscillator used as RTC clock source.
 133:Drivers/STM32L0xx_HAL_Driver/Src/stm32l0xx_hal_rcc.c **** 
 134:Drivers/STM32L0xx_HAL_Driver/Src/stm32l0xx_hal_rcc.c ****       (#) PLL (clocked by HSI or HSE), featuring different output clocks:
 135:Drivers/STM32L0xx_HAL_Driver/Src/stm32l0xx_hal_rcc.c ****         (++) The first output is used to generate the high speed system clock (up to 32 MHz)
 136:Drivers/STM32L0xx_HAL_Driver/Src/stm32l0xx_hal_rcc.c ****         (++) The second output is used to generate the clock for the USB OTG FS (48 MHz)
 137:Drivers/STM32L0xx_HAL_Driver/Src/stm32l0xx_hal_rcc.c **** 
 138:Drivers/STM32L0xx_HAL_Driver/Src/stm32l0xx_hal_rcc.c ****       (#) CSS (Clock security system), once enable using the macro __HAL_RCC_CSS_ENABLE()
 139:Drivers/STM32L0xx_HAL_Driver/Src/stm32l0xx_hal_rcc.c ****           and if a HSE clock failure occurs(HSE used directly or through PLL as System
 140:Drivers/STM32L0xx_HAL_Driver/Src/stm32l0xx_hal_rcc.c ****           clock source), the System clocks automatically switched to MSI and an interrupt
 141:Drivers/STM32L0xx_HAL_Driver/Src/stm32l0xx_hal_rcc.c ****           is generated if enabled. The interrupt is linked to the Cortex-M0+ NMI
 142:Drivers/STM32L0xx_HAL_Driver/Src/stm32l0xx_hal_rcc.c ****           (Non-Maskable Interrupt) exception vector.
 143:Drivers/STM32L0xx_HAL_Driver/Src/stm32l0xx_hal_rcc.c **** 
 144:Drivers/STM32L0xx_HAL_Driver/Src/stm32l0xx_hal_rcc.c ****       (#) MCO1/MCO2/MCO3 (microcontroller clock output), used to output SYSCLK, HSI, LSI, MSI, LSE,
 145:Drivers/STM32L0xx_HAL_Driver/Src/stm32l0xx_hal_rcc.c ****           HSE, HSI48 or PLL clock (through a configurable prescaler) on PA8/PA9/PB13 pins.
 146:Drivers/STM32L0xx_HAL_Driver/Src/stm32l0xx_hal_rcc.c **** 
ARM GAS  C:\Users\Tilen\AppData\Local\Temp\ccC0CAdr.s 			page 4


 147:Drivers/STM32L0xx_HAL_Driver/Src/stm32l0xx_hal_rcc.c ****     [..] System, AHB and APB buses clocks configuration
 148:Drivers/STM32L0xx_HAL_Driver/Src/stm32l0xx_hal_rcc.c ****       (#) Several clock sources can be used to drive the System clock (SYSCLK): MSI, HSI,
 149:Drivers/STM32L0xx_HAL_Driver/Src/stm32l0xx_hal_rcc.c ****           HSE and PLL.
 150:Drivers/STM32L0xx_HAL_Driver/Src/stm32l0xx_hal_rcc.c ****           The AHB clock (HCLK) is derived from System clock through configurable
 151:Drivers/STM32L0xx_HAL_Driver/Src/stm32l0xx_hal_rcc.c ****           prescaler and used to clock the CPU, memory and peripherals mapped
 152:Drivers/STM32L0xx_HAL_Driver/Src/stm32l0xx_hal_rcc.c ****           on AHB bus (DMA, GPIO...). APB1 (PCLK1) and APB2 (PCLK2) clocks are derived
 153:Drivers/STM32L0xx_HAL_Driver/Src/stm32l0xx_hal_rcc.c ****           from AHB clock through configurable prescalers and used to clock
 154:Drivers/STM32L0xx_HAL_Driver/Src/stm32l0xx_hal_rcc.c ****           the peripherals mapped on these buses. You can use
 155:Drivers/STM32L0xx_HAL_Driver/Src/stm32l0xx_hal_rcc.c ****           "HAL_RCC_GetSysClockFreq()" function to retrieve the frequencies of these clocks.
 156:Drivers/STM32L0xx_HAL_Driver/Src/stm32l0xx_hal_rcc.c **** 
 157:Drivers/STM32L0xx_HAL_Driver/Src/stm32l0xx_hal_rcc.c ****       -@- All the peripheral clocks are derived from the System clock (SYSCLK) except:
 158:Drivers/STM32L0xx_HAL_Driver/Src/stm32l0xx_hal_rcc.c ****           (+@) RTC: RTC clock can be derived either from the LSI, LSE or HSE clock
 159:Drivers/STM32L0xx_HAL_Driver/Src/stm32l0xx_hal_rcc.c ****               divided by 2 to 16. You have to use __HAL_RCC_RTC_CONFIG() and __HAL_RCC_RTC_ENABLE()
 160:Drivers/STM32L0xx_HAL_Driver/Src/stm32l0xx_hal_rcc.c ****               macros to configure this clock.
 161:Drivers/STM32L0xx_HAL_Driver/Src/stm32l0xx_hal_rcc.c ****           (+@) LCD: LCD clock can be derived either from the LSI, LSE or HSE clock
 162:Drivers/STM32L0xx_HAL_Driver/Src/stm32l0xx_hal_rcc.c ****               divided by 2 to 16. You have to use __HAL_RCC_LCD_CONFIG()
 163:Drivers/STM32L0xx_HAL_Driver/Src/stm32l0xx_hal_rcc.c ****               macros to configure this clock.
 164:Drivers/STM32L0xx_HAL_Driver/Src/stm32l0xx_hal_rcc.c ****           (+@) USB FS and RNG: USB FS require a frequency equal to 48 MHz to work correctly.
 165:Drivers/STM32L0xx_HAL_Driver/Src/stm32l0xx_hal_rcc.c ****                This clock is derived of the main PLL through PLL Multiplier or HSI48 RC oscillator.
 166:Drivers/STM32L0xx_HAL_Driver/Src/stm32l0xx_hal_rcc.c **** 
 167:Drivers/STM32L0xx_HAL_Driver/Src/stm32l0xx_hal_rcc.c ****           (+@) IWDG clock which is always the LSI clock.
 168:Drivers/STM32L0xx_HAL_Driver/Src/stm32l0xx_hal_rcc.c **** 
 169:Drivers/STM32L0xx_HAL_Driver/Src/stm32l0xx_hal_rcc.c ****       (#) The maximum frequency of the SYSCLK and HCLK is 32 MHz, PCLK2 32 MHz
 170:Drivers/STM32L0xx_HAL_Driver/Src/stm32l0xx_hal_rcc.c ****           and PCLK1 32 MHz. Depending on the device voltage range, the maximum
 171:Drivers/STM32L0xx_HAL_Driver/Src/stm32l0xx_hal_rcc.c ****           frequency should be adapted accordingly.
 172:Drivers/STM32L0xx_HAL_Driver/Src/stm32l0xx_hal_rcc.c ****   @endverbatim
 173:Drivers/STM32L0xx_HAL_Driver/Src/stm32l0xx_hal_rcc.c ****   * @{
 174:Drivers/STM32L0xx_HAL_Driver/Src/stm32l0xx_hal_rcc.c ****   */
 175:Drivers/STM32L0xx_HAL_Driver/Src/stm32l0xx_hal_rcc.c **** 
 176:Drivers/STM32L0xx_HAL_Driver/Src/stm32l0xx_hal_rcc.c **** /*
 177:Drivers/STM32L0xx_HAL_Driver/Src/stm32l0xx_hal_rcc.c ****   Additional consideration on the HCLK based on Latency settings:
 178:Drivers/STM32L0xx_HAL_Driver/Src/stm32l0xx_hal_rcc.c ****   +----------------------------------------------------------------------+
 179:Drivers/STM32L0xx_HAL_Driver/Src/stm32l0xx_hal_rcc.c ****   | Latency       |                HCLK clock frequency (MHz)            |
 180:Drivers/STM32L0xx_HAL_Driver/Src/stm32l0xx_hal_rcc.c ****   |               |------------------------------------------------------|
 181:Drivers/STM32L0xx_HAL_Driver/Src/stm32l0xx_hal_rcc.c ****   |               | voltage range 1  | voltage range 2 | voltage range 3 |
 182:Drivers/STM32L0xx_HAL_Driver/Src/stm32l0xx_hal_rcc.c ****   |               |      1.8 V       |     1.5 V       |      1.2 V      |
 183:Drivers/STM32L0xx_HAL_Driver/Src/stm32l0xx_hal_rcc.c ****   |---------------|------------------|-----------------|-----------------|
 184:Drivers/STM32L0xx_HAL_Driver/Src/stm32l0xx_hal_rcc.c ****   |0WS(1CPU cycle)| 0 < HCLK <= 16   | 0 < HCLK <= 8   | 0 < HCLK <= 4.2 |
 185:Drivers/STM32L0xx_HAL_Driver/Src/stm32l0xx_hal_rcc.c ****   |---------------|------------------|-----------------|-----------------|
 186:Drivers/STM32L0xx_HAL_Driver/Src/stm32l0xx_hal_rcc.c ****   |1WS(2CPU cycle)| 16 < HCLK <= 32  | 8 < HCLK <= 16  |                 |
 187:Drivers/STM32L0xx_HAL_Driver/Src/stm32l0xx_hal_rcc.c ****   +----------------------------------------------------------------------+
 188:Drivers/STM32L0xx_HAL_Driver/Src/stm32l0xx_hal_rcc.c **** 
 189:Drivers/STM32L0xx_HAL_Driver/Src/stm32l0xx_hal_rcc.c ****   The following table gives the different clock source frequencies depending on the product
 190:Drivers/STM32L0xx_HAL_Driver/Src/stm32l0xx_hal_rcc.c ****   voltage range:
 191:Drivers/STM32L0xx_HAL_Driver/Src/stm32l0xx_hal_rcc.c ****   +------------------------------------------------------------------------------------------+
 192:Drivers/STM32L0xx_HAL_Driver/Src/stm32l0xx_hal_rcc.c ****   | Product voltage |                    Clock frequency                                     |
 193:Drivers/STM32L0xx_HAL_Driver/Src/stm32l0xx_hal_rcc.c ****   |                 |------------------|-----------------------------|-----------------------|
 194:Drivers/STM32L0xx_HAL_Driver/Src/stm32l0xx_hal_rcc.c ****   |      range      |   MSI   |   HSI  |              HSE            |          PLL          |
 195:Drivers/STM32L0xx_HAL_Driver/Src/stm32l0xx_hal_rcc.c ****   |-----------------|---------|--------|-----------------------------|-----------------------|
 196:Drivers/STM32L0xx_HAL_Driver/Src/stm32l0xx_hal_rcc.c ****   | Range 1 (1.8 V) | 4.2 MHz | 16 MHz | HSE 32 MHz (external clock) |         32 MHz        |
 197:Drivers/STM32L0xx_HAL_Driver/Src/stm32l0xx_hal_rcc.c ****   |                 |         |        |      or 24 MHz (crystal)    | (PLLVCO max = 96 MHz) |
 198:Drivers/STM32L0xx_HAL_Driver/Src/stm32l0xx_hal_rcc.c ****   |-----------------|---------|--------|-----------------------------|-----------------------|
 199:Drivers/STM32L0xx_HAL_Driver/Src/stm32l0xx_hal_rcc.c ****   | Range 2 (1.5 V) | 4.2 MHz | 16 MHz |         16 MHz              |         16 MHz        |
 200:Drivers/STM32L0xx_HAL_Driver/Src/stm32l0xx_hal_rcc.c ****   |                 |         |        |                             | (PLLVCO max = 48 MHz) |
 201:Drivers/STM32L0xx_HAL_Driver/Src/stm32l0xx_hal_rcc.c ****   |-----------------|---------|--------|-----------------------------|-----------------------|
 202:Drivers/STM32L0xx_HAL_Driver/Src/stm32l0xx_hal_rcc.c ****   | Range 3 (1.2 V) | 4.2 MHz |   NA   |         8 MHz               |           4 MHz       |
 203:Drivers/STM32L0xx_HAL_Driver/Src/stm32l0xx_hal_rcc.c ****   |                 |         |        |                             | (PLLVCO max = 24 MHz) |
ARM GAS  C:\Users\Tilen\AppData\Local\Temp\ccC0CAdr.s 			page 5


 204:Drivers/STM32L0xx_HAL_Driver/Src/stm32l0xx_hal_rcc.c ****   +------------------------------------------------------------------------------------------+
 205:Drivers/STM32L0xx_HAL_Driver/Src/stm32l0xx_hal_rcc.c ****   */
 206:Drivers/STM32L0xx_HAL_Driver/Src/stm32l0xx_hal_rcc.c **** 
 207:Drivers/STM32L0xx_HAL_Driver/Src/stm32l0xx_hal_rcc.c **** /**
 208:Drivers/STM32L0xx_HAL_Driver/Src/stm32l0xx_hal_rcc.c ****   * @brief  Resets the RCC clock configuration to the default reset state.
 209:Drivers/STM32L0xx_HAL_Driver/Src/stm32l0xx_hal_rcc.c ****   * @note   The default reset state of the clock configuration is given below:
 210:Drivers/STM32L0xx_HAL_Driver/Src/stm32l0xx_hal_rcc.c ****   *            - MSI ON and used as system clock source
 211:Drivers/STM32L0xx_HAL_Driver/Src/stm32l0xx_hal_rcc.c ****   *            - HSI, HSE and PLL  OFF
 212:Drivers/STM32L0xx_HAL_Driver/Src/stm32l0xx_hal_rcc.c ****   *            - AHB, APB1 and APB2 prescaler set to 1.
 213:Drivers/STM32L0xx_HAL_Driver/Src/stm32l0xx_hal_rcc.c ****   *            - CSS and MCO1/MCO2/MCO3 OFF
 214:Drivers/STM32L0xx_HAL_Driver/Src/stm32l0xx_hal_rcc.c ****   *            - All interrupts disabled
 215:Drivers/STM32L0xx_HAL_Driver/Src/stm32l0xx_hal_rcc.c ****   * @note   This function does not modify the configuration of the
 216:Drivers/STM32L0xx_HAL_Driver/Src/stm32l0xx_hal_rcc.c ****   *            - Peripheral clocks
 217:Drivers/STM32L0xx_HAL_Driver/Src/stm32l0xx_hal_rcc.c ****   *            - LSI, LSE and RTC clocks
 218:Drivers/STM32L0xx_HAL_Driver/Src/stm32l0xx_hal_rcc.c ****   *            - HSI48 clock
 219:Drivers/STM32L0xx_HAL_Driver/Src/stm32l0xx_hal_rcc.c ****   * @retval None
 220:Drivers/STM32L0xx_HAL_Driver/Src/stm32l0xx_hal_rcc.c ****   */
 221:Drivers/STM32L0xx_HAL_Driver/Src/stm32l0xx_hal_rcc.c **** HAL_StatusTypeDef HAL_RCC_DeInit(void)
 222:Drivers/STM32L0xx_HAL_Driver/Src/stm32l0xx_hal_rcc.c **** {
  27              		.loc 1 222 1 view -0
  28              		.cfi_startproc
  29              		@ args = 0, pretend = 0, frame = 8
  30              		@ frame_needed = 0, uses_anonymous_args = 0
  31 0000 30B5     		push	{r4, r5, lr}
  32              	.LCFI0:
  33              		.cfi_def_cfa_offset 12
  34              		.cfi_offset 4, -12
  35              		.cfi_offset 5, -8
  36              		.cfi_offset 14, -4
  37 0002 83B0     		sub	sp, sp, #12
  38              	.LCFI1:
  39              		.cfi_def_cfa_offset 24
 223:Drivers/STM32L0xx_HAL_Driver/Src/stm32l0xx_hal_rcc.c ****   __IO uint32_t tmpreg;
  40              		.loc 1 223 3 view .LVU1
 224:Drivers/STM32L0xx_HAL_Driver/Src/stm32l0xx_hal_rcc.c ****   uint32_t tickstart;
  41              		.loc 1 224 3 view .LVU2
 225:Drivers/STM32L0xx_HAL_Driver/Src/stm32l0xx_hal_rcc.c ****   uint32_t vl_mask;
  42              		.loc 1 225 3 view .LVU3
 226:Drivers/STM32L0xx_HAL_Driver/Src/stm32l0xx_hal_rcc.c ****   HAL_StatusTypeDef status;
  43              		.loc 1 226 3 view .LVU4
 227:Drivers/STM32L0xx_HAL_Driver/Src/stm32l0xx_hal_rcc.c **** 
 228:Drivers/STM32L0xx_HAL_Driver/Src/stm32l0xx_hal_rcc.c ****   /* Set MSIClockRange, HSITRIM and MSITRIM bits to the reset values */
 229:Drivers/STM32L0xx_HAL_Driver/Src/stm32l0xx_hal_rcc.c ****   MODIFY_REG(RCC->ICSCR, (RCC_ICSCR_MSITRIM | RCC_ICSCR_HSITRIM | RCC_ICSCR_MSIRANGE), \
  44              		.loc 1 229 3 view .LVU5
  45 0004 304B     		ldr	r3, .L15
  46 0006 5968     		ldr	r1, [r3, #4]
  47 0008 304A     		ldr	r2, .L15+4
  48 000a 1140     		ands	r1, r2
  49 000c B022     		movs	r2, #176
  50 000e 1202     		lsls	r2, r2, #8
  51 0010 0A43     		orrs	r2, r1
  52 0012 5A60     		str	r2, [r3, #4]
 230:Drivers/STM32L0xx_HAL_Driver/Src/stm32l0xx_hal_rcc.c ****             ((RCC_MSICALIBRATION_DEFAULT << RCC_ICSCR_MSITRIM_Pos) | (RCC_HSICALIBRATION_DEFAULT <<
 231:Drivers/STM32L0xx_HAL_Driver/Src/stm32l0xx_hal_rcc.c **** 
 232:Drivers/STM32L0xx_HAL_Driver/Src/stm32l0xx_hal_rcc.c ****   /* Set MSION bit */
 233:Drivers/STM32L0xx_HAL_Driver/Src/stm32l0xx_hal_rcc.c ****   SET_BIT(RCC->CR, RCC_CR_MSION);
  53              		.loc 1 233 3 view .LVU6
ARM GAS  C:\Users\Tilen\AppData\Local\Temp\ccC0CAdr.s 			page 6


  54 0014 1968     		ldr	r1, [r3]
  55 0016 8022     		movs	r2, #128
  56 0018 5200     		lsls	r2, r2, #1
  57 001a 0A43     		orrs	r2, r1
  58 001c 1A60     		str	r2, [r3]
 234:Drivers/STM32L0xx_HAL_Driver/Src/stm32l0xx_hal_rcc.c **** 
 235:Drivers/STM32L0xx_HAL_Driver/Src/stm32l0xx_hal_rcc.c ****   /* Get Start Tick*/
 236:Drivers/STM32L0xx_HAL_Driver/Src/stm32l0xx_hal_rcc.c ****   tickstart = HAL_GetTick();
  59              		.loc 1 236 3 view .LVU7
  60              		.loc 1 236 15 is_stmt 0 view .LVU8
  61 001e FFF7FEFF 		bl	HAL_GetTick
  62              	.LVL0:
  63 0022 0400     		movs	r4, r0
  64              	.LVL1:
 237:Drivers/STM32L0xx_HAL_Driver/Src/stm32l0xx_hal_rcc.c **** 
 238:Drivers/STM32L0xx_HAL_Driver/Src/stm32l0xx_hal_rcc.c ****   /* Wait till MSI is ready */
 239:Drivers/STM32L0xx_HAL_Driver/Src/stm32l0xx_hal_rcc.c ****   while (READ_BIT(RCC->CR, RCC_CR_MSIRDY) == 0U)
  65              		.loc 1 239 3 is_stmt 1 view .LVU9
  66              	.L2:
  67              		.loc 1 239 43 view .LVU10
  68              		.loc 1 239 10 is_stmt 0 view .LVU11
  69 0024 284B     		ldr	r3, .L15
  70 0026 1B68     		ldr	r3, [r3]
  71              		.loc 1 239 43 view .LVU12
  72 0028 9B05     		lsls	r3, r3, #22
  73 002a 08D4     		bmi	.L12
 240:Drivers/STM32L0xx_HAL_Driver/Src/stm32l0xx_hal_rcc.c ****   {
 241:Drivers/STM32L0xx_HAL_Driver/Src/stm32l0xx_hal_rcc.c ****     if ((HAL_GetTick() - tickstart) > MSI_TIMEOUT_VALUE)
  74              		.loc 1 241 5 is_stmt 1 view .LVU13
  75              		.loc 1 241 10 is_stmt 0 view .LVU14
  76 002c FFF7FEFF 		bl	HAL_GetTick
  77              	.LVL2:
  78              		.loc 1 241 24 discriminator 1 view .LVU15
  79 0030 001B     		subs	r0, r0, r4
  80              		.loc 1 241 8 discriminator 1 view .LVU16
  81 0032 0228     		cmp	r0, #2
  82 0034 F6D9     		bls	.L2
 242:Drivers/STM32L0xx_HAL_Driver/Src/stm32l0xx_hal_rcc.c ****     {
 243:Drivers/STM32L0xx_HAL_Driver/Src/stm32l0xx_hal_rcc.c ****       return HAL_TIMEOUT;
  83              		.loc 1 243 14 view .LVU17
  84 0036 0324     		movs	r4, #3
  85              	.LVL3:
  86              	.L3:
 244:Drivers/STM32L0xx_HAL_Driver/Src/stm32l0xx_hal_rcc.c ****     }
 245:Drivers/STM32L0xx_HAL_Driver/Src/stm32l0xx_hal_rcc.c ****   }
 246:Drivers/STM32L0xx_HAL_Driver/Src/stm32l0xx_hal_rcc.c **** 
 247:Drivers/STM32L0xx_HAL_Driver/Src/stm32l0xx_hal_rcc.c ****   /* Switch SYSCLK to MSI*/
 248:Drivers/STM32L0xx_HAL_Driver/Src/stm32l0xx_hal_rcc.c ****   CLEAR_BIT(RCC->CFGR, RCC_CFGR_SW);
 249:Drivers/STM32L0xx_HAL_Driver/Src/stm32l0xx_hal_rcc.c **** 
 250:Drivers/STM32L0xx_HAL_Driver/Src/stm32l0xx_hal_rcc.c ****   /* Wait till MSI as SYSCLK status is ready */
 251:Drivers/STM32L0xx_HAL_Driver/Src/stm32l0xx_hal_rcc.c ****   while (READ_BIT(RCC->CFGR, RCC_CFGR_SWS) != 0U)
 252:Drivers/STM32L0xx_HAL_Driver/Src/stm32l0xx_hal_rcc.c ****   {
 253:Drivers/STM32L0xx_HAL_Driver/Src/stm32l0xx_hal_rcc.c ****     if ((HAL_GetTick() - tickstart) > CLOCKSWITCH_TIMEOUT_VALUE)
 254:Drivers/STM32L0xx_HAL_Driver/Src/stm32l0xx_hal_rcc.c ****     {
 255:Drivers/STM32L0xx_HAL_Driver/Src/stm32l0xx_hal_rcc.c ****       return HAL_TIMEOUT;
 256:Drivers/STM32L0xx_HAL_Driver/Src/stm32l0xx_hal_rcc.c ****     }
 257:Drivers/STM32L0xx_HAL_Driver/Src/stm32l0xx_hal_rcc.c ****   }
ARM GAS  C:\Users\Tilen\AppData\Local\Temp\ccC0CAdr.s 			page 7


 258:Drivers/STM32L0xx_HAL_Driver/Src/stm32l0xx_hal_rcc.c **** 
 259:Drivers/STM32L0xx_HAL_Driver/Src/stm32l0xx_hal_rcc.c ****   /* Update the SystemCoreClock global variable for MSI as system clock source */
 260:Drivers/STM32L0xx_HAL_Driver/Src/stm32l0xx_hal_rcc.c ****   SystemCoreClock = MSI_VALUE;
 261:Drivers/STM32L0xx_HAL_Driver/Src/stm32l0xx_hal_rcc.c **** 
 262:Drivers/STM32L0xx_HAL_Driver/Src/stm32l0xx_hal_rcc.c ****   /* Configure the source of time base considering new system clock settings  */
 263:Drivers/STM32L0xx_HAL_Driver/Src/stm32l0xx_hal_rcc.c ****   status = HAL_InitTick(uwTickPrio);
 264:Drivers/STM32L0xx_HAL_Driver/Src/stm32l0xx_hal_rcc.c ****   if(status != HAL_OK)
 265:Drivers/STM32L0xx_HAL_Driver/Src/stm32l0xx_hal_rcc.c ****   {
 266:Drivers/STM32L0xx_HAL_Driver/Src/stm32l0xx_hal_rcc.c ****     return status;
 267:Drivers/STM32L0xx_HAL_Driver/Src/stm32l0xx_hal_rcc.c ****   }
 268:Drivers/STM32L0xx_HAL_Driver/Src/stm32l0xx_hal_rcc.c **** 
 269:Drivers/STM32L0xx_HAL_Driver/Src/stm32l0xx_hal_rcc.c ****   /* Reset HSE, HSI, CSS, PLL */
 270:Drivers/STM32L0xx_HAL_Driver/Src/stm32l0xx_hal_rcc.c **** #if defined(RCC_CR_CSSHSEON) && defined(RCC_CR_HSIOUTEN)
 271:Drivers/STM32L0xx_HAL_Driver/Src/stm32l0xx_hal_rcc.c ****   CLEAR_BIT(RCC->CR, RCC_CR_HSION| RCC_CR_HSIKERON| RCC_CR_HSIDIVEN | RCC_CR_HSIOUTEN | \
 272:Drivers/STM32L0xx_HAL_Driver/Src/stm32l0xx_hal_rcc.c ****                      RCC_CR_HSEON | RCC_CR_CSSHSEON | RCC_CR_PLLON);
 273:Drivers/STM32L0xx_HAL_Driver/Src/stm32l0xx_hal_rcc.c **** #elif !defined(RCC_CR_CSSHSEON) && defined(RCC_CR_HSIOUTEN)
 274:Drivers/STM32L0xx_HAL_Driver/Src/stm32l0xx_hal_rcc.c ****   CLEAR_BIT(RCC->CR, RCC_CR_HSION| RCC_CR_HSIKERON| RCC_CR_HSIDIVEN | RCC_CR_HSIOUTEN | \
 275:Drivers/STM32L0xx_HAL_Driver/Src/stm32l0xx_hal_rcc.c ****                      RCC_CR_HSEON | RCC_CR_PLLON);
 276:Drivers/STM32L0xx_HAL_Driver/Src/stm32l0xx_hal_rcc.c **** #elif defined(RCC_CR_CSSHSEON) && !defined(RCC_CR_HSIOUTEN)
 277:Drivers/STM32L0xx_HAL_Driver/Src/stm32l0xx_hal_rcc.c ****   CLEAR_BIT(RCC->CR, RCC_CR_HSION| RCC_CR_HSIKERON| RCC_CR_HSIDIVEN | \
 278:Drivers/STM32L0xx_HAL_Driver/Src/stm32l0xx_hal_rcc.c ****                      RCC_CR_HSEON | RCC_CR_CSSHSEON | RCC_CR_PLLON);
 279:Drivers/STM32L0xx_HAL_Driver/Src/stm32l0xx_hal_rcc.c **** #endif
 280:Drivers/STM32L0xx_HAL_Driver/Src/stm32l0xx_hal_rcc.c **** 
 281:Drivers/STM32L0xx_HAL_Driver/Src/stm32l0xx_hal_rcc.c ****   /* Delay after an RCC peripheral clock */ \
 282:Drivers/STM32L0xx_HAL_Driver/Src/stm32l0xx_hal_rcc.c ****   tmpreg = READ_BIT(RCC->CR, RCC_CR_HSEON);      \
 283:Drivers/STM32L0xx_HAL_Driver/Src/stm32l0xx_hal_rcc.c ****   UNUSED(tmpreg);
 284:Drivers/STM32L0xx_HAL_Driver/Src/stm32l0xx_hal_rcc.c **** 
 285:Drivers/STM32L0xx_HAL_Driver/Src/stm32l0xx_hal_rcc.c ****   /* Reset HSEBYP bit */
 286:Drivers/STM32L0xx_HAL_Driver/Src/stm32l0xx_hal_rcc.c ****   CLEAR_BIT(RCC->CR, RCC_CR_HSEBYP);
 287:Drivers/STM32L0xx_HAL_Driver/Src/stm32l0xx_hal_rcc.c **** 
 288:Drivers/STM32L0xx_HAL_Driver/Src/stm32l0xx_hal_rcc.c ****   /* Get Start Tick*/
 289:Drivers/STM32L0xx_HAL_Driver/Src/stm32l0xx_hal_rcc.c ****   tickstart = HAL_GetTick();
 290:Drivers/STM32L0xx_HAL_Driver/Src/stm32l0xx_hal_rcc.c **** 
 291:Drivers/STM32L0xx_HAL_Driver/Src/stm32l0xx_hal_rcc.c ****   /* Wait till PLL is not ready */
 292:Drivers/STM32L0xx_HAL_Driver/Src/stm32l0xx_hal_rcc.c ****   while (READ_BIT(RCC->CR, RCC_CR_PLLRDY) != 0U)
 293:Drivers/STM32L0xx_HAL_Driver/Src/stm32l0xx_hal_rcc.c ****   {
 294:Drivers/STM32L0xx_HAL_Driver/Src/stm32l0xx_hal_rcc.c ****     if ((HAL_GetTick() - tickstart) > PLL_TIMEOUT_VALUE)
 295:Drivers/STM32L0xx_HAL_Driver/Src/stm32l0xx_hal_rcc.c ****     {
 296:Drivers/STM32L0xx_HAL_Driver/Src/stm32l0xx_hal_rcc.c ****       return HAL_TIMEOUT;
 297:Drivers/STM32L0xx_HAL_Driver/Src/stm32l0xx_hal_rcc.c ****     }
 298:Drivers/STM32L0xx_HAL_Driver/Src/stm32l0xx_hal_rcc.c ****   }
 299:Drivers/STM32L0xx_HAL_Driver/Src/stm32l0xx_hal_rcc.c **** 
 300:Drivers/STM32L0xx_HAL_Driver/Src/stm32l0xx_hal_rcc.c ****   /* Reset CFGR register */
 301:Drivers/STM32L0xx_HAL_Driver/Src/stm32l0xx_hal_rcc.c ****   CLEAR_REG(RCC->CFGR);
 302:Drivers/STM32L0xx_HAL_Driver/Src/stm32l0xx_hal_rcc.c **** 
 303:Drivers/STM32L0xx_HAL_Driver/Src/stm32l0xx_hal_rcc.c ****   /* Disable all interrupts */
 304:Drivers/STM32L0xx_HAL_Driver/Src/stm32l0xx_hal_rcc.c ****   CLEAR_REG(RCC->CIER);
 305:Drivers/STM32L0xx_HAL_Driver/Src/stm32l0xx_hal_rcc.c **** 
 306:Drivers/STM32L0xx_HAL_Driver/Src/stm32l0xx_hal_rcc.c ****   /* Clear all flags */
 307:Drivers/STM32L0xx_HAL_Driver/Src/stm32l0xx_hal_rcc.c ****   vl_mask = RCC_CICR_LSIRDYC | RCC_CICR_LSERDYC | RCC_CICR_HSIRDYC | RCC_CICR_HSERDYC | RCC_CICR_PL
 308:Drivers/STM32L0xx_HAL_Driver/Src/stm32l0xx_hal_rcc.c **** #if defined(RCC_HSI48_SUPPORT)
 309:Drivers/STM32L0xx_HAL_Driver/Src/stm32l0xx_hal_rcc.c ****   vl_mask |= RCC_CICR_HSI48RDYC;
 310:Drivers/STM32L0xx_HAL_Driver/Src/stm32l0xx_hal_rcc.c **** #endif
 311:Drivers/STM32L0xx_HAL_Driver/Src/stm32l0xx_hal_rcc.c **** #if defined(RCC_HSECSS_SUPPORT)
 312:Drivers/STM32L0xx_HAL_Driver/Src/stm32l0xx_hal_rcc.c ****   vl_mask |= RCC_CICR_CSSHSEC;
 313:Drivers/STM32L0xx_HAL_Driver/Src/stm32l0xx_hal_rcc.c **** #endif
 314:Drivers/STM32L0xx_HAL_Driver/Src/stm32l0xx_hal_rcc.c ****   WRITE_REG(RCC->CICR, vl_mask);
ARM GAS  C:\Users\Tilen\AppData\Local\Temp\ccC0CAdr.s 			page 8


 315:Drivers/STM32L0xx_HAL_Driver/Src/stm32l0xx_hal_rcc.c **** 
 316:Drivers/STM32L0xx_HAL_Driver/Src/stm32l0xx_hal_rcc.c ****   /* Clear all reset flags */
 317:Drivers/STM32L0xx_HAL_Driver/Src/stm32l0xx_hal_rcc.c ****   SET_BIT(RCC->CSR, RCC_CSR_RMVF);
 318:Drivers/STM32L0xx_HAL_Driver/Src/stm32l0xx_hal_rcc.c **** 
 319:Drivers/STM32L0xx_HAL_Driver/Src/stm32l0xx_hal_rcc.c ****   return HAL_OK;
 320:Drivers/STM32L0xx_HAL_Driver/Src/stm32l0xx_hal_rcc.c **** }
  87              		.loc 1 320 1 view .LVU18
  88 0038 2000     		movs	r0, r4
  89 003a 03B0     		add	sp, sp, #12
  90              		@ sp needed
  91 003c 30BD     		pop	{r4, r5, pc}
  92              	.LVL4:
  93              	.L12:
 248:Drivers/STM32L0xx_HAL_Driver/Src/stm32l0xx_hal_rcc.c **** 
  94              		.loc 1 248 3 is_stmt 1 view .LVU19
  95 003e 224A     		ldr	r2, .L15
  96 0040 D368     		ldr	r3, [r2, #12]
  97 0042 0321     		movs	r1, #3
  98 0044 8B43     		bics	r3, r1
  99 0046 D360     		str	r3, [r2, #12]
 251:Drivers/STM32L0xx_HAL_Driver/Src/stm32l0xx_hal_rcc.c ****   {
 100              		.loc 1 251 3 view .LVU20
 101              	.L5:
 251:Drivers/STM32L0xx_HAL_Driver/Src/stm32l0xx_hal_rcc.c ****   {
 102              		.loc 1 251 44 view .LVU21
 251:Drivers/STM32L0xx_HAL_Driver/Src/stm32l0xx_hal_rcc.c ****   {
 103              		.loc 1 251 10 is_stmt 0 view .LVU22
 104 0048 1F4B     		ldr	r3, .L15
 105 004a DB68     		ldr	r3, [r3, #12]
 106 004c 0C22     		movs	r2, #12
 251:Drivers/STM32L0xx_HAL_Driver/Src/stm32l0xx_hal_rcc.c ****   {
 107              		.loc 1 251 44 view .LVU23
 108 004e 1A42     		tst	r2, r3
 109 0050 07D0     		beq	.L13
 253:Drivers/STM32L0xx_HAL_Driver/Src/stm32l0xx_hal_rcc.c ****     {
 110              		.loc 1 253 5 is_stmt 1 view .LVU24
 253:Drivers/STM32L0xx_HAL_Driver/Src/stm32l0xx_hal_rcc.c ****     {
 111              		.loc 1 253 10 is_stmt 0 view .LVU25
 112 0052 FFF7FEFF 		bl	HAL_GetTick
 113              	.LVL5:
 253:Drivers/STM32L0xx_HAL_Driver/Src/stm32l0xx_hal_rcc.c ****     {
 114              		.loc 1 253 24 discriminator 1 view .LVU26
 115 0056 001B     		subs	r0, r0, r4
 253:Drivers/STM32L0xx_HAL_Driver/Src/stm32l0xx_hal_rcc.c ****     {
 116              		.loc 1 253 8 discriminator 1 view .LVU27
 117 0058 1D4B     		ldr	r3, .L15+8
 118 005a 9842     		cmp	r0, r3
 119 005c F4D9     		bls	.L5
 255:Drivers/STM32L0xx_HAL_Driver/Src/stm32l0xx_hal_rcc.c ****     }
 120              		.loc 1 255 14 view .LVU28
 121 005e 0324     		movs	r4, #3
 122              	.LVL6:
 255:Drivers/STM32L0xx_HAL_Driver/Src/stm32l0xx_hal_rcc.c ****     }
 123              		.loc 1 255 14 view .LVU29
 124 0060 EAE7     		b	.L3
 125              	.LVL7:
 126              	.L13:
ARM GAS  C:\Users\Tilen\AppData\Local\Temp\ccC0CAdr.s 			page 9


 260:Drivers/STM32L0xx_HAL_Driver/Src/stm32l0xx_hal_rcc.c **** 
 127              		.loc 1 260 3 is_stmt 1 view .LVU30
 260:Drivers/STM32L0xx_HAL_Driver/Src/stm32l0xx_hal_rcc.c **** 
 128              		.loc 1 260 19 is_stmt 0 view .LVU31
 129 0062 1C4B     		ldr	r3, .L15+12
 130 0064 1C4A     		ldr	r2, .L15+16
 131 0066 1A60     		str	r2, [r3]
 263:Drivers/STM32L0xx_HAL_Driver/Src/stm32l0xx_hal_rcc.c ****   if(status != HAL_OK)
 132              		.loc 1 263 3 is_stmt 1 view .LVU32
 263:Drivers/STM32L0xx_HAL_Driver/Src/stm32l0xx_hal_rcc.c ****   if(status != HAL_OK)
 133              		.loc 1 263 12 is_stmt 0 view .LVU33
 134 0068 1C4B     		ldr	r3, .L15+20
 135 006a 1868     		ldr	r0, [r3]
 136 006c FFF7FEFF 		bl	HAL_InitTick
 137              	.LVL8:
 138 0070 041E     		subs	r4, r0, #0
 139              	.LVL9:
 264:Drivers/STM32L0xx_HAL_Driver/Src/stm32l0xx_hal_rcc.c ****   {
 140              		.loc 1 264 3 is_stmt 1 view .LVU34
 264:Drivers/STM32L0xx_HAL_Driver/Src/stm32l0xx_hal_rcc.c ****   {
 141              		.loc 1 264 5 is_stmt 0 view .LVU35
 142 0072 E1D1     		bne	.L3
 277:Drivers/STM32L0xx_HAL_Driver/Src/stm32l0xx_hal_rcc.c ****                      RCC_CR_HSEON | RCC_CR_CSSHSEON | RCC_CR_PLLON);
 143              		.loc 1 277 3 is_stmt 1 view .LVU36
 144 0074 144B     		ldr	r3, .L15
 145 0076 1A68     		ldr	r2, [r3]
 146 0078 1949     		ldr	r1, .L15+24
 147 007a 0A40     		ands	r2, r1
 148 007c 1A60     		str	r2, [r3]
 282:Drivers/STM32L0xx_HAL_Driver/Src/stm32l0xx_hal_rcc.c ****   UNUSED(tmpreg);
 149              		.loc 1 282 3 view .LVU37
 282:Drivers/STM32L0xx_HAL_Driver/Src/stm32l0xx_hal_rcc.c ****   UNUSED(tmpreg);
 150              		.loc 1 282 12 is_stmt 0 view .LVU38
 151 007e 1A68     		ldr	r2, [r3]
 152 0080 8021     		movs	r1, #128
 153 0082 4902     		lsls	r1, r1, #9
 154 0084 0A40     		ands	r2, r1
 282:Drivers/STM32L0xx_HAL_Driver/Src/stm32l0xx_hal_rcc.c ****   UNUSED(tmpreg);
 155              		.loc 1 282 10 view .LVU39
 156 0086 0192     		str	r2, [sp, #4]
 283:Drivers/STM32L0xx_HAL_Driver/Src/stm32l0xx_hal_rcc.c **** 
 157              		.loc 1 283 3 is_stmt 1 view .LVU40
 158 0088 019A     		ldr	r2, [sp, #4]
 286:Drivers/STM32L0xx_HAL_Driver/Src/stm32l0xx_hal_rcc.c **** 
 159              		.loc 1 286 3 view .LVU41
 160 008a 1A68     		ldr	r2, [r3]
 161 008c 1549     		ldr	r1, .L15+28
 162 008e 0A40     		ands	r2, r1
 163 0090 1A60     		str	r2, [r3]
 289:Drivers/STM32L0xx_HAL_Driver/Src/stm32l0xx_hal_rcc.c **** 
 164              		.loc 1 289 3 view .LVU42
 289:Drivers/STM32L0xx_HAL_Driver/Src/stm32l0xx_hal_rcc.c **** 
 165              		.loc 1 289 15 is_stmt 0 view .LVU43
 166 0092 FFF7FEFF 		bl	HAL_GetTick
 167              	.LVL10:
 289:Drivers/STM32L0xx_HAL_Driver/Src/stm32l0xx_hal_rcc.c **** 
 168              		.loc 1 289 15 view .LVU44
ARM GAS  C:\Users\Tilen\AppData\Local\Temp\ccC0CAdr.s 			page 10


 169 0096 0500     		movs	r5, r0
 170              	.LVL11:
 292:Drivers/STM32L0xx_HAL_Driver/Src/stm32l0xx_hal_rcc.c ****   {
 171              		.loc 1 292 3 is_stmt 1 view .LVU45
 172              	.L7:
 292:Drivers/STM32L0xx_HAL_Driver/Src/stm32l0xx_hal_rcc.c ****   {
 173              		.loc 1 292 43 view .LVU46
 292:Drivers/STM32L0xx_HAL_Driver/Src/stm32l0xx_hal_rcc.c ****   {
 174              		.loc 1 292 10 is_stmt 0 view .LVU47
 175 0098 0B4B     		ldr	r3, .L15
 176 009a 1B68     		ldr	r3, [r3]
 292:Drivers/STM32L0xx_HAL_Driver/Src/stm32l0xx_hal_rcc.c ****   {
 177              		.loc 1 292 43 view .LVU48
 178 009c 9B01     		lsls	r3, r3, #6
 179 009e 06D5     		bpl	.L14
 294:Drivers/STM32L0xx_HAL_Driver/Src/stm32l0xx_hal_rcc.c ****     {
 180              		.loc 1 294 5 is_stmt 1 view .LVU49
 294:Drivers/STM32L0xx_HAL_Driver/Src/stm32l0xx_hal_rcc.c ****     {
 181              		.loc 1 294 10 is_stmt 0 view .LVU50
 182 00a0 FFF7FEFF 		bl	HAL_GetTick
 183              	.LVL12:
 294:Drivers/STM32L0xx_HAL_Driver/Src/stm32l0xx_hal_rcc.c ****     {
 184              		.loc 1 294 24 discriminator 1 view .LVU51
 185 00a4 401B     		subs	r0, r0, r5
 294:Drivers/STM32L0xx_HAL_Driver/Src/stm32l0xx_hal_rcc.c ****     {
 186              		.loc 1 294 8 discriminator 1 view .LVU52
 187 00a6 0228     		cmp	r0, #2
 188 00a8 F6D9     		bls	.L7
 296:Drivers/STM32L0xx_HAL_Driver/Src/stm32l0xx_hal_rcc.c ****     }
 189              		.loc 1 296 14 view .LVU53
 190 00aa 0324     		movs	r4, #3
 191              	.LVL13:
 296:Drivers/STM32L0xx_HAL_Driver/Src/stm32l0xx_hal_rcc.c ****     }
 192              		.loc 1 296 14 view .LVU54
 193 00ac C4E7     		b	.L3
 194              	.LVL14:
 195              	.L14:
 301:Drivers/STM32L0xx_HAL_Driver/Src/stm32l0xx_hal_rcc.c **** 
 196              		.loc 1 301 3 is_stmt 1 view .LVU55
 197 00ae 064B     		ldr	r3, .L15
 198 00b0 0022     		movs	r2, #0
 199 00b2 DA60     		str	r2, [r3, #12]
 304:Drivers/STM32L0xx_HAL_Driver/Src/stm32l0xx_hal_rcc.c **** 
 200              		.loc 1 304 3 view .LVU56
 201 00b4 1A61     		str	r2, [r3, #16]
 307:Drivers/STM32L0xx_HAL_Driver/Src/stm32l0xx_hal_rcc.c **** #if defined(RCC_HSI48_SUPPORT)
 202              		.loc 1 307 3 view .LVU57
 309:Drivers/STM32L0xx_HAL_Driver/Src/stm32l0xx_hal_rcc.c **** #endif
 203              		.loc 1 309 3 view .LVU58
 312:Drivers/STM32L0xx_HAL_Driver/Src/stm32l0xx_hal_rcc.c **** #endif
 204              		.loc 1 312 3 view .LVU59
 205              	.LVL15:
 314:Drivers/STM32L0xx_HAL_Driver/Src/stm32l0xx_hal_rcc.c **** 
 206              		.loc 1 314 3 view .LVU60
 207 00b6 0C4A     		ldr	r2, .L15+32
 208 00b8 9A61     		str	r2, [r3, #24]
 317:Drivers/STM32L0xx_HAL_Driver/Src/stm32l0xx_hal_rcc.c **** 
ARM GAS  C:\Users\Tilen\AppData\Local\Temp\ccC0CAdr.s 			page 11


 209              		.loc 1 317 3 view .LVU61
 210 00ba 196D     		ldr	r1, [r3, #80]
 211 00bc 8022     		movs	r2, #128
 212 00be 1204     		lsls	r2, r2, #16
 213 00c0 0A43     		orrs	r2, r1
 214 00c2 1A65     		str	r2, [r3, #80]
 319:Drivers/STM32L0xx_HAL_Driver/Src/stm32l0xx_hal_rcc.c **** }
 215              		.loc 1 319 3 view .LVU62
 319:Drivers/STM32L0xx_HAL_Driver/Src/stm32l0xx_hal_rcc.c **** }
 216              		.loc 1 319 10 is_stmt 0 view .LVU63
 217 00c4 B8E7     		b	.L3
 218              	.L16:
 219 00c6 C046     		.align	2
 220              	.L15:
 221 00c8 00100240 		.word	1073876992
 222 00cc FF00FF00 		.word	16711935
 223 00d0 88130000 		.word	5000
 224 00d4 00000000 		.word	SystemCoreClock
 225 00d8 68FF1F00 		.word	2097000
 226 00dc 00000000 		.word	uwTickPrio
 227 00e0 F4FFF6FE 		.word	-17367052
 228 00e4 FFFFFBFF 		.word	-262145
 229 00e8 FF010000 		.word	511
 230              		.cfi_endproc
 231              	.LFE47:
 233              		.section	.text.HAL_RCC_MCOConfig,"ax",%progbits
 234              		.align	1
 235              		.global	HAL_RCC_MCOConfig
 236              		.syntax unified
 237              		.code	16
 238              		.thumb_func
 240              	HAL_RCC_MCOConfig:
 241              	.LVL16:
 242              	.LFB50:
 321:Drivers/STM32L0xx_HAL_Driver/Src/stm32l0xx_hal_rcc.c **** 
 322:Drivers/STM32L0xx_HAL_Driver/Src/stm32l0xx_hal_rcc.c **** /**
 323:Drivers/STM32L0xx_HAL_Driver/Src/stm32l0xx_hal_rcc.c ****   * @brief  Initializes the RCC Oscillators according to the specified parameters in the
 324:Drivers/STM32L0xx_HAL_Driver/Src/stm32l0xx_hal_rcc.c ****   *         RCC_OscInitTypeDef.
 325:Drivers/STM32L0xx_HAL_Driver/Src/stm32l0xx_hal_rcc.c ****   * @param  RCC_OscInitStruct pointer to an RCC_OscInitTypeDef structure that
 326:Drivers/STM32L0xx_HAL_Driver/Src/stm32l0xx_hal_rcc.c ****   *         contains the configuration information for the RCC Oscillators.
 327:Drivers/STM32L0xx_HAL_Driver/Src/stm32l0xx_hal_rcc.c ****   * @note   The PLL is not disabled when used as system clock.
 328:Drivers/STM32L0xx_HAL_Driver/Src/stm32l0xx_hal_rcc.c ****   * @note   Transitions LSE Bypass to LSE On and LSE On to LSE Bypass are not
 329:Drivers/STM32L0xx_HAL_Driver/Src/stm32l0xx_hal_rcc.c ****   *         supported by this macro. User should request a transition to LSE Off
 330:Drivers/STM32L0xx_HAL_Driver/Src/stm32l0xx_hal_rcc.c ****   *         first and then LSE On or LSE Bypass.
 331:Drivers/STM32L0xx_HAL_Driver/Src/stm32l0xx_hal_rcc.c ****   * @note   Transition HSE Bypass to HSE On and HSE On to HSE Bypass are not
 332:Drivers/STM32L0xx_HAL_Driver/Src/stm32l0xx_hal_rcc.c ****   *         supported by this macro. User should request a transition to HSE Off
 333:Drivers/STM32L0xx_HAL_Driver/Src/stm32l0xx_hal_rcc.c ****   *         first and then HSE On or HSE Bypass.
 334:Drivers/STM32L0xx_HAL_Driver/Src/stm32l0xx_hal_rcc.c ****   * @retval HAL status
 335:Drivers/STM32L0xx_HAL_Driver/Src/stm32l0xx_hal_rcc.c ****   */
 336:Drivers/STM32L0xx_HAL_Driver/Src/stm32l0xx_hal_rcc.c **** HAL_StatusTypeDef HAL_RCC_OscConfig(const RCC_OscInitTypeDef  *RCC_OscInitStruct)
 337:Drivers/STM32L0xx_HAL_Driver/Src/stm32l0xx_hal_rcc.c **** {
 338:Drivers/STM32L0xx_HAL_Driver/Src/stm32l0xx_hal_rcc.c ****   uint32_t tickstart;
 339:Drivers/STM32L0xx_HAL_Driver/Src/stm32l0xx_hal_rcc.c ****   uint32_t hsi_state;
 340:Drivers/STM32L0xx_HAL_Driver/Src/stm32l0xx_hal_rcc.c ****   HAL_StatusTypeDef status;
 341:Drivers/STM32L0xx_HAL_Driver/Src/stm32l0xx_hal_rcc.c ****   uint32_t sysclk_source, pll_config;
 342:Drivers/STM32L0xx_HAL_Driver/Src/stm32l0xx_hal_rcc.c **** 
 343:Drivers/STM32L0xx_HAL_Driver/Src/stm32l0xx_hal_rcc.c ****   /* Check Null pointer */
ARM GAS  C:\Users\Tilen\AppData\Local\Temp\ccC0CAdr.s 			page 12


 344:Drivers/STM32L0xx_HAL_Driver/Src/stm32l0xx_hal_rcc.c ****   if(RCC_OscInitStruct == NULL)
 345:Drivers/STM32L0xx_HAL_Driver/Src/stm32l0xx_hal_rcc.c ****   {
 346:Drivers/STM32L0xx_HAL_Driver/Src/stm32l0xx_hal_rcc.c ****     return HAL_ERROR;
 347:Drivers/STM32L0xx_HAL_Driver/Src/stm32l0xx_hal_rcc.c ****   }
 348:Drivers/STM32L0xx_HAL_Driver/Src/stm32l0xx_hal_rcc.c **** 
 349:Drivers/STM32L0xx_HAL_Driver/Src/stm32l0xx_hal_rcc.c ****   /* Check the parameters */
 350:Drivers/STM32L0xx_HAL_Driver/Src/stm32l0xx_hal_rcc.c ****   assert_param(IS_RCC_OSCILLATORTYPE(RCC_OscInitStruct->OscillatorType));
 351:Drivers/STM32L0xx_HAL_Driver/Src/stm32l0xx_hal_rcc.c **** 
 352:Drivers/STM32L0xx_HAL_Driver/Src/stm32l0xx_hal_rcc.c ****   sysclk_source = __HAL_RCC_GET_SYSCLK_SOURCE();
 353:Drivers/STM32L0xx_HAL_Driver/Src/stm32l0xx_hal_rcc.c ****   pll_config = __HAL_RCC_GET_PLL_OSCSOURCE();
 354:Drivers/STM32L0xx_HAL_Driver/Src/stm32l0xx_hal_rcc.c **** 
 355:Drivers/STM32L0xx_HAL_Driver/Src/stm32l0xx_hal_rcc.c ****   /*------------------------------- HSE Configuration ------------------------*/
 356:Drivers/STM32L0xx_HAL_Driver/Src/stm32l0xx_hal_rcc.c ****   if(((RCC_OscInitStruct->OscillatorType) & RCC_OSCILLATORTYPE_HSE) == RCC_OSCILLATORTYPE_HSE)
 357:Drivers/STM32L0xx_HAL_Driver/Src/stm32l0xx_hal_rcc.c ****   {
 358:Drivers/STM32L0xx_HAL_Driver/Src/stm32l0xx_hal_rcc.c ****     /* Check the parameters */
 359:Drivers/STM32L0xx_HAL_Driver/Src/stm32l0xx_hal_rcc.c ****     assert_param(IS_RCC_HSE(RCC_OscInitStruct->HSEState));
 360:Drivers/STM32L0xx_HAL_Driver/Src/stm32l0xx_hal_rcc.c **** 
 361:Drivers/STM32L0xx_HAL_Driver/Src/stm32l0xx_hal_rcc.c ****     /* When the HSE is used as system clock or clock source for PLL in these cases it is not allowe
 362:Drivers/STM32L0xx_HAL_Driver/Src/stm32l0xx_hal_rcc.c ****     if((sysclk_source == RCC_SYSCLKSOURCE_STATUS_HSE)
 363:Drivers/STM32L0xx_HAL_Driver/Src/stm32l0xx_hal_rcc.c ****        || ((sysclk_source == RCC_SYSCLKSOURCE_STATUS_PLLCLK) && (pll_config == RCC_PLLSOURCE_HSE)))
 364:Drivers/STM32L0xx_HAL_Driver/Src/stm32l0xx_hal_rcc.c ****     {
 365:Drivers/STM32L0xx_HAL_Driver/Src/stm32l0xx_hal_rcc.c ****       if((__HAL_RCC_GET_FLAG(RCC_FLAG_HSERDY) != 0U) && (RCC_OscInitStruct->HSEState == RCC_HSE_OFF
 366:Drivers/STM32L0xx_HAL_Driver/Src/stm32l0xx_hal_rcc.c ****       {
 367:Drivers/STM32L0xx_HAL_Driver/Src/stm32l0xx_hal_rcc.c ****         return HAL_ERROR;
 368:Drivers/STM32L0xx_HAL_Driver/Src/stm32l0xx_hal_rcc.c ****       }
 369:Drivers/STM32L0xx_HAL_Driver/Src/stm32l0xx_hal_rcc.c ****     }
 370:Drivers/STM32L0xx_HAL_Driver/Src/stm32l0xx_hal_rcc.c ****     else
 371:Drivers/STM32L0xx_HAL_Driver/Src/stm32l0xx_hal_rcc.c ****     {
 372:Drivers/STM32L0xx_HAL_Driver/Src/stm32l0xx_hal_rcc.c ****       /* Set the new HSE configuration ---------------------------------------*/
 373:Drivers/STM32L0xx_HAL_Driver/Src/stm32l0xx_hal_rcc.c ****       __HAL_RCC_HSE_CONFIG(RCC_OscInitStruct->HSEState);
 374:Drivers/STM32L0xx_HAL_Driver/Src/stm32l0xx_hal_rcc.c **** 
 375:Drivers/STM32L0xx_HAL_Driver/Src/stm32l0xx_hal_rcc.c ****       /* Check the HSE State */
 376:Drivers/STM32L0xx_HAL_Driver/Src/stm32l0xx_hal_rcc.c ****       if(RCC_OscInitStruct->HSEState != RCC_HSE_OFF)
 377:Drivers/STM32L0xx_HAL_Driver/Src/stm32l0xx_hal_rcc.c ****       {
 378:Drivers/STM32L0xx_HAL_Driver/Src/stm32l0xx_hal_rcc.c ****         /* Get Start Tick */
 379:Drivers/STM32L0xx_HAL_Driver/Src/stm32l0xx_hal_rcc.c ****         tickstart = HAL_GetTick();
 380:Drivers/STM32L0xx_HAL_Driver/Src/stm32l0xx_hal_rcc.c **** 
 381:Drivers/STM32L0xx_HAL_Driver/Src/stm32l0xx_hal_rcc.c ****         /* Wait till HSE is ready */
 382:Drivers/STM32L0xx_HAL_Driver/Src/stm32l0xx_hal_rcc.c ****         while(__HAL_RCC_GET_FLAG(RCC_FLAG_HSERDY) == 0U)
 383:Drivers/STM32L0xx_HAL_Driver/Src/stm32l0xx_hal_rcc.c ****         {
 384:Drivers/STM32L0xx_HAL_Driver/Src/stm32l0xx_hal_rcc.c ****           if((HAL_GetTick() - tickstart ) > HSE_TIMEOUT_VALUE)
 385:Drivers/STM32L0xx_HAL_Driver/Src/stm32l0xx_hal_rcc.c ****           {
 386:Drivers/STM32L0xx_HAL_Driver/Src/stm32l0xx_hal_rcc.c ****             return HAL_TIMEOUT;
 387:Drivers/STM32L0xx_HAL_Driver/Src/stm32l0xx_hal_rcc.c ****           }
 388:Drivers/STM32L0xx_HAL_Driver/Src/stm32l0xx_hal_rcc.c ****         }
 389:Drivers/STM32L0xx_HAL_Driver/Src/stm32l0xx_hal_rcc.c ****       }
 390:Drivers/STM32L0xx_HAL_Driver/Src/stm32l0xx_hal_rcc.c ****       else
 391:Drivers/STM32L0xx_HAL_Driver/Src/stm32l0xx_hal_rcc.c ****       {
 392:Drivers/STM32L0xx_HAL_Driver/Src/stm32l0xx_hal_rcc.c ****         /* Get Start Tick */
 393:Drivers/STM32L0xx_HAL_Driver/Src/stm32l0xx_hal_rcc.c ****         tickstart = HAL_GetTick();
 394:Drivers/STM32L0xx_HAL_Driver/Src/stm32l0xx_hal_rcc.c **** 
 395:Drivers/STM32L0xx_HAL_Driver/Src/stm32l0xx_hal_rcc.c ****         /* Wait till HSE is disabled */
 396:Drivers/STM32L0xx_HAL_Driver/Src/stm32l0xx_hal_rcc.c ****         while(__HAL_RCC_GET_FLAG(RCC_FLAG_HSERDY) != 0U)
 397:Drivers/STM32L0xx_HAL_Driver/Src/stm32l0xx_hal_rcc.c ****         {
 398:Drivers/STM32L0xx_HAL_Driver/Src/stm32l0xx_hal_rcc.c ****            if((HAL_GetTick() - tickstart ) > HSE_TIMEOUT_VALUE)
 399:Drivers/STM32L0xx_HAL_Driver/Src/stm32l0xx_hal_rcc.c ****           {
 400:Drivers/STM32L0xx_HAL_Driver/Src/stm32l0xx_hal_rcc.c ****             return HAL_TIMEOUT;
ARM GAS  C:\Users\Tilen\AppData\Local\Temp\ccC0CAdr.s 			page 13


 401:Drivers/STM32L0xx_HAL_Driver/Src/stm32l0xx_hal_rcc.c ****           }
 402:Drivers/STM32L0xx_HAL_Driver/Src/stm32l0xx_hal_rcc.c ****         }
 403:Drivers/STM32L0xx_HAL_Driver/Src/stm32l0xx_hal_rcc.c ****       }
 404:Drivers/STM32L0xx_HAL_Driver/Src/stm32l0xx_hal_rcc.c ****     }
 405:Drivers/STM32L0xx_HAL_Driver/Src/stm32l0xx_hal_rcc.c ****   }
 406:Drivers/STM32L0xx_HAL_Driver/Src/stm32l0xx_hal_rcc.c ****   /*----------------------------- HSI Configuration --------------------------*/
 407:Drivers/STM32L0xx_HAL_Driver/Src/stm32l0xx_hal_rcc.c ****   if(((RCC_OscInitStruct->OscillatorType) & RCC_OSCILLATORTYPE_HSI) == RCC_OSCILLATORTYPE_HSI)
 408:Drivers/STM32L0xx_HAL_Driver/Src/stm32l0xx_hal_rcc.c ****   {
 409:Drivers/STM32L0xx_HAL_Driver/Src/stm32l0xx_hal_rcc.c ****     /* Check the parameters */
 410:Drivers/STM32L0xx_HAL_Driver/Src/stm32l0xx_hal_rcc.c ****     assert_param(IS_RCC_HSI(RCC_OscInitStruct->HSIState));
 411:Drivers/STM32L0xx_HAL_Driver/Src/stm32l0xx_hal_rcc.c ****     assert_param(IS_RCC_CALIBRATION_VALUE(RCC_OscInitStruct->HSICalibrationValue));
 412:Drivers/STM32L0xx_HAL_Driver/Src/stm32l0xx_hal_rcc.c **** 
 413:Drivers/STM32L0xx_HAL_Driver/Src/stm32l0xx_hal_rcc.c ****     hsi_state = RCC_OscInitStruct->HSIState;
 414:Drivers/STM32L0xx_HAL_Driver/Src/stm32l0xx_hal_rcc.c **** 
 415:Drivers/STM32L0xx_HAL_Driver/Src/stm32l0xx_hal_rcc.c **** #if defined(RCC_CR_HSIOUTEN)
 416:Drivers/STM32L0xx_HAL_Driver/Src/stm32l0xx_hal_rcc.c ****     if((hsi_state & RCC_HSI_OUTEN) != 0U)
 417:Drivers/STM32L0xx_HAL_Driver/Src/stm32l0xx_hal_rcc.c ****     {
 418:Drivers/STM32L0xx_HAL_Driver/Src/stm32l0xx_hal_rcc.c ****       /* HSI Output enable for timer requested */
 419:Drivers/STM32L0xx_HAL_Driver/Src/stm32l0xx_hal_rcc.c ****       SET_BIT(RCC->CR, RCC_CR_HSIOUTEN);
 420:Drivers/STM32L0xx_HAL_Driver/Src/stm32l0xx_hal_rcc.c **** 
 421:Drivers/STM32L0xx_HAL_Driver/Src/stm32l0xx_hal_rcc.c ****       hsi_state &= ~RCC_CR_HSIOUTEN;
 422:Drivers/STM32L0xx_HAL_Driver/Src/stm32l0xx_hal_rcc.c ****     }
 423:Drivers/STM32L0xx_HAL_Driver/Src/stm32l0xx_hal_rcc.c **** #endif
 424:Drivers/STM32L0xx_HAL_Driver/Src/stm32l0xx_hal_rcc.c **** 
 425:Drivers/STM32L0xx_HAL_Driver/Src/stm32l0xx_hal_rcc.c ****     /* Check if HSI is used as system clock or as PLL source when PLL is selected as system clock *
 426:Drivers/STM32L0xx_HAL_Driver/Src/stm32l0xx_hal_rcc.c ****     if((sysclk_source == RCC_SYSCLKSOURCE_STATUS_HSI)
 427:Drivers/STM32L0xx_HAL_Driver/Src/stm32l0xx_hal_rcc.c ****        || ((sysclk_source == RCC_SYSCLKSOURCE_STATUS_PLLCLK) && (pll_config == RCC_PLLSOURCE_HSI)))
 428:Drivers/STM32L0xx_HAL_Driver/Src/stm32l0xx_hal_rcc.c ****     {
 429:Drivers/STM32L0xx_HAL_Driver/Src/stm32l0xx_hal_rcc.c ****       /* When HSI is used as system clock it will not disabled */
 430:Drivers/STM32L0xx_HAL_Driver/Src/stm32l0xx_hal_rcc.c ****       if((__HAL_RCC_GET_FLAG(RCC_FLAG_HSIRDY) != 0U) && (hsi_state == RCC_HSI_OFF))
 431:Drivers/STM32L0xx_HAL_Driver/Src/stm32l0xx_hal_rcc.c ****       {
 432:Drivers/STM32L0xx_HAL_Driver/Src/stm32l0xx_hal_rcc.c ****         return HAL_ERROR;
 433:Drivers/STM32L0xx_HAL_Driver/Src/stm32l0xx_hal_rcc.c ****       }
 434:Drivers/STM32L0xx_HAL_Driver/Src/stm32l0xx_hal_rcc.c ****       /* Otherwise, just the calibration and HSI or HSIdiv4 are allowed */
 435:Drivers/STM32L0xx_HAL_Driver/Src/stm32l0xx_hal_rcc.c ****       else
 436:Drivers/STM32L0xx_HAL_Driver/Src/stm32l0xx_hal_rcc.c ****       {
 437:Drivers/STM32L0xx_HAL_Driver/Src/stm32l0xx_hal_rcc.c ****         /* Adjusts the Internal High Speed oscillator (HSI) calibration value.*/
 438:Drivers/STM32L0xx_HAL_Driver/Src/stm32l0xx_hal_rcc.c ****         __HAL_RCC_HSI_CALIBRATIONVALUE_ADJUST(RCC_OscInitStruct->HSICalibrationValue);
 439:Drivers/STM32L0xx_HAL_Driver/Src/stm32l0xx_hal_rcc.c **** 
 440:Drivers/STM32L0xx_HAL_Driver/Src/stm32l0xx_hal_rcc.c ****         /* Enable the Internal High Speed oscillator (HSI or HSIdiv4) */
 441:Drivers/STM32L0xx_HAL_Driver/Src/stm32l0xx_hal_rcc.c ****         __HAL_RCC_HSI_CONFIG(hsi_state);
 442:Drivers/STM32L0xx_HAL_Driver/Src/stm32l0xx_hal_rcc.c ****       }
 443:Drivers/STM32L0xx_HAL_Driver/Src/stm32l0xx_hal_rcc.c **** 
 444:Drivers/STM32L0xx_HAL_Driver/Src/stm32l0xx_hal_rcc.c ****       /* Update the SystemCoreClock global variable */
 445:Drivers/STM32L0xx_HAL_Driver/Src/stm32l0xx_hal_rcc.c ****       SystemCoreClock = HAL_RCC_GetSysClockFreq() >> AHBPrescTable[(RCC->CFGR & RCC_CFGR_HPRE)>> RC
 446:Drivers/STM32L0xx_HAL_Driver/Src/stm32l0xx_hal_rcc.c **** 
 447:Drivers/STM32L0xx_HAL_Driver/Src/stm32l0xx_hal_rcc.c ****       /* Configure the source of time base considering new system clocks settings*/
 448:Drivers/STM32L0xx_HAL_Driver/Src/stm32l0xx_hal_rcc.c ****       status = HAL_InitTick (uwTickPrio);
 449:Drivers/STM32L0xx_HAL_Driver/Src/stm32l0xx_hal_rcc.c ****       if(status != HAL_OK)
 450:Drivers/STM32L0xx_HAL_Driver/Src/stm32l0xx_hal_rcc.c ****       {
 451:Drivers/STM32L0xx_HAL_Driver/Src/stm32l0xx_hal_rcc.c ****         return status;
 452:Drivers/STM32L0xx_HAL_Driver/Src/stm32l0xx_hal_rcc.c ****       }
 453:Drivers/STM32L0xx_HAL_Driver/Src/stm32l0xx_hal_rcc.c ****     }
 454:Drivers/STM32L0xx_HAL_Driver/Src/stm32l0xx_hal_rcc.c ****     else
 455:Drivers/STM32L0xx_HAL_Driver/Src/stm32l0xx_hal_rcc.c ****     {
 456:Drivers/STM32L0xx_HAL_Driver/Src/stm32l0xx_hal_rcc.c ****       /* Check the HSI State */
 457:Drivers/STM32L0xx_HAL_Driver/Src/stm32l0xx_hal_rcc.c ****       if(hsi_state != RCC_HSI_OFF)
ARM GAS  C:\Users\Tilen\AppData\Local\Temp\ccC0CAdr.s 			page 14


 458:Drivers/STM32L0xx_HAL_Driver/Src/stm32l0xx_hal_rcc.c ****       {
 459:Drivers/STM32L0xx_HAL_Driver/Src/stm32l0xx_hal_rcc.c ****         /* Enable the Internal High Speed oscillator (HSI or HSIdiv4) */
 460:Drivers/STM32L0xx_HAL_Driver/Src/stm32l0xx_hal_rcc.c ****         __HAL_RCC_HSI_CONFIG(hsi_state);
 461:Drivers/STM32L0xx_HAL_Driver/Src/stm32l0xx_hal_rcc.c **** 
 462:Drivers/STM32L0xx_HAL_Driver/Src/stm32l0xx_hal_rcc.c ****         /* Get Start Tick */
 463:Drivers/STM32L0xx_HAL_Driver/Src/stm32l0xx_hal_rcc.c ****         tickstart = HAL_GetTick();
 464:Drivers/STM32L0xx_HAL_Driver/Src/stm32l0xx_hal_rcc.c **** 
 465:Drivers/STM32L0xx_HAL_Driver/Src/stm32l0xx_hal_rcc.c ****         /* Wait till HSI is ready */
 466:Drivers/STM32L0xx_HAL_Driver/Src/stm32l0xx_hal_rcc.c ****         while(__HAL_RCC_GET_FLAG(RCC_FLAG_HSIRDY) == 0U)
 467:Drivers/STM32L0xx_HAL_Driver/Src/stm32l0xx_hal_rcc.c ****         {
 468:Drivers/STM32L0xx_HAL_Driver/Src/stm32l0xx_hal_rcc.c ****           if((HAL_GetTick() - tickstart ) > HSI_TIMEOUT_VALUE)
 469:Drivers/STM32L0xx_HAL_Driver/Src/stm32l0xx_hal_rcc.c ****           {
 470:Drivers/STM32L0xx_HAL_Driver/Src/stm32l0xx_hal_rcc.c ****             return HAL_TIMEOUT;
 471:Drivers/STM32L0xx_HAL_Driver/Src/stm32l0xx_hal_rcc.c ****           }
 472:Drivers/STM32L0xx_HAL_Driver/Src/stm32l0xx_hal_rcc.c ****         }
 473:Drivers/STM32L0xx_HAL_Driver/Src/stm32l0xx_hal_rcc.c **** 
 474:Drivers/STM32L0xx_HAL_Driver/Src/stm32l0xx_hal_rcc.c ****         /* Adjusts the Internal High Speed oscillator (HSI) calibration value.*/
 475:Drivers/STM32L0xx_HAL_Driver/Src/stm32l0xx_hal_rcc.c ****         __HAL_RCC_HSI_CALIBRATIONVALUE_ADJUST(RCC_OscInitStruct->HSICalibrationValue);
 476:Drivers/STM32L0xx_HAL_Driver/Src/stm32l0xx_hal_rcc.c ****       }
 477:Drivers/STM32L0xx_HAL_Driver/Src/stm32l0xx_hal_rcc.c ****       else
 478:Drivers/STM32L0xx_HAL_Driver/Src/stm32l0xx_hal_rcc.c ****       {
 479:Drivers/STM32L0xx_HAL_Driver/Src/stm32l0xx_hal_rcc.c ****         /* Disable the Internal High Speed oscillator (HSI). */
 480:Drivers/STM32L0xx_HAL_Driver/Src/stm32l0xx_hal_rcc.c ****         __HAL_RCC_HSI_DISABLE();
 481:Drivers/STM32L0xx_HAL_Driver/Src/stm32l0xx_hal_rcc.c **** 
 482:Drivers/STM32L0xx_HAL_Driver/Src/stm32l0xx_hal_rcc.c ****         /* Get Start Tick */
 483:Drivers/STM32L0xx_HAL_Driver/Src/stm32l0xx_hal_rcc.c ****         tickstart = HAL_GetTick();
 484:Drivers/STM32L0xx_HAL_Driver/Src/stm32l0xx_hal_rcc.c **** 
 485:Drivers/STM32L0xx_HAL_Driver/Src/stm32l0xx_hal_rcc.c ****         /* Wait till HSI is disabled */
 486:Drivers/STM32L0xx_HAL_Driver/Src/stm32l0xx_hal_rcc.c ****         while(__HAL_RCC_GET_FLAG(RCC_FLAG_HSIRDY) != 0U)
 487:Drivers/STM32L0xx_HAL_Driver/Src/stm32l0xx_hal_rcc.c ****         {
 488:Drivers/STM32L0xx_HAL_Driver/Src/stm32l0xx_hal_rcc.c ****           if((HAL_GetTick() - tickstart ) > HSI_TIMEOUT_VALUE)
 489:Drivers/STM32L0xx_HAL_Driver/Src/stm32l0xx_hal_rcc.c ****           {
 490:Drivers/STM32L0xx_HAL_Driver/Src/stm32l0xx_hal_rcc.c ****             return HAL_TIMEOUT;
 491:Drivers/STM32L0xx_HAL_Driver/Src/stm32l0xx_hal_rcc.c ****           }
 492:Drivers/STM32L0xx_HAL_Driver/Src/stm32l0xx_hal_rcc.c ****         }
 493:Drivers/STM32L0xx_HAL_Driver/Src/stm32l0xx_hal_rcc.c ****       }
 494:Drivers/STM32L0xx_HAL_Driver/Src/stm32l0xx_hal_rcc.c ****     }
 495:Drivers/STM32L0xx_HAL_Driver/Src/stm32l0xx_hal_rcc.c ****   }
 496:Drivers/STM32L0xx_HAL_Driver/Src/stm32l0xx_hal_rcc.c ****   /*----------------------------- MSI Configuration --------------------------*/
 497:Drivers/STM32L0xx_HAL_Driver/Src/stm32l0xx_hal_rcc.c ****   if(((RCC_OscInitStruct->OscillatorType) & RCC_OSCILLATORTYPE_MSI) == RCC_OSCILLATORTYPE_MSI)
 498:Drivers/STM32L0xx_HAL_Driver/Src/stm32l0xx_hal_rcc.c ****   {
 499:Drivers/STM32L0xx_HAL_Driver/Src/stm32l0xx_hal_rcc.c ****     /* When the MSI is used as system clock it will not be disabled */
 500:Drivers/STM32L0xx_HAL_Driver/Src/stm32l0xx_hal_rcc.c ****     if(sysclk_source == RCC_CFGR_SWS_MSI)
 501:Drivers/STM32L0xx_HAL_Driver/Src/stm32l0xx_hal_rcc.c ****     {
 502:Drivers/STM32L0xx_HAL_Driver/Src/stm32l0xx_hal_rcc.c ****       if((__HAL_RCC_GET_FLAG(RCC_FLAG_MSIRDY) != 0U) && (RCC_OscInitStruct->MSIState == RCC_MSI_OFF
 503:Drivers/STM32L0xx_HAL_Driver/Src/stm32l0xx_hal_rcc.c ****       {
 504:Drivers/STM32L0xx_HAL_Driver/Src/stm32l0xx_hal_rcc.c ****         return HAL_ERROR;
 505:Drivers/STM32L0xx_HAL_Driver/Src/stm32l0xx_hal_rcc.c ****       }
 506:Drivers/STM32L0xx_HAL_Driver/Src/stm32l0xx_hal_rcc.c ****       /* Otherwise, just the calibration and MSI range change are allowed */
 507:Drivers/STM32L0xx_HAL_Driver/Src/stm32l0xx_hal_rcc.c ****       else
 508:Drivers/STM32L0xx_HAL_Driver/Src/stm32l0xx_hal_rcc.c ****       {
 509:Drivers/STM32L0xx_HAL_Driver/Src/stm32l0xx_hal_rcc.c ****         /* Check MSICalibrationValue and MSIClockRange input parameters */
 510:Drivers/STM32L0xx_HAL_Driver/Src/stm32l0xx_hal_rcc.c ****         assert_param(IS_RCC_MSICALIBRATION_VALUE(RCC_OscInitStruct->MSICalibrationValue));
 511:Drivers/STM32L0xx_HAL_Driver/Src/stm32l0xx_hal_rcc.c ****         assert_param(IS_RCC_MSI_CLOCK_RANGE(RCC_OscInitStruct->MSIClockRange));
 512:Drivers/STM32L0xx_HAL_Driver/Src/stm32l0xx_hal_rcc.c **** 
 513:Drivers/STM32L0xx_HAL_Driver/Src/stm32l0xx_hal_rcc.c ****         /* Selects the Multiple Speed oscillator (MSI) clock range .*/
 514:Drivers/STM32L0xx_HAL_Driver/Src/stm32l0xx_hal_rcc.c ****         __HAL_RCC_MSI_RANGE_CONFIG(RCC_OscInitStruct->MSIClockRange);
ARM GAS  C:\Users\Tilen\AppData\Local\Temp\ccC0CAdr.s 			page 15


 515:Drivers/STM32L0xx_HAL_Driver/Src/stm32l0xx_hal_rcc.c ****         /* Adjusts the Multiple Speed oscillator (MSI) calibration value.*/
 516:Drivers/STM32L0xx_HAL_Driver/Src/stm32l0xx_hal_rcc.c ****         __HAL_RCC_MSI_CALIBRATIONVALUE_ADJUST(RCC_OscInitStruct->MSICalibrationValue);
 517:Drivers/STM32L0xx_HAL_Driver/Src/stm32l0xx_hal_rcc.c **** 
 518:Drivers/STM32L0xx_HAL_Driver/Src/stm32l0xx_hal_rcc.c **** 
 519:Drivers/STM32L0xx_HAL_Driver/Src/stm32l0xx_hal_rcc.c ****         /* Update the SystemCoreClock global variable */
 520:Drivers/STM32L0xx_HAL_Driver/Src/stm32l0xx_hal_rcc.c ****         SystemCoreClock =  (32768U * (1UL << ((RCC_OscInitStruct->MSIClockRange >> RCC_ICSCR_MSIRAN
 521:Drivers/STM32L0xx_HAL_Driver/Src/stm32l0xx_hal_rcc.c ****                            >> AHBPrescTable[((RCC->CFGR & RCC_CFGR_HPRE) >> RCC_CFGR_HPRE_Pos)];
 522:Drivers/STM32L0xx_HAL_Driver/Src/stm32l0xx_hal_rcc.c **** 
 523:Drivers/STM32L0xx_HAL_Driver/Src/stm32l0xx_hal_rcc.c ****         /* Configure the source of time base considering new system clocks settings*/
 524:Drivers/STM32L0xx_HAL_Driver/Src/stm32l0xx_hal_rcc.c ****         status = HAL_InitTick (uwTickPrio);
 525:Drivers/STM32L0xx_HAL_Driver/Src/stm32l0xx_hal_rcc.c ****         if(status != HAL_OK)
 526:Drivers/STM32L0xx_HAL_Driver/Src/stm32l0xx_hal_rcc.c ****         {
 527:Drivers/STM32L0xx_HAL_Driver/Src/stm32l0xx_hal_rcc.c ****           return status;
 528:Drivers/STM32L0xx_HAL_Driver/Src/stm32l0xx_hal_rcc.c ****         }
 529:Drivers/STM32L0xx_HAL_Driver/Src/stm32l0xx_hal_rcc.c ****       }
 530:Drivers/STM32L0xx_HAL_Driver/Src/stm32l0xx_hal_rcc.c ****     }
 531:Drivers/STM32L0xx_HAL_Driver/Src/stm32l0xx_hal_rcc.c ****     else
 532:Drivers/STM32L0xx_HAL_Driver/Src/stm32l0xx_hal_rcc.c ****     {
 533:Drivers/STM32L0xx_HAL_Driver/Src/stm32l0xx_hal_rcc.c ****       /* Check MSI State */
 534:Drivers/STM32L0xx_HAL_Driver/Src/stm32l0xx_hal_rcc.c ****       assert_param(IS_RCC_MSI(RCC_OscInitStruct->MSIState));
 535:Drivers/STM32L0xx_HAL_Driver/Src/stm32l0xx_hal_rcc.c **** 
 536:Drivers/STM32L0xx_HAL_Driver/Src/stm32l0xx_hal_rcc.c ****       /* Check the MSI State */
 537:Drivers/STM32L0xx_HAL_Driver/Src/stm32l0xx_hal_rcc.c ****       if(RCC_OscInitStruct->MSIState != RCC_MSI_OFF)
 538:Drivers/STM32L0xx_HAL_Driver/Src/stm32l0xx_hal_rcc.c ****       {
 539:Drivers/STM32L0xx_HAL_Driver/Src/stm32l0xx_hal_rcc.c ****         /* Enable the Multi Speed oscillator (MSI). */
 540:Drivers/STM32L0xx_HAL_Driver/Src/stm32l0xx_hal_rcc.c ****         __HAL_RCC_MSI_ENABLE();
 541:Drivers/STM32L0xx_HAL_Driver/Src/stm32l0xx_hal_rcc.c **** 
 542:Drivers/STM32L0xx_HAL_Driver/Src/stm32l0xx_hal_rcc.c ****         /* Get Start Tick */
 543:Drivers/STM32L0xx_HAL_Driver/Src/stm32l0xx_hal_rcc.c ****         tickstart = HAL_GetTick();
 544:Drivers/STM32L0xx_HAL_Driver/Src/stm32l0xx_hal_rcc.c **** 
 545:Drivers/STM32L0xx_HAL_Driver/Src/stm32l0xx_hal_rcc.c ****         /* Wait till MSI is ready */
 546:Drivers/STM32L0xx_HAL_Driver/Src/stm32l0xx_hal_rcc.c ****         while(__HAL_RCC_GET_FLAG(RCC_FLAG_MSIRDY) == 0U)
 547:Drivers/STM32L0xx_HAL_Driver/Src/stm32l0xx_hal_rcc.c ****         {
 548:Drivers/STM32L0xx_HAL_Driver/Src/stm32l0xx_hal_rcc.c ****           if((HAL_GetTick() - tickstart) > MSI_TIMEOUT_VALUE)
 549:Drivers/STM32L0xx_HAL_Driver/Src/stm32l0xx_hal_rcc.c ****           {
 550:Drivers/STM32L0xx_HAL_Driver/Src/stm32l0xx_hal_rcc.c ****             return HAL_TIMEOUT;
 551:Drivers/STM32L0xx_HAL_Driver/Src/stm32l0xx_hal_rcc.c ****           }
 552:Drivers/STM32L0xx_HAL_Driver/Src/stm32l0xx_hal_rcc.c ****         }
 553:Drivers/STM32L0xx_HAL_Driver/Src/stm32l0xx_hal_rcc.c ****         /* Check MSICalibrationValue and MSIClockRange input parameters */
 554:Drivers/STM32L0xx_HAL_Driver/Src/stm32l0xx_hal_rcc.c ****         assert_param(IS_RCC_MSICALIBRATION_VALUE(RCC_OscInitStruct->MSICalibrationValue));
 555:Drivers/STM32L0xx_HAL_Driver/Src/stm32l0xx_hal_rcc.c ****         assert_param(IS_RCC_MSI_CLOCK_RANGE(RCC_OscInitStruct->MSIClockRange));
 556:Drivers/STM32L0xx_HAL_Driver/Src/stm32l0xx_hal_rcc.c **** 
 557:Drivers/STM32L0xx_HAL_Driver/Src/stm32l0xx_hal_rcc.c ****         /* Selects the Multiple Speed oscillator (MSI) clock range .*/
 558:Drivers/STM32L0xx_HAL_Driver/Src/stm32l0xx_hal_rcc.c ****         __HAL_RCC_MSI_RANGE_CONFIG(RCC_OscInitStruct->MSIClockRange);
 559:Drivers/STM32L0xx_HAL_Driver/Src/stm32l0xx_hal_rcc.c ****          /* Adjusts the Multiple Speed oscillator (MSI) calibration value.*/
 560:Drivers/STM32L0xx_HAL_Driver/Src/stm32l0xx_hal_rcc.c ****         __HAL_RCC_MSI_CALIBRATIONVALUE_ADJUST(RCC_OscInitStruct->MSICalibrationValue);
 561:Drivers/STM32L0xx_HAL_Driver/Src/stm32l0xx_hal_rcc.c ****       }
 562:Drivers/STM32L0xx_HAL_Driver/Src/stm32l0xx_hal_rcc.c ****       else
 563:Drivers/STM32L0xx_HAL_Driver/Src/stm32l0xx_hal_rcc.c ****       {
 564:Drivers/STM32L0xx_HAL_Driver/Src/stm32l0xx_hal_rcc.c ****         /* Disable the Multi Speed oscillator (MSI). */
 565:Drivers/STM32L0xx_HAL_Driver/Src/stm32l0xx_hal_rcc.c ****         __HAL_RCC_MSI_DISABLE();
 566:Drivers/STM32L0xx_HAL_Driver/Src/stm32l0xx_hal_rcc.c **** 
 567:Drivers/STM32L0xx_HAL_Driver/Src/stm32l0xx_hal_rcc.c ****         /* Get Start Tick */
 568:Drivers/STM32L0xx_HAL_Driver/Src/stm32l0xx_hal_rcc.c ****         tickstart = HAL_GetTick();
 569:Drivers/STM32L0xx_HAL_Driver/Src/stm32l0xx_hal_rcc.c **** 
 570:Drivers/STM32L0xx_HAL_Driver/Src/stm32l0xx_hal_rcc.c ****         /* Wait till MSI is ready */
 571:Drivers/STM32L0xx_HAL_Driver/Src/stm32l0xx_hal_rcc.c ****         while(__HAL_RCC_GET_FLAG(RCC_FLAG_MSIRDY) != 0U)
ARM GAS  C:\Users\Tilen\AppData\Local\Temp\ccC0CAdr.s 			page 16


 572:Drivers/STM32L0xx_HAL_Driver/Src/stm32l0xx_hal_rcc.c ****         {
 573:Drivers/STM32L0xx_HAL_Driver/Src/stm32l0xx_hal_rcc.c ****           if((HAL_GetTick() - tickstart) > MSI_TIMEOUT_VALUE)
 574:Drivers/STM32L0xx_HAL_Driver/Src/stm32l0xx_hal_rcc.c ****           {
 575:Drivers/STM32L0xx_HAL_Driver/Src/stm32l0xx_hal_rcc.c ****             return HAL_TIMEOUT;
 576:Drivers/STM32L0xx_HAL_Driver/Src/stm32l0xx_hal_rcc.c ****           }
 577:Drivers/STM32L0xx_HAL_Driver/Src/stm32l0xx_hal_rcc.c ****         }
 578:Drivers/STM32L0xx_HAL_Driver/Src/stm32l0xx_hal_rcc.c ****       }
 579:Drivers/STM32L0xx_HAL_Driver/Src/stm32l0xx_hal_rcc.c ****     }
 580:Drivers/STM32L0xx_HAL_Driver/Src/stm32l0xx_hal_rcc.c ****   }
 581:Drivers/STM32L0xx_HAL_Driver/Src/stm32l0xx_hal_rcc.c ****   /*------------------------------ LSI Configuration -------------------------*/
 582:Drivers/STM32L0xx_HAL_Driver/Src/stm32l0xx_hal_rcc.c ****   if(((RCC_OscInitStruct->OscillatorType) & RCC_OSCILLATORTYPE_LSI) == RCC_OSCILLATORTYPE_LSI)
 583:Drivers/STM32L0xx_HAL_Driver/Src/stm32l0xx_hal_rcc.c ****   {
 584:Drivers/STM32L0xx_HAL_Driver/Src/stm32l0xx_hal_rcc.c ****     /* Check the parameters */
 585:Drivers/STM32L0xx_HAL_Driver/Src/stm32l0xx_hal_rcc.c ****     assert_param(IS_RCC_LSI(RCC_OscInitStruct->LSIState));
 586:Drivers/STM32L0xx_HAL_Driver/Src/stm32l0xx_hal_rcc.c **** 
 587:Drivers/STM32L0xx_HAL_Driver/Src/stm32l0xx_hal_rcc.c ****     /* Check the LSI State */
 588:Drivers/STM32L0xx_HAL_Driver/Src/stm32l0xx_hal_rcc.c ****     if(RCC_OscInitStruct->LSIState != RCC_LSI_OFF)
 589:Drivers/STM32L0xx_HAL_Driver/Src/stm32l0xx_hal_rcc.c ****     {
 590:Drivers/STM32L0xx_HAL_Driver/Src/stm32l0xx_hal_rcc.c ****       /* Enable the Internal Low Speed oscillator (LSI). */
 591:Drivers/STM32L0xx_HAL_Driver/Src/stm32l0xx_hal_rcc.c ****       __HAL_RCC_LSI_ENABLE();
 592:Drivers/STM32L0xx_HAL_Driver/Src/stm32l0xx_hal_rcc.c **** 
 593:Drivers/STM32L0xx_HAL_Driver/Src/stm32l0xx_hal_rcc.c ****       /* Get Start Tick */
 594:Drivers/STM32L0xx_HAL_Driver/Src/stm32l0xx_hal_rcc.c ****       tickstart = HAL_GetTick();
 595:Drivers/STM32L0xx_HAL_Driver/Src/stm32l0xx_hal_rcc.c **** 
 596:Drivers/STM32L0xx_HAL_Driver/Src/stm32l0xx_hal_rcc.c ****       /* Wait till LSI is ready */
 597:Drivers/STM32L0xx_HAL_Driver/Src/stm32l0xx_hal_rcc.c ****       while(__HAL_RCC_GET_FLAG(RCC_FLAG_LSIRDY) == 0U)
 598:Drivers/STM32L0xx_HAL_Driver/Src/stm32l0xx_hal_rcc.c ****       {
 599:Drivers/STM32L0xx_HAL_Driver/Src/stm32l0xx_hal_rcc.c ****         if((HAL_GetTick() - tickstart ) > LSI_TIMEOUT_VALUE)
 600:Drivers/STM32L0xx_HAL_Driver/Src/stm32l0xx_hal_rcc.c ****         {
 601:Drivers/STM32L0xx_HAL_Driver/Src/stm32l0xx_hal_rcc.c ****           return HAL_TIMEOUT;
 602:Drivers/STM32L0xx_HAL_Driver/Src/stm32l0xx_hal_rcc.c ****         }
 603:Drivers/STM32L0xx_HAL_Driver/Src/stm32l0xx_hal_rcc.c ****       }
 604:Drivers/STM32L0xx_HAL_Driver/Src/stm32l0xx_hal_rcc.c ****     }
 605:Drivers/STM32L0xx_HAL_Driver/Src/stm32l0xx_hal_rcc.c ****     else
 606:Drivers/STM32L0xx_HAL_Driver/Src/stm32l0xx_hal_rcc.c ****     {
 607:Drivers/STM32L0xx_HAL_Driver/Src/stm32l0xx_hal_rcc.c ****       /* Disable the Internal Low Speed oscillator (LSI). */
 608:Drivers/STM32L0xx_HAL_Driver/Src/stm32l0xx_hal_rcc.c ****       __HAL_RCC_LSI_DISABLE();
 609:Drivers/STM32L0xx_HAL_Driver/Src/stm32l0xx_hal_rcc.c **** 
 610:Drivers/STM32L0xx_HAL_Driver/Src/stm32l0xx_hal_rcc.c ****       /* Get Start Tick */
 611:Drivers/STM32L0xx_HAL_Driver/Src/stm32l0xx_hal_rcc.c ****       tickstart = HAL_GetTick();
 612:Drivers/STM32L0xx_HAL_Driver/Src/stm32l0xx_hal_rcc.c **** 
 613:Drivers/STM32L0xx_HAL_Driver/Src/stm32l0xx_hal_rcc.c ****       /* Wait till LSI is disabled */
 614:Drivers/STM32L0xx_HAL_Driver/Src/stm32l0xx_hal_rcc.c ****       while(__HAL_RCC_GET_FLAG(RCC_FLAG_LSIRDY) != 0U)
 615:Drivers/STM32L0xx_HAL_Driver/Src/stm32l0xx_hal_rcc.c ****       {
 616:Drivers/STM32L0xx_HAL_Driver/Src/stm32l0xx_hal_rcc.c ****         if((HAL_GetTick() - tickstart ) > LSI_TIMEOUT_VALUE)
 617:Drivers/STM32L0xx_HAL_Driver/Src/stm32l0xx_hal_rcc.c ****         {
 618:Drivers/STM32L0xx_HAL_Driver/Src/stm32l0xx_hal_rcc.c ****           return HAL_TIMEOUT;
 619:Drivers/STM32L0xx_HAL_Driver/Src/stm32l0xx_hal_rcc.c ****         }
 620:Drivers/STM32L0xx_HAL_Driver/Src/stm32l0xx_hal_rcc.c ****       }
 621:Drivers/STM32L0xx_HAL_Driver/Src/stm32l0xx_hal_rcc.c ****     }
 622:Drivers/STM32L0xx_HAL_Driver/Src/stm32l0xx_hal_rcc.c ****   }
 623:Drivers/STM32L0xx_HAL_Driver/Src/stm32l0xx_hal_rcc.c ****   /*------------------------------ LSE Configuration -------------------------*/
 624:Drivers/STM32L0xx_HAL_Driver/Src/stm32l0xx_hal_rcc.c ****   if(((RCC_OscInitStruct->OscillatorType) & RCC_OSCILLATORTYPE_LSE) == RCC_OSCILLATORTYPE_LSE)
 625:Drivers/STM32L0xx_HAL_Driver/Src/stm32l0xx_hal_rcc.c ****   {
 626:Drivers/STM32L0xx_HAL_Driver/Src/stm32l0xx_hal_rcc.c ****     FlagStatus       pwrclkchanged = RESET;
 627:Drivers/STM32L0xx_HAL_Driver/Src/stm32l0xx_hal_rcc.c **** 
 628:Drivers/STM32L0xx_HAL_Driver/Src/stm32l0xx_hal_rcc.c ****     /* Check the parameters */
ARM GAS  C:\Users\Tilen\AppData\Local\Temp\ccC0CAdr.s 			page 17


 629:Drivers/STM32L0xx_HAL_Driver/Src/stm32l0xx_hal_rcc.c ****     assert_param(IS_RCC_LSE(RCC_OscInitStruct->LSEState));
 630:Drivers/STM32L0xx_HAL_Driver/Src/stm32l0xx_hal_rcc.c **** 
 631:Drivers/STM32L0xx_HAL_Driver/Src/stm32l0xx_hal_rcc.c ****     /* Update LSE configuration in Backup Domain control register    */
 632:Drivers/STM32L0xx_HAL_Driver/Src/stm32l0xx_hal_rcc.c ****     /* Requires to enable write access to Backup Domain of necessary */
 633:Drivers/STM32L0xx_HAL_Driver/Src/stm32l0xx_hal_rcc.c ****     if(__HAL_RCC_PWR_IS_CLK_DISABLED())
 634:Drivers/STM32L0xx_HAL_Driver/Src/stm32l0xx_hal_rcc.c ****     {
 635:Drivers/STM32L0xx_HAL_Driver/Src/stm32l0xx_hal_rcc.c ****       __HAL_RCC_PWR_CLK_ENABLE();
 636:Drivers/STM32L0xx_HAL_Driver/Src/stm32l0xx_hal_rcc.c ****       pwrclkchanged = SET;
 637:Drivers/STM32L0xx_HAL_Driver/Src/stm32l0xx_hal_rcc.c ****     }
 638:Drivers/STM32L0xx_HAL_Driver/Src/stm32l0xx_hal_rcc.c **** 
 639:Drivers/STM32L0xx_HAL_Driver/Src/stm32l0xx_hal_rcc.c ****     if(HAL_IS_BIT_CLR(PWR->CR, PWR_CR_DBP))
 640:Drivers/STM32L0xx_HAL_Driver/Src/stm32l0xx_hal_rcc.c ****     {
 641:Drivers/STM32L0xx_HAL_Driver/Src/stm32l0xx_hal_rcc.c ****       /* Enable write access to Backup domain */
 642:Drivers/STM32L0xx_HAL_Driver/Src/stm32l0xx_hal_rcc.c ****       SET_BIT(PWR->CR, PWR_CR_DBP);
 643:Drivers/STM32L0xx_HAL_Driver/Src/stm32l0xx_hal_rcc.c **** 
 644:Drivers/STM32L0xx_HAL_Driver/Src/stm32l0xx_hal_rcc.c ****       /* Wait for Backup domain Write protection disable */
 645:Drivers/STM32L0xx_HAL_Driver/Src/stm32l0xx_hal_rcc.c ****       tickstart = HAL_GetTick();
 646:Drivers/STM32L0xx_HAL_Driver/Src/stm32l0xx_hal_rcc.c **** 
 647:Drivers/STM32L0xx_HAL_Driver/Src/stm32l0xx_hal_rcc.c ****       while(HAL_IS_BIT_CLR(PWR->CR, PWR_CR_DBP))
 648:Drivers/STM32L0xx_HAL_Driver/Src/stm32l0xx_hal_rcc.c ****       {
 649:Drivers/STM32L0xx_HAL_Driver/Src/stm32l0xx_hal_rcc.c ****         if((HAL_GetTick() - tickstart) > RCC_DBP_TIMEOUT_VALUE)
 650:Drivers/STM32L0xx_HAL_Driver/Src/stm32l0xx_hal_rcc.c ****         {
 651:Drivers/STM32L0xx_HAL_Driver/Src/stm32l0xx_hal_rcc.c ****           return HAL_TIMEOUT;
 652:Drivers/STM32L0xx_HAL_Driver/Src/stm32l0xx_hal_rcc.c ****         }
 653:Drivers/STM32L0xx_HAL_Driver/Src/stm32l0xx_hal_rcc.c ****       }
 654:Drivers/STM32L0xx_HAL_Driver/Src/stm32l0xx_hal_rcc.c ****     }
 655:Drivers/STM32L0xx_HAL_Driver/Src/stm32l0xx_hal_rcc.c **** 
 656:Drivers/STM32L0xx_HAL_Driver/Src/stm32l0xx_hal_rcc.c ****     /* Set the new LSE configuration -----------------------------------------*/
 657:Drivers/STM32L0xx_HAL_Driver/Src/stm32l0xx_hal_rcc.c ****     __HAL_RCC_LSE_CONFIG(RCC_OscInitStruct->LSEState);
 658:Drivers/STM32L0xx_HAL_Driver/Src/stm32l0xx_hal_rcc.c **** 
 659:Drivers/STM32L0xx_HAL_Driver/Src/stm32l0xx_hal_rcc.c ****     /* Check the LSE State */
 660:Drivers/STM32L0xx_HAL_Driver/Src/stm32l0xx_hal_rcc.c ****     if(RCC_OscInitStruct->LSEState != RCC_LSE_OFF)
 661:Drivers/STM32L0xx_HAL_Driver/Src/stm32l0xx_hal_rcc.c ****     {
 662:Drivers/STM32L0xx_HAL_Driver/Src/stm32l0xx_hal_rcc.c ****       /* Get Start Tick */
 663:Drivers/STM32L0xx_HAL_Driver/Src/stm32l0xx_hal_rcc.c ****       tickstart = HAL_GetTick();
 664:Drivers/STM32L0xx_HAL_Driver/Src/stm32l0xx_hal_rcc.c **** 
 665:Drivers/STM32L0xx_HAL_Driver/Src/stm32l0xx_hal_rcc.c ****       /* Wait till LSE is ready */
 666:Drivers/STM32L0xx_HAL_Driver/Src/stm32l0xx_hal_rcc.c ****       while(__HAL_RCC_GET_FLAG(RCC_FLAG_LSERDY) == 0U)
 667:Drivers/STM32L0xx_HAL_Driver/Src/stm32l0xx_hal_rcc.c ****       {
 668:Drivers/STM32L0xx_HAL_Driver/Src/stm32l0xx_hal_rcc.c ****         if((HAL_GetTick() - tickstart ) > RCC_LSE_TIMEOUT_VALUE)
 669:Drivers/STM32L0xx_HAL_Driver/Src/stm32l0xx_hal_rcc.c ****         {
 670:Drivers/STM32L0xx_HAL_Driver/Src/stm32l0xx_hal_rcc.c ****           return HAL_TIMEOUT;
 671:Drivers/STM32L0xx_HAL_Driver/Src/stm32l0xx_hal_rcc.c ****         }
 672:Drivers/STM32L0xx_HAL_Driver/Src/stm32l0xx_hal_rcc.c ****       }
 673:Drivers/STM32L0xx_HAL_Driver/Src/stm32l0xx_hal_rcc.c ****     }
 674:Drivers/STM32L0xx_HAL_Driver/Src/stm32l0xx_hal_rcc.c ****     else
 675:Drivers/STM32L0xx_HAL_Driver/Src/stm32l0xx_hal_rcc.c ****     {
 676:Drivers/STM32L0xx_HAL_Driver/Src/stm32l0xx_hal_rcc.c ****       /* Get Start Tick */
 677:Drivers/STM32L0xx_HAL_Driver/Src/stm32l0xx_hal_rcc.c ****       tickstart = HAL_GetTick();
 678:Drivers/STM32L0xx_HAL_Driver/Src/stm32l0xx_hal_rcc.c **** 
 679:Drivers/STM32L0xx_HAL_Driver/Src/stm32l0xx_hal_rcc.c ****       /* Wait till LSE is disabled */
 680:Drivers/STM32L0xx_HAL_Driver/Src/stm32l0xx_hal_rcc.c ****       while(__HAL_RCC_GET_FLAG(RCC_FLAG_LSERDY) != 0U)
 681:Drivers/STM32L0xx_HAL_Driver/Src/stm32l0xx_hal_rcc.c ****       {
 682:Drivers/STM32L0xx_HAL_Driver/Src/stm32l0xx_hal_rcc.c ****         if((HAL_GetTick() - tickstart ) > RCC_LSE_TIMEOUT_VALUE)
 683:Drivers/STM32L0xx_HAL_Driver/Src/stm32l0xx_hal_rcc.c ****         {
 684:Drivers/STM32L0xx_HAL_Driver/Src/stm32l0xx_hal_rcc.c ****           return HAL_TIMEOUT;
 685:Drivers/STM32L0xx_HAL_Driver/Src/stm32l0xx_hal_rcc.c ****         }
ARM GAS  C:\Users\Tilen\AppData\Local\Temp\ccC0CAdr.s 			page 18


 686:Drivers/STM32L0xx_HAL_Driver/Src/stm32l0xx_hal_rcc.c ****       }
 687:Drivers/STM32L0xx_HAL_Driver/Src/stm32l0xx_hal_rcc.c ****     }
 688:Drivers/STM32L0xx_HAL_Driver/Src/stm32l0xx_hal_rcc.c **** 
 689:Drivers/STM32L0xx_HAL_Driver/Src/stm32l0xx_hal_rcc.c ****     /* Require to disable power clock if necessary */
 690:Drivers/STM32L0xx_HAL_Driver/Src/stm32l0xx_hal_rcc.c ****     if(pwrclkchanged == SET)
 691:Drivers/STM32L0xx_HAL_Driver/Src/stm32l0xx_hal_rcc.c ****     {
 692:Drivers/STM32L0xx_HAL_Driver/Src/stm32l0xx_hal_rcc.c ****       __HAL_RCC_PWR_CLK_DISABLE();
 693:Drivers/STM32L0xx_HAL_Driver/Src/stm32l0xx_hal_rcc.c ****     }
 694:Drivers/STM32L0xx_HAL_Driver/Src/stm32l0xx_hal_rcc.c ****   }
 695:Drivers/STM32L0xx_HAL_Driver/Src/stm32l0xx_hal_rcc.c **** 
 696:Drivers/STM32L0xx_HAL_Driver/Src/stm32l0xx_hal_rcc.c **** #if defined(RCC_HSI48_SUPPORT)
 697:Drivers/STM32L0xx_HAL_Driver/Src/stm32l0xx_hal_rcc.c ****   /*----------------------------- HSI48 Configuration --------------------------*/
 698:Drivers/STM32L0xx_HAL_Driver/Src/stm32l0xx_hal_rcc.c ****   if(((RCC_OscInitStruct->OscillatorType) & RCC_OSCILLATORTYPE_HSI48) == RCC_OSCILLATORTYPE_HSI48)
 699:Drivers/STM32L0xx_HAL_Driver/Src/stm32l0xx_hal_rcc.c ****   {
 700:Drivers/STM32L0xx_HAL_Driver/Src/stm32l0xx_hal_rcc.c ****     /* Check the parameters */
 701:Drivers/STM32L0xx_HAL_Driver/Src/stm32l0xx_hal_rcc.c ****     assert_param(IS_RCC_HSI48(RCC_OscInitStruct->HSI48State));
 702:Drivers/STM32L0xx_HAL_Driver/Src/stm32l0xx_hal_rcc.c **** 
 703:Drivers/STM32L0xx_HAL_Driver/Src/stm32l0xx_hal_rcc.c ****       /* Check the HSI48 State */
 704:Drivers/STM32L0xx_HAL_Driver/Src/stm32l0xx_hal_rcc.c ****       if(RCC_OscInitStruct->HSI48State != RCC_HSI48_OFF)
 705:Drivers/STM32L0xx_HAL_Driver/Src/stm32l0xx_hal_rcc.c ****       {
 706:Drivers/STM32L0xx_HAL_Driver/Src/stm32l0xx_hal_rcc.c ****         /* Enable the Internal High Speed oscillator (HSI48). */
 707:Drivers/STM32L0xx_HAL_Driver/Src/stm32l0xx_hal_rcc.c ****         __HAL_RCC_HSI48_ENABLE();
 708:Drivers/STM32L0xx_HAL_Driver/Src/stm32l0xx_hal_rcc.c **** 
 709:Drivers/STM32L0xx_HAL_Driver/Src/stm32l0xx_hal_rcc.c ****         /* Get Start Tick */
 710:Drivers/STM32L0xx_HAL_Driver/Src/stm32l0xx_hal_rcc.c ****         tickstart = HAL_GetTick();
 711:Drivers/STM32L0xx_HAL_Driver/Src/stm32l0xx_hal_rcc.c **** 
 712:Drivers/STM32L0xx_HAL_Driver/Src/stm32l0xx_hal_rcc.c ****         /* Wait till HSI48 is ready */
 713:Drivers/STM32L0xx_HAL_Driver/Src/stm32l0xx_hal_rcc.c ****         while(__HAL_RCC_GET_FLAG(RCC_FLAG_HSI48RDY) == 0U)
 714:Drivers/STM32L0xx_HAL_Driver/Src/stm32l0xx_hal_rcc.c ****         {
 715:Drivers/STM32L0xx_HAL_Driver/Src/stm32l0xx_hal_rcc.c ****           if((HAL_GetTick() - tickstart) > HSI48_TIMEOUT_VALUE)
 716:Drivers/STM32L0xx_HAL_Driver/Src/stm32l0xx_hal_rcc.c ****           {
 717:Drivers/STM32L0xx_HAL_Driver/Src/stm32l0xx_hal_rcc.c ****             return HAL_TIMEOUT;
 718:Drivers/STM32L0xx_HAL_Driver/Src/stm32l0xx_hal_rcc.c ****           }
 719:Drivers/STM32L0xx_HAL_Driver/Src/stm32l0xx_hal_rcc.c ****         }
 720:Drivers/STM32L0xx_HAL_Driver/Src/stm32l0xx_hal_rcc.c ****       }
 721:Drivers/STM32L0xx_HAL_Driver/Src/stm32l0xx_hal_rcc.c ****       else
 722:Drivers/STM32L0xx_HAL_Driver/Src/stm32l0xx_hal_rcc.c ****       {
 723:Drivers/STM32L0xx_HAL_Driver/Src/stm32l0xx_hal_rcc.c ****         /* Disable the Internal High Speed oscillator (HSI48). */
 724:Drivers/STM32L0xx_HAL_Driver/Src/stm32l0xx_hal_rcc.c ****         __HAL_RCC_HSI48_DISABLE();
 725:Drivers/STM32L0xx_HAL_Driver/Src/stm32l0xx_hal_rcc.c **** 
 726:Drivers/STM32L0xx_HAL_Driver/Src/stm32l0xx_hal_rcc.c ****         /* Get Start Tick */
 727:Drivers/STM32L0xx_HAL_Driver/Src/stm32l0xx_hal_rcc.c ****         tickstart = HAL_GetTick();
 728:Drivers/STM32L0xx_HAL_Driver/Src/stm32l0xx_hal_rcc.c **** 
 729:Drivers/STM32L0xx_HAL_Driver/Src/stm32l0xx_hal_rcc.c ****         /* Wait till HSI48 is ready */
 730:Drivers/STM32L0xx_HAL_Driver/Src/stm32l0xx_hal_rcc.c ****         while(__HAL_RCC_GET_FLAG(RCC_FLAG_HSI48RDY) != 0U)
 731:Drivers/STM32L0xx_HAL_Driver/Src/stm32l0xx_hal_rcc.c ****         {
 732:Drivers/STM32L0xx_HAL_Driver/Src/stm32l0xx_hal_rcc.c ****           if((HAL_GetTick() - tickstart) > HSI48_TIMEOUT_VALUE)
 733:Drivers/STM32L0xx_HAL_Driver/Src/stm32l0xx_hal_rcc.c ****           {
 734:Drivers/STM32L0xx_HAL_Driver/Src/stm32l0xx_hal_rcc.c ****             return HAL_TIMEOUT;
 735:Drivers/STM32L0xx_HAL_Driver/Src/stm32l0xx_hal_rcc.c ****           }
 736:Drivers/STM32L0xx_HAL_Driver/Src/stm32l0xx_hal_rcc.c ****         }
 737:Drivers/STM32L0xx_HAL_Driver/Src/stm32l0xx_hal_rcc.c ****       }
 738:Drivers/STM32L0xx_HAL_Driver/Src/stm32l0xx_hal_rcc.c ****   }
 739:Drivers/STM32L0xx_HAL_Driver/Src/stm32l0xx_hal_rcc.c **** #endif /* RCC_HSI48_SUPPORT */
 740:Drivers/STM32L0xx_HAL_Driver/Src/stm32l0xx_hal_rcc.c **** 
 741:Drivers/STM32L0xx_HAL_Driver/Src/stm32l0xx_hal_rcc.c ****   /*-------------------------------- PLL Configuration -----------------------*/
 742:Drivers/STM32L0xx_HAL_Driver/Src/stm32l0xx_hal_rcc.c ****   /* Check the parameters */
ARM GAS  C:\Users\Tilen\AppData\Local\Temp\ccC0CAdr.s 			page 19


 743:Drivers/STM32L0xx_HAL_Driver/Src/stm32l0xx_hal_rcc.c ****   assert_param(IS_RCC_PLL(RCC_OscInitStruct->PLL.PLLState));
 744:Drivers/STM32L0xx_HAL_Driver/Src/stm32l0xx_hal_rcc.c ****   if ((RCC_OscInitStruct->PLL.PLLState) != RCC_PLL_NONE)
 745:Drivers/STM32L0xx_HAL_Driver/Src/stm32l0xx_hal_rcc.c ****   {
 746:Drivers/STM32L0xx_HAL_Driver/Src/stm32l0xx_hal_rcc.c ****     /* Check if the PLL is used as system clock or not */
 747:Drivers/STM32L0xx_HAL_Driver/Src/stm32l0xx_hal_rcc.c ****     if(sysclk_source != RCC_SYSCLKSOURCE_STATUS_PLLCLK)
 748:Drivers/STM32L0xx_HAL_Driver/Src/stm32l0xx_hal_rcc.c ****     {
 749:Drivers/STM32L0xx_HAL_Driver/Src/stm32l0xx_hal_rcc.c ****       if((RCC_OscInitStruct->PLL.PLLState) == RCC_PLL_ON)
 750:Drivers/STM32L0xx_HAL_Driver/Src/stm32l0xx_hal_rcc.c ****       {
 751:Drivers/STM32L0xx_HAL_Driver/Src/stm32l0xx_hal_rcc.c ****         /* Check the parameters */
 752:Drivers/STM32L0xx_HAL_Driver/Src/stm32l0xx_hal_rcc.c ****         assert_param(IS_RCC_PLLSOURCE(RCC_OscInitStruct->PLL.PLLSource));
 753:Drivers/STM32L0xx_HAL_Driver/Src/stm32l0xx_hal_rcc.c ****         assert_param(IS_RCC_PLL_MUL(RCC_OscInitStruct->PLL.PLLMUL));
 754:Drivers/STM32L0xx_HAL_Driver/Src/stm32l0xx_hal_rcc.c ****         assert_param(IS_RCC_PLL_DIV(RCC_OscInitStruct->PLL.PLLDIV));
 755:Drivers/STM32L0xx_HAL_Driver/Src/stm32l0xx_hal_rcc.c **** 
 756:Drivers/STM32L0xx_HAL_Driver/Src/stm32l0xx_hal_rcc.c ****         /* Disable the main PLL. */
 757:Drivers/STM32L0xx_HAL_Driver/Src/stm32l0xx_hal_rcc.c ****         __HAL_RCC_PLL_DISABLE();
 758:Drivers/STM32L0xx_HAL_Driver/Src/stm32l0xx_hal_rcc.c **** 
 759:Drivers/STM32L0xx_HAL_Driver/Src/stm32l0xx_hal_rcc.c ****         /* Get Start Tick */
 760:Drivers/STM32L0xx_HAL_Driver/Src/stm32l0xx_hal_rcc.c ****         tickstart = HAL_GetTick();
 761:Drivers/STM32L0xx_HAL_Driver/Src/stm32l0xx_hal_rcc.c **** 
 762:Drivers/STM32L0xx_HAL_Driver/Src/stm32l0xx_hal_rcc.c ****         /* Wait till PLL is ready */
 763:Drivers/STM32L0xx_HAL_Driver/Src/stm32l0xx_hal_rcc.c ****         while(__HAL_RCC_GET_FLAG(RCC_FLAG_PLLRDY)  != 0U)
 764:Drivers/STM32L0xx_HAL_Driver/Src/stm32l0xx_hal_rcc.c ****         {
 765:Drivers/STM32L0xx_HAL_Driver/Src/stm32l0xx_hal_rcc.c ****           if((HAL_GetTick() - tickstart ) > PLL_TIMEOUT_VALUE)
 766:Drivers/STM32L0xx_HAL_Driver/Src/stm32l0xx_hal_rcc.c ****           {
 767:Drivers/STM32L0xx_HAL_Driver/Src/stm32l0xx_hal_rcc.c ****             return HAL_TIMEOUT;
 768:Drivers/STM32L0xx_HAL_Driver/Src/stm32l0xx_hal_rcc.c ****           }
 769:Drivers/STM32L0xx_HAL_Driver/Src/stm32l0xx_hal_rcc.c ****         }
 770:Drivers/STM32L0xx_HAL_Driver/Src/stm32l0xx_hal_rcc.c **** 
 771:Drivers/STM32L0xx_HAL_Driver/Src/stm32l0xx_hal_rcc.c ****         /* Configure the main PLL clock source, multiplication and division factors. */
 772:Drivers/STM32L0xx_HAL_Driver/Src/stm32l0xx_hal_rcc.c ****         __HAL_RCC_PLL_CONFIG(RCC_OscInitStruct->PLL.PLLSource,
 773:Drivers/STM32L0xx_HAL_Driver/Src/stm32l0xx_hal_rcc.c ****                              RCC_OscInitStruct->PLL.PLLMUL,
 774:Drivers/STM32L0xx_HAL_Driver/Src/stm32l0xx_hal_rcc.c ****                              RCC_OscInitStruct->PLL.PLLDIV);
 775:Drivers/STM32L0xx_HAL_Driver/Src/stm32l0xx_hal_rcc.c ****         /* Enable the main PLL. */
 776:Drivers/STM32L0xx_HAL_Driver/Src/stm32l0xx_hal_rcc.c ****         __HAL_RCC_PLL_ENABLE();
 777:Drivers/STM32L0xx_HAL_Driver/Src/stm32l0xx_hal_rcc.c **** 
 778:Drivers/STM32L0xx_HAL_Driver/Src/stm32l0xx_hal_rcc.c ****         /* Get Start Tick */
 779:Drivers/STM32L0xx_HAL_Driver/Src/stm32l0xx_hal_rcc.c ****         tickstart = HAL_GetTick();
 780:Drivers/STM32L0xx_HAL_Driver/Src/stm32l0xx_hal_rcc.c **** 
 781:Drivers/STM32L0xx_HAL_Driver/Src/stm32l0xx_hal_rcc.c ****         /* Wait till PLL is ready */
 782:Drivers/STM32L0xx_HAL_Driver/Src/stm32l0xx_hal_rcc.c ****         while(__HAL_RCC_GET_FLAG(RCC_FLAG_PLLRDY)  == 0U)
 783:Drivers/STM32L0xx_HAL_Driver/Src/stm32l0xx_hal_rcc.c ****         {
 784:Drivers/STM32L0xx_HAL_Driver/Src/stm32l0xx_hal_rcc.c ****           if((HAL_GetTick() - tickstart ) > PLL_TIMEOUT_VALUE)
 785:Drivers/STM32L0xx_HAL_Driver/Src/stm32l0xx_hal_rcc.c ****           {
 786:Drivers/STM32L0xx_HAL_Driver/Src/stm32l0xx_hal_rcc.c ****             return HAL_TIMEOUT;
 787:Drivers/STM32L0xx_HAL_Driver/Src/stm32l0xx_hal_rcc.c ****           }
 788:Drivers/STM32L0xx_HAL_Driver/Src/stm32l0xx_hal_rcc.c ****         }
 789:Drivers/STM32L0xx_HAL_Driver/Src/stm32l0xx_hal_rcc.c ****       }
 790:Drivers/STM32L0xx_HAL_Driver/Src/stm32l0xx_hal_rcc.c ****       else
 791:Drivers/STM32L0xx_HAL_Driver/Src/stm32l0xx_hal_rcc.c ****       {
 792:Drivers/STM32L0xx_HAL_Driver/Src/stm32l0xx_hal_rcc.c ****         /* Disable the main PLL. */
 793:Drivers/STM32L0xx_HAL_Driver/Src/stm32l0xx_hal_rcc.c ****         __HAL_RCC_PLL_DISABLE();
 794:Drivers/STM32L0xx_HAL_Driver/Src/stm32l0xx_hal_rcc.c **** 
 795:Drivers/STM32L0xx_HAL_Driver/Src/stm32l0xx_hal_rcc.c ****         /* Get Start Tick */
 796:Drivers/STM32L0xx_HAL_Driver/Src/stm32l0xx_hal_rcc.c ****         tickstart = HAL_GetTick();
 797:Drivers/STM32L0xx_HAL_Driver/Src/stm32l0xx_hal_rcc.c **** 
 798:Drivers/STM32L0xx_HAL_Driver/Src/stm32l0xx_hal_rcc.c ****         /* Wait till PLL is disabled */
 799:Drivers/STM32L0xx_HAL_Driver/Src/stm32l0xx_hal_rcc.c ****         while(__HAL_RCC_GET_FLAG(RCC_FLAG_PLLRDY)  != 0U)
ARM GAS  C:\Users\Tilen\AppData\Local\Temp\ccC0CAdr.s 			page 20


 800:Drivers/STM32L0xx_HAL_Driver/Src/stm32l0xx_hal_rcc.c ****         {
 801:Drivers/STM32L0xx_HAL_Driver/Src/stm32l0xx_hal_rcc.c ****           if((HAL_GetTick() - tickstart ) > PLL_TIMEOUT_VALUE)
 802:Drivers/STM32L0xx_HAL_Driver/Src/stm32l0xx_hal_rcc.c ****           {
 803:Drivers/STM32L0xx_HAL_Driver/Src/stm32l0xx_hal_rcc.c ****             return HAL_TIMEOUT;
 804:Drivers/STM32L0xx_HAL_Driver/Src/stm32l0xx_hal_rcc.c ****           }
 805:Drivers/STM32L0xx_HAL_Driver/Src/stm32l0xx_hal_rcc.c ****         }
 806:Drivers/STM32L0xx_HAL_Driver/Src/stm32l0xx_hal_rcc.c ****       }
 807:Drivers/STM32L0xx_HAL_Driver/Src/stm32l0xx_hal_rcc.c ****     }
 808:Drivers/STM32L0xx_HAL_Driver/Src/stm32l0xx_hal_rcc.c ****     else
 809:Drivers/STM32L0xx_HAL_Driver/Src/stm32l0xx_hal_rcc.c ****     {
 810:Drivers/STM32L0xx_HAL_Driver/Src/stm32l0xx_hal_rcc.c ****       /* Check if there is a request to disable the PLL used as System clock source */
 811:Drivers/STM32L0xx_HAL_Driver/Src/stm32l0xx_hal_rcc.c ****       if((RCC_OscInitStruct->PLL.PLLState) == RCC_PLL_OFF)
 812:Drivers/STM32L0xx_HAL_Driver/Src/stm32l0xx_hal_rcc.c ****       {
 813:Drivers/STM32L0xx_HAL_Driver/Src/stm32l0xx_hal_rcc.c ****         return HAL_ERROR;
 814:Drivers/STM32L0xx_HAL_Driver/Src/stm32l0xx_hal_rcc.c ****       }
 815:Drivers/STM32L0xx_HAL_Driver/Src/stm32l0xx_hal_rcc.c ****       else
 816:Drivers/STM32L0xx_HAL_Driver/Src/stm32l0xx_hal_rcc.c ****       {
 817:Drivers/STM32L0xx_HAL_Driver/Src/stm32l0xx_hal_rcc.c ****         /* Do not return HAL_ERROR if request repeats the current configuration */
 818:Drivers/STM32L0xx_HAL_Driver/Src/stm32l0xx_hal_rcc.c ****         pll_config = RCC->CFGR;
 819:Drivers/STM32L0xx_HAL_Driver/Src/stm32l0xx_hal_rcc.c ****         if((READ_BIT(pll_config, RCC_CFGR_PLLSRC) != RCC_OscInitStruct->PLL.PLLSource) ||
 820:Drivers/STM32L0xx_HAL_Driver/Src/stm32l0xx_hal_rcc.c ****            (READ_BIT(pll_config, RCC_CFGR_PLLMUL) != RCC_OscInitStruct->PLL.PLLMUL) ||
 821:Drivers/STM32L0xx_HAL_Driver/Src/stm32l0xx_hal_rcc.c ****            (READ_BIT(pll_config, RCC_CFGR_PLLDIV) != RCC_OscInitStruct->PLL.PLLDIV))
 822:Drivers/STM32L0xx_HAL_Driver/Src/stm32l0xx_hal_rcc.c ****         {
 823:Drivers/STM32L0xx_HAL_Driver/Src/stm32l0xx_hal_rcc.c ****           return HAL_ERROR;
 824:Drivers/STM32L0xx_HAL_Driver/Src/stm32l0xx_hal_rcc.c ****         }
 825:Drivers/STM32L0xx_HAL_Driver/Src/stm32l0xx_hal_rcc.c ****       }
 826:Drivers/STM32L0xx_HAL_Driver/Src/stm32l0xx_hal_rcc.c ****     }
 827:Drivers/STM32L0xx_HAL_Driver/Src/stm32l0xx_hal_rcc.c ****   }
 828:Drivers/STM32L0xx_HAL_Driver/Src/stm32l0xx_hal_rcc.c ****   return HAL_OK;
 829:Drivers/STM32L0xx_HAL_Driver/Src/stm32l0xx_hal_rcc.c **** }
 830:Drivers/STM32L0xx_HAL_Driver/Src/stm32l0xx_hal_rcc.c **** 
 831:Drivers/STM32L0xx_HAL_Driver/Src/stm32l0xx_hal_rcc.c **** /**
 832:Drivers/STM32L0xx_HAL_Driver/Src/stm32l0xx_hal_rcc.c ****   * @brief  Initializes the CPU, AHB and APB buses clocks according to the specified
 833:Drivers/STM32L0xx_HAL_Driver/Src/stm32l0xx_hal_rcc.c ****   *         parameters in the RCC_ClkInitStruct.
 834:Drivers/STM32L0xx_HAL_Driver/Src/stm32l0xx_hal_rcc.c ****   * @param  RCC_ClkInitStruct pointer to an RCC_OscInitTypeDef structure that
 835:Drivers/STM32L0xx_HAL_Driver/Src/stm32l0xx_hal_rcc.c ****   *         contains the configuration information for the RCC peripheral.
 836:Drivers/STM32L0xx_HAL_Driver/Src/stm32l0xx_hal_rcc.c ****   * @param  FLatency FLASH Latency
 837:Drivers/STM32L0xx_HAL_Driver/Src/stm32l0xx_hal_rcc.c ****   *          The value of this parameter depend on device used within the same series
 838:Drivers/STM32L0xx_HAL_Driver/Src/stm32l0xx_hal_rcc.c ****   * @note   The SystemCoreClock CMSIS variable is used to store System Clock Frequency
 839:Drivers/STM32L0xx_HAL_Driver/Src/stm32l0xx_hal_rcc.c ****   *         and updated by @ref HAL_RCC_GetHCLKFreq() function called within this function
 840:Drivers/STM32L0xx_HAL_Driver/Src/stm32l0xx_hal_rcc.c ****   *
 841:Drivers/STM32L0xx_HAL_Driver/Src/stm32l0xx_hal_rcc.c ****   * @note   The MSI is used (enabled by hardware) as system clock source after
 842:Drivers/STM32L0xx_HAL_Driver/Src/stm32l0xx_hal_rcc.c ****   *         start-up from Reset, wake-up from STOP and STANDBY mode, or in case
 843:Drivers/STM32L0xx_HAL_Driver/Src/stm32l0xx_hal_rcc.c ****   *         of failure of the HSE used directly or indirectly as system clock
 844:Drivers/STM32L0xx_HAL_Driver/Src/stm32l0xx_hal_rcc.c ****   *         (if the Clock Security System CSS is enabled).
 845:Drivers/STM32L0xx_HAL_Driver/Src/stm32l0xx_hal_rcc.c ****   *
 846:Drivers/STM32L0xx_HAL_Driver/Src/stm32l0xx_hal_rcc.c ****   * @note   A switch from one clock source to another occurs only if the target
 847:Drivers/STM32L0xx_HAL_Driver/Src/stm32l0xx_hal_rcc.c ****   *         clock source is ready (clock stable after start-up delay or PLL locked).
 848:Drivers/STM32L0xx_HAL_Driver/Src/stm32l0xx_hal_rcc.c ****   *         If a clock source which is not yet ready is selected, the switch will
 849:Drivers/STM32L0xx_HAL_Driver/Src/stm32l0xx_hal_rcc.c ****   *         occur when the clock source will be ready.
 850:Drivers/STM32L0xx_HAL_Driver/Src/stm32l0xx_hal_rcc.c ****   *         You can use @ref HAL_RCC_GetClockConfig() function to know which clock is
 851:Drivers/STM32L0xx_HAL_Driver/Src/stm32l0xx_hal_rcc.c ****   *         currently used as system clock source.
 852:Drivers/STM32L0xx_HAL_Driver/Src/stm32l0xx_hal_rcc.c ****   * @note   Depending on the device voltage range, the software has to set correctly
 853:Drivers/STM32L0xx_HAL_Driver/Src/stm32l0xx_hal_rcc.c ****   *         HPRE[3:0] bits to ensure that HCLK not exceed the maximum allowed frequency
 854:Drivers/STM32L0xx_HAL_Driver/Src/stm32l0xx_hal_rcc.c ****   *         (for more details refer to section above "Initialization/de-initialization functions")
 855:Drivers/STM32L0xx_HAL_Driver/Src/stm32l0xx_hal_rcc.c ****   * @retval HAL status
 856:Drivers/STM32L0xx_HAL_Driver/Src/stm32l0xx_hal_rcc.c ****   */
ARM GAS  C:\Users\Tilen\AppData\Local\Temp\ccC0CAdr.s 			page 21


 857:Drivers/STM32L0xx_HAL_Driver/Src/stm32l0xx_hal_rcc.c **** HAL_StatusTypeDef HAL_RCC_ClockConfig(const RCC_ClkInitTypeDef  *RCC_ClkInitStruct, uint32_t FLaten
 858:Drivers/STM32L0xx_HAL_Driver/Src/stm32l0xx_hal_rcc.c **** {
 859:Drivers/STM32L0xx_HAL_Driver/Src/stm32l0xx_hal_rcc.c ****   uint32_t tickstart;
 860:Drivers/STM32L0xx_HAL_Driver/Src/stm32l0xx_hal_rcc.c ****   HAL_StatusTypeDef status;
 861:Drivers/STM32L0xx_HAL_Driver/Src/stm32l0xx_hal_rcc.c **** 
 862:Drivers/STM32L0xx_HAL_Driver/Src/stm32l0xx_hal_rcc.c ****   /* Check Null pointer */
 863:Drivers/STM32L0xx_HAL_Driver/Src/stm32l0xx_hal_rcc.c ****   if(RCC_ClkInitStruct == NULL)
 864:Drivers/STM32L0xx_HAL_Driver/Src/stm32l0xx_hal_rcc.c ****   {
 865:Drivers/STM32L0xx_HAL_Driver/Src/stm32l0xx_hal_rcc.c ****     return HAL_ERROR;
 866:Drivers/STM32L0xx_HAL_Driver/Src/stm32l0xx_hal_rcc.c ****   }
 867:Drivers/STM32L0xx_HAL_Driver/Src/stm32l0xx_hal_rcc.c **** 
 868:Drivers/STM32L0xx_HAL_Driver/Src/stm32l0xx_hal_rcc.c ****   /* Check the parameters */
 869:Drivers/STM32L0xx_HAL_Driver/Src/stm32l0xx_hal_rcc.c ****   assert_param(IS_RCC_CLOCKTYPE(RCC_ClkInitStruct->ClockType));
 870:Drivers/STM32L0xx_HAL_Driver/Src/stm32l0xx_hal_rcc.c ****   assert_param(IS_FLASH_LATENCY(FLatency));
 871:Drivers/STM32L0xx_HAL_Driver/Src/stm32l0xx_hal_rcc.c **** 
 872:Drivers/STM32L0xx_HAL_Driver/Src/stm32l0xx_hal_rcc.c ****   /* To correctly read data from FLASH memory, the number of wait states (LATENCY)
 873:Drivers/STM32L0xx_HAL_Driver/Src/stm32l0xx_hal_rcc.c ****   must be correctly programmed according to the frequency of the CPU clock
 874:Drivers/STM32L0xx_HAL_Driver/Src/stm32l0xx_hal_rcc.c ****   (HCLK) and the supply voltage of the device. */
 875:Drivers/STM32L0xx_HAL_Driver/Src/stm32l0xx_hal_rcc.c **** 
 876:Drivers/STM32L0xx_HAL_Driver/Src/stm32l0xx_hal_rcc.c ****   /* Increasing the number of wait states because of higher CPU frequency */
 877:Drivers/STM32L0xx_HAL_Driver/Src/stm32l0xx_hal_rcc.c ****   if(FLatency > __HAL_FLASH_GET_LATENCY())
 878:Drivers/STM32L0xx_HAL_Driver/Src/stm32l0xx_hal_rcc.c ****   {
 879:Drivers/STM32L0xx_HAL_Driver/Src/stm32l0xx_hal_rcc.c ****     /* Program the new number of wait states to the LATENCY bits in the FLASH_ACR register */
 880:Drivers/STM32L0xx_HAL_Driver/Src/stm32l0xx_hal_rcc.c ****     __HAL_FLASH_SET_LATENCY(FLatency);
 881:Drivers/STM32L0xx_HAL_Driver/Src/stm32l0xx_hal_rcc.c **** 
 882:Drivers/STM32L0xx_HAL_Driver/Src/stm32l0xx_hal_rcc.c ****     /* Check that the new number of wait states is taken into account to access the Flash
 883:Drivers/STM32L0xx_HAL_Driver/Src/stm32l0xx_hal_rcc.c ****     memory by polling the FLASH_ACR register */
 884:Drivers/STM32L0xx_HAL_Driver/Src/stm32l0xx_hal_rcc.c ****     tickstart = HAL_GetTick();
 885:Drivers/STM32L0xx_HAL_Driver/Src/stm32l0xx_hal_rcc.c **** 
 886:Drivers/STM32L0xx_HAL_Driver/Src/stm32l0xx_hal_rcc.c ****     while (__HAL_FLASH_GET_LATENCY() != FLatency)
 887:Drivers/STM32L0xx_HAL_Driver/Src/stm32l0xx_hal_rcc.c ****     {
 888:Drivers/STM32L0xx_HAL_Driver/Src/stm32l0xx_hal_rcc.c ****       if ((HAL_GetTick() - tickstart) > CLOCKSWITCH_TIMEOUT_VALUE)
 889:Drivers/STM32L0xx_HAL_Driver/Src/stm32l0xx_hal_rcc.c ****       {
 890:Drivers/STM32L0xx_HAL_Driver/Src/stm32l0xx_hal_rcc.c ****         return HAL_TIMEOUT;
 891:Drivers/STM32L0xx_HAL_Driver/Src/stm32l0xx_hal_rcc.c ****       }
 892:Drivers/STM32L0xx_HAL_Driver/Src/stm32l0xx_hal_rcc.c ****     }
 893:Drivers/STM32L0xx_HAL_Driver/Src/stm32l0xx_hal_rcc.c ****   }
 894:Drivers/STM32L0xx_HAL_Driver/Src/stm32l0xx_hal_rcc.c **** 
 895:Drivers/STM32L0xx_HAL_Driver/Src/stm32l0xx_hal_rcc.c ****   /*-------------------------- HCLK Configuration --------------------------*/
 896:Drivers/STM32L0xx_HAL_Driver/Src/stm32l0xx_hal_rcc.c ****   if(((RCC_ClkInitStruct->ClockType) & RCC_CLOCKTYPE_HCLK) == RCC_CLOCKTYPE_HCLK)
 897:Drivers/STM32L0xx_HAL_Driver/Src/stm32l0xx_hal_rcc.c ****   {
 898:Drivers/STM32L0xx_HAL_Driver/Src/stm32l0xx_hal_rcc.c ****     assert_param(IS_RCC_HCLK(RCC_ClkInitStruct->AHBCLKDivider));
 899:Drivers/STM32L0xx_HAL_Driver/Src/stm32l0xx_hal_rcc.c ****     MODIFY_REG(RCC->CFGR, RCC_CFGR_HPRE, RCC_ClkInitStruct->AHBCLKDivider);
 900:Drivers/STM32L0xx_HAL_Driver/Src/stm32l0xx_hal_rcc.c ****   }
 901:Drivers/STM32L0xx_HAL_Driver/Src/stm32l0xx_hal_rcc.c **** 
 902:Drivers/STM32L0xx_HAL_Driver/Src/stm32l0xx_hal_rcc.c ****   /*------------------------- SYSCLK Configuration ---------------------------*/
 903:Drivers/STM32L0xx_HAL_Driver/Src/stm32l0xx_hal_rcc.c ****   if(((RCC_ClkInitStruct->ClockType) & RCC_CLOCKTYPE_SYSCLK) == RCC_CLOCKTYPE_SYSCLK)
 904:Drivers/STM32L0xx_HAL_Driver/Src/stm32l0xx_hal_rcc.c ****   {
 905:Drivers/STM32L0xx_HAL_Driver/Src/stm32l0xx_hal_rcc.c ****     assert_param(IS_RCC_SYSCLKSOURCE(RCC_ClkInitStruct->SYSCLKSource));
 906:Drivers/STM32L0xx_HAL_Driver/Src/stm32l0xx_hal_rcc.c **** 
 907:Drivers/STM32L0xx_HAL_Driver/Src/stm32l0xx_hal_rcc.c ****     /* HSE is selected as System Clock Source */
 908:Drivers/STM32L0xx_HAL_Driver/Src/stm32l0xx_hal_rcc.c ****     if(RCC_ClkInitStruct->SYSCLKSource == RCC_SYSCLKSOURCE_HSE)
 909:Drivers/STM32L0xx_HAL_Driver/Src/stm32l0xx_hal_rcc.c ****     {
 910:Drivers/STM32L0xx_HAL_Driver/Src/stm32l0xx_hal_rcc.c ****       /* Check the HSE ready flag */
 911:Drivers/STM32L0xx_HAL_Driver/Src/stm32l0xx_hal_rcc.c ****       if(__HAL_RCC_GET_FLAG(RCC_FLAG_HSERDY) == 0U)
 912:Drivers/STM32L0xx_HAL_Driver/Src/stm32l0xx_hal_rcc.c ****       {
 913:Drivers/STM32L0xx_HAL_Driver/Src/stm32l0xx_hal_rcc.c ****         return HAL_ERROR;
ARM GAS  C:\Users\Tilen\AppData\Local\Temp\ccC0CAdr.s 			page 22


 914:Drivers/STM32L0xx_HAL_Driver/Src/stm32l0xx_hal_rcc.c ****       }
 915:Drivers/STM32L0xx_HAL_Driver/Src/stm32l0xx_hal_rcc.c ****     }
 916:Drivers/STM32L0xx_HAL_Driver/Src/stm32l0xx_hal_rcc.c ****     /* PLL is selected as System Clock Source */
 917:Drivers/STM32L0xx_HAL_Driver/Src/stm32l0xx_hal_rcc.c ****     else if(RCC_ClkInitStruct->SYSCLKSource == RCC_SYSCLKSOURCE_PLLCLK)
 918:Drivers/STM32L0xx_HAL_Driver/Src/stm32l0xx_hal_rcc.c ****     {
 919:Drivers/STM32L0xx_HAL_Driver/Src/stm32l0xx_hal_rcc.c ****       /* Check the PLL ready flag */
 920:Drivers/STM32L0xx_HAL_Driver/Src/stm32l0xx_hal_rcc.c ****       if(__HAL_RCC_GET_FLAG(RCC_FLAG_PLLRDY) == 0U)
 921:Drivers/STM32L0xx_HAL_Driver/Src/stm32l0xx_hal_rcc.c ****       {
 922:Drivers/STM32L0xx_HAL_Driver/Src/stm32l0xx_hal_rcc.c ****         return HAL_ERROR;
 923:Drivers/STM32L0xx_HAL_Driver/Src/stm32l0xx_hal_rcc.c ****       }
 924:Drivers/STM32L0xx_HAL_Driver/Src/stm32l0xx_hal_rcc.c ****     }
 925:Drivers/STM32L0xx_HAL_Driver/Src/stm32l0xx_hal_rcc.c ****     /* HSI is selected as System Clock Source */
 926:Drivers/STM32L0xx_HAL_Driver/Src/stm32l0xx_hal_rcc.c ****     else if(RCC_ClkInitStruct->SYSCLKSource == RCC_SYSCLKSOURCE_HSI)
 927:Drivers/STM32L0xx_HAL_Driver/Src/stm32l0xx_hal_rcc.c ****     {
 928:Drivers/STM32L0xx_HAL_Driver/Src/stm32l0xx_hal_rcc.c ****       /* Check the HSI ready flag */
 929:Drivers/STM32L0xx_HAL_Driver/Src/stm32l0xx_hal_rcc.c ****       if(__HAL_RCC_GET_FLAG(RCC_FLAG_HSIRDY) == 0U)
 930:Drivers/STM32L0xx_HAL_Driver/Src/stm32l0xx_hal_rcc.c ****       {
 931:Drivers/STM32L0xx_HAL_Driver/Src/stm32l0xx_hal_rcc.c ****         return HAL_ERROR;
 932:Drivers/STM32L0xx_HAL_Driver/Src/stm32l0xx_hal_rcc.c ****       }
 933:Drivers/STM32L0xx_HAL_Driver/Src/stm32l0xx_hal_rcc.c ****     }
 934:Drivers/STM32L0xx_HAL_Driver/Src/stm32l0xx_hal_rcc.c ****     /* MSI is selected as System Clock Source */
 935:Drivers/STM32L0xx_HAL_Driver/Src/stm32l0xx_hal_rcc.c ****     else
 936:Drivers/STM32L0xx_HAL_Driver/Src/stm32l0xx_hal_rcc.c ****     {
 937:Drivers/STM32L0xx_HAL_Driver/Src/stm32l0xx_hal_rcc.c ****       /* Check the MSI ready flag */
 938:Drivers/STM32L0xx_HAL_Driver/Src/stm32l0xx_hal_rcc.c ****       if(__HAL_RCC_GET_FLAG(RCC_FLAG_MSIRDY) == 0U)
 939:Drivers/STM32L0xx_HAL_Driver/Src/stm32l0xx_hal_rcc.c ****       {
 940:Drivers/STM32L0xx_HAL_Driver/Src/stm32l0xx_hal_rcc.c ****         return HAL_ERROR;
 941:Drivers/STM32L0xx_HAL_Driver/Src/stm32l0xx_hal_rcc.c ****       }
 942:Drivers/STM32L0xx_HAL_Driver/Src/stm32l0xx_hal_rcc.c ****     }
 943:Drivers/STM32L0xx_HAL_Driver/Src/stm32l0xx_hal_rcc.c ****     __HAL_RCC_SYSCLK_CONFIG(RCC_ClkInitStruct->SYSCLKSource);
 944:Drivers/STM32L0xx_HAL_Driver/Src/stm32l0xx_hal_rcc.c **** 
 945:Drivers/STM32L0xx_HAL_Driver/Src/stm32l0xx_hal_rcc.c ****     /* Get Start Tick */
 946:Drivers/STM32L0xx_HAL_Driver/Src/stm32l0xx_hal_rcc.c ****     tickstart = HAL_GetTick();
 947:Drivers/STM32L0xx_HAL_Driver/Src/stm32l0xx_hal_rcc.c **** 
 948:Drivers/STM32L0xx_HAL_Driver/Src/stm32l0xx_hal_rcc.c ****     if(RCC_ClkInitStruct->SYSCLKSource == RCC_SYSCLKSOURCE_HSE)
 949:Drivers/STM32L0xx_HAL_Driver/Src/stm32l0xx_hal_rcc.c ****     {
 950:Drivers/STM32L0xx_HAL_Driver/Src/stm32l0xx_hal_rcc.c ****       while (__HAL_RCC_GET_SYSCLK_SOURCE() != RCC_SYSCLKSOURCE_STATUS_HSE)
 951:Drivers/STM32L0xx_HAL_Driver/Src/stm32l0xx_hal_rcc.c ****       {
 952:Drivers/STM32L0xx_HAL_Driver/Src/stm32l0xx_hal_rcc.c ****         if((HAL_GetTick() - tickstart ) > CLOCKSWITCH_TIMEOUT_VALUE)
 953:Drivers/STM32L0xx_HAL_Driver/Src/stm32l0xx_hal_rcc.c ****         {
 954:Drivers/STM32L0xx_HAL_Driver/Src/stm32l0xx_hal_rcc.c ****           return HAL_TIMEOUT;
 955:Drivers/STM32L0xx_HAL_Driver/Src/stm32l0xx_hal_rcc.c ****         }
 956:Drivers/STM32L0xx_HAL_Driver/Src/stm32l0xx_hal_rcc.c ****       }
 957:Drivers/STM32L0xx_HAL_Driver/Src/stm32l0xx_hal_rcc.c ****     }
 958:Drivers/STM32L0xx_HAL_Driver/Src/stm32l0xx_hal_rcc.c ****     else if(RCC_ClkInitStruct->SYSCLKSource == RCC_SYSCLKSOURCE_PLLCLK)
 959:Drivers/STM32L0xx_HAL_Driver/Src/stm32l0xx_hal_rcc.c ****     {
 960:Drivers/STM32L0xx_HAL_Driver/Src/stm32l0xx_hal_rcc.c ****       while (__HAL_RCC_GET_SYSCLK_SOURCE() != RCC_SYSCLKSOURCE_STATUS_PLLCLK)
 961:Drivers/STM32L0xx_HAL_Driver/Src/stm32l0xx_hal_rcc.c ****       {
 962:Drivers/STM32L0xx_HAL_Driver/Src/stm32l0xx_hal_rcc.c ****         if((HAL_GetTick() - tickstart ) > CLOCKSWITCH_TIMEOUT_VALUE)
 963:Drivers/STM32L0xx_HAL_Driver/Src/stm32l0xx_hal_rcc.c ****         {
 964:Drivers/STM32L0xx_HAL_Driver/Src/stm32l0xx_hal_rcc.c ****           return HAL_TIMEOUT;
 965:Drivers/STM32L0xx_HAL_Driver/Src/stm32l0xx_hal_rcc.c ****         }
 966:Drivers/STM32L0xx_HAL_Driver/Src/stm32l0xx_hal_rcc.c ****       }
 967:Drivers/STM32L0xx_HAL_Driver/Src/stm32l0xx_hal_rcc.c ****     }
 968:Drivers/STM32L0xx_HAL_Driver/Src/stm32l0xx_hal_rcc.c ****     else if(RCC_ClkInitStruct->SYSCLKSource == RCC_SYSCLKSOURCE_HSI)
 969:Drivers/STM32L0xx_HAL_Driver/Src/stm32l0xx_hal_rcc.c ****     {
 970:Drivers/STM32L0xx_HAL_Driver/Src/stm32l0xx_hal_rcc.c ****       while (__HAL_RCC_GET_SYSCLK_SOURCE() != RCC_SYSCLKSOURCE_STATUS_HSI)
ARM GAS  C:\Users\Tilen\AppData\Local\Temp\ccC0CAdr.s 			page 23


 971:Drivers/STM32L0xx_HAL_Driver/Src/stm32l0xx_hal_rcc.c ****       {
 972:Drivers/STM32L0xx_HAL_Driver/Src/stm32l0xx_hal_rcc.c ****         if((HAL_GetTick() - tickstart ) > CLOCKSWITCH_TIMEOUT_VALUE)
 973:Drivers/STM32L0xx_HAL_Driver/Src/stm32l0xx_hal_rcc.c ****         {
 974:Drivers/STM32L0xx_HAL_Driver/Src/stm32l0xx_hal_rcc.c ****           return HAL_TIMEOUT;
 975:Drivers/STM32L0xx_HAL_Driver/Src/stm32l0xx_hal_rcc.c ****         }
 976:Drivers/STM32L0xx_HAL_Driver/Src/stm32l0xx_hal_rcc.c ****       }
 977:Drivers/STM32L0xx_HAL_Driver/Src/stm32l0xx_hal_rcc.c ****     }
 978:Drivers/STM32L0xx_HAL_Driver/Src/stm32l0xx_hal_rcc.c ****     else
 979:Drivers/STM32L0xx_HAL_Driver/Src/stm32l0xx_hal_rcc.c ****     {
 980:Drivers/STM32L0xx_HAL_Driver/Src/stm32l0xx_hal_rcc.c ****       while(__HAL_RCC_GET_SYSCLK_SOURCE() != RCC_SYSCLKSOURCE_STATUS_MSI)
 981:Drivers/STM32L0xx_HAL_Driver/Src/stm32l0xx_hal_rcc.c ****       {
 982:Drivers/STM32L0xx_HAL_Driver/Src/stm32l0xx_hal_rcc.c ****         if((HAL_GetTick() - tickstart ) > CLOCKSWITCH_TIMEOUT_VALUE)
 983:Drivers/STM32L0xx_HAL_Driver/Src/stm32l0xx_hal_rcc.c ****         {
 984:Drivers/STM32L0xx_HAL_Driver/Src/stm32l0xx_hal_rcc.c ****           return HAL_TIMEOUT;
 985:Drivers/STM32L0xx_HAL_Driver/Src/stm32l0xx_hal_rcc.c ****         }
 986:Drivers/STM32L0xx_HAL_Driver/Src/stm32l0xx_hal_rcc.c ****       }
 987:Drivers/STM32L0xx_HAL_Driver/Src/stm32l0xx_hal_rcc.c ****     }
 988:Drivers/STM32L0xx_HAL_Driver/Src/stm32l0xx_hal_rcc.c ****   }
 989:Drivers/STM32L0xx_HAL_Driver/Src/stm32l0xx_hal_rcc.c ****   /* Decreasing the number of wait states because of lower CPU frequency */
 990:Drivers/STM32L0xx_HAL_Driver/Src/stm32l0xx_hal_rcc.c ****   if(FLatency < __HAL_FLASH_GET_LATENCY())
 991:Drivers/STM32L0xx_HAL_Driver/Src/stm32l0xx_hal_rcc.c ****   {
 992:Drivers/STM32L0xx_HAL_Driver/Src/stm32l0xx_hal_rcc.c ****     /* Program the new number of wait states to the LATENCY bits in the FLASH_ACR register */
 993:Drivers/STM32L0xx_HAL_Driver/Src/stm32l0xx_hal_rcc.c ****     __HAL_FLASH_SET_LATENCY(FLatency);
 994:Drivers/STM32L0xx_HAL_Driver/Src/stm32l0xx_hal_rcc.c **** 
 995:Drivers/STM32L0xx_HAL_Driver/Src/stm32l0xx_hal_rcc.c ****     /* Check that the new number of wait states is taken into account to access the Flash
 996:Drivers/STM32L0xx_HAL_Driver/Src/stm32l0xx_hal_rcc.c ****     memory by polling the FLASH_ACR register */
 997:Drivers/STM32L0xx_HAL_Driver/Src/stm32l0xx_hal_rcc.c ****     tickstart = HAL_GetTick();
 998:Drivers/STM32L0xx_HAL_Driver/Src/stm32l0xx_hal_rcc.c **** 
 999:Drivers/STM32L0xx_HAL_Driver/Src/stm32l0xx_hal_rcc.c ****     while (__HAL_FLASH_GET_LATENCY() != FLatency)
1000:Drivers/STM32L0xx_HAL_Driver/Src/stm32l0xx_hal_rcc.c ****     {
1001:Drivers/STM32L0xx_HAL_Driver/Src/stm32l0xx_hal_rcc.c ****       if ((HAL_GetTick() - tickstart) > CLOCKSWITCH_TIMEOUT_VALUE)
1002:Drivers/STM32L0xx_HAL_Driver/Src/stm32l0xx_hal_rcc.c ****       {
1003:Drivers/STM32L0xx_HAL_Driver/Src/stm32l0xx_hal_rcc.c ****         return HAL_TIMEOUT;
1004:Drivers/STM32L0xx_HAL_Driver/Src/stm32l0xx_hal_rcc.c ****       }
1005:Drivers/STM32L0xx_HAL_Driver/Src/stm32l0xx_hal_rcc.c ****     }
1006:Drivers/STM32L0xx_HAL_Driver/Src/stm32l0xx_hal_rcc.c ****   }
1007:Drivers/STM32L0xx_HAL_Driver/Src/stm32l0xx_hal_rcc.c **** 
1008:Drivers/STM32L0xx_HAL_Driver/Src/stm32l0xx_hal_rcc.c ****   /*-------------------------- PCLK1 Configuration ---------------------------*/
1009:Drivers/STM32L0xx_HAL_Driver/Src/stm32l0xx_hal_rcc.c ****   if(((RCC_ClkInitStruct->ClockType) & RCC_CLOCKTYPE_PCLK1) == RCC_CLOCKTYPE_PCLK1)
1010:Drivers/STM32L0xx_HAL_Driver/Src/stm32l0xx_hal_rcc.c ****   {
1011:Drivers/STM32L0xx_HAL_Driver/Src/stm32l0xx_hal_rcc.c ****     assert_param(IS_RCC_PCLK(RCC_ClkInitStruct->APB1CLKDivider));
1012:Drivers/STM32L0xx_HAL_Driver/Src/stm32l0xx_hal_rcc.c ****     MODIFY_REG(RCC->CFGR, RCC_CFGR_PPRE1, RCC_ClkInitStruct->APB1CLKDivider);
1013:Drivers/STM32L0xx_HAL_Driver/Src/stm32l0xx_hal_rcc.c ****   }
1014:Drivers/STM32L0xx_HAL_Driver/Src/stm32l0xx_hal_rcc.c **** 
1015:Drivers/STM32L0xx_HAL_Driver/Src/stm32l0xx_hal_rcc.c ****   /*-------------------------- PCLK2 Configuration ---------------------------*/
1016:Drivers/STM32L0xx_HAL_Driver/Src/stm32l0xx_hal_rcc.c ****   if(((RCC_ClkInitStruct->ClockType) & RCC_CLOCKTYPE_PCLK2) == RCC_CLOCKTYPE_PCLK2)
1017:Drivers/STM32L0xx_HAL_Driver/Src/stm32l0xx_hal_rcc.c ****   {
1018:Drivers/STM32L0xx_HAL_Driver/Src/stm32l0xx_hal_rcc.c ****     assert_param(IS_RCC_PCLK(RCC_ClkInitStruct->APB2CLKDivider));
1019:Drivers/STM32L0xx_HAL_Driver/Src/stm32l0xx_hal_rcc.c ****     MODIFY_REG(RCC->CFGR, RCC_CFGR_PPRE2, ((RCC_ClkInitStruct->APB2CLKDivider) << 3));
1020:Drivers/STM32L0xx_HAL_Driver/Src/stm32l0xx_hal_rcc.c ****   }
1021:Drivers/STM32L0xx_HAL_Driver/Src/stm32l0xx_hal_rcc.c **** 
1022:Drivers/STM32L0xx_HAL_Driver/Src/stm32l0xx_hal_rcc.c ****   /* Update the SystemCoreClock global variable */
1023:Drivers/STM32L0xx_HAL_Driver/Src/stm32l0xx_hal_rcc.c ****   SystemCoreClock = HAL_RCC_GetSysClockFreq() >> AHBPrescTable[(RCC->CFGR & RCC_CFGR_HPRE)>> RCC_CF
1024:Drivers/STM32L0xx_HAL_Driver/Src/stm32l0xx_hal_rcc.c **** 
1025:Drivers/STM32L0xx_HAL_Driver/Src/stm32l0xx_hal_rcc.c ****   /* Configure the source of time base considering new system clocks settings*/
1026:Drivers/STM32L0xx_HAL_Driver/Src/stm32l0xx_hal_rcc.c ****   status = HAL_InitTick(uwTickPrio);
1027:Drivers/STM32L0xx_HAL_Driver/Src/stm32l0xx_hal_rcc.c ****   if(status != HAL_OK)
ARM GAS  C:\Users\Tilen\AppData\Local\Temp\ccC0CAdr.s 			page 24


1028:Drivers/STM32L0xx_HAL_Driver/Src/stm32l0xx_hal_rcc.c ****   {
1029:Drivers/STM32L0xx_HAL_Driver/Src/stm32l0xx_hal_rcc.c ****     return status;
1030:Drivers/STM32L0xx_HAL_Driver/Src/stm32l0xx_hal_rcc.c ****   }
1031:Drivers/STM32L0xx_HAL_Driver/Src/stm32l0xx_hal_rcc.c **** 
1032:Drivers/STM32L0xx_HAL_Driver/Src/stm32l0xx_hal_rcc.c ****   return HAL_OK;
1033:Drivers/STM32L0xx_HAL_Driver/Src/stm32l0xx_hal_rcc.c **** }
1034:Drivers/STM32L0xx_HAL_Driver/Src/stm32l0xx_hal_rcc.c **** 
1035:Drivers/STM32L0xx_HAL_Driver/Src/stm32l0xx_hal_rcc.c **** /**
1036:Drivers/STM32L0xx_HAL_Driver/Src/stm32l0xx_hal_rcc.c ****   * @}
1037:Drivers/STM32L0xx_HAL_Driver/Src/stm32l0xx_hal_rcc.c ****   */
1038:Drivers/STM32L0xx_HAL_Driver/Src/stm32l0xx_hal_rcc.c **** 
1039:Drivers/STM32L0xx_HAL_Driver/Src/stm32l0xx_hal_rcc.c **** /** @defgroup RCC_Exported_Functions_Group2 Peripheral Control functions
1040:Drivers/STM32L0xx_HAL_Driver/Src/stm32l0xx_hal_rcc.c ****   *  @brief   RCC clocks control functions
1041:Drivers/STM32L0xx_HAL_Driver/Src/stm32l0xx_hal_rcc.c ****   *
1042:Drivers/STM32L0xx_HAL_Driver/Src/stm32l0xx_hal_rcc.c ****   @verbatim
1043:Drivers/STM32L0xx_HAL_Driver/Src/stm32l0xx_hal_rcc.c ****   ===============================================================================
1044:Drivers/STM32L0xx_HAL_Driver/Src/stm32l0xx_hal_rcc.c ****                   ##### Peripheral Control functions #####
1045:Drivers/STM32L0xx_HAL_Driver/Src/stm32l0xx_hal_rcc.c ****   ===============================================================================
1046:Drivers/STM32L0xx_HAL_Driver/Src/stm32l0xx_hal_rcc.c ****     [..]
1047:Drivers/STM32L0xx_HAL_Driver/Src/stm32l0xx_hal_rcc.c ****     This subsection provides a set of functions allowing to control the RCC Clocks
1048:Drivers/STM32L0xx_HAL_Driver/Src/stm32l0xx_hal_rcc.c ****     frequencies.
1049:Drivers/STM32L0xx_HAL_Driver/Src/stm32l0xx_hal_rcc.c **** 
1050:Drivers/STM32L0xx_HAL_Driver/Src/stm32l0xx_hal_rcc.c ****   @endverbatim
1051:Drivers/STM32L0xx_HAL_Driver/Src/stm32l0xx_hal_rcc.c ****   * @{
1052:Drivers/STM32L0xx_HAL_Driver/Src/stm32l0xx_hal_rcc.c ****   */
1053:Drivers/STM32L0xx_HAL_Driver/Src/stm32l0xx_hal_rcc.c **** 
1054:Drivers/STM32L0xx_HAL_Driver/Src/stm32l0xx_hal_rcc.c **** /**
1055:Drivers/STM32L0xx_HAL_Driver/Src/stm32l0xx_hal_rcc.c ****   * @brief  Selects the clock source to output on MCO pin.
1056:Drivers/STM32L0xx_HAL_Driver/Src/stm32l0xx_hal_rcc.c ****   * @note   MCO pin should be configured in alternate function mode.
1057:Drivers/STM32L0xx_HAL_Driver/Src/stm32l0xx_hal_rcc.c ****   * @param  RCC_MCOx specifies the output direction for the clock source.
1058:Drivers/STM32L0xx_HAL_Driver/Src/stm32l0xx_hal_rcc.c ****   *          This parameter can be one of the following values:
1059:Drivers/STM32L0xx_HAL_Driver/Src/stm32l0xx_hal_rcc.c ****   *            @arg @ref RCC_MCO1 Clock source to output on MCO1 pin(PA8).
1060:Drivers/STM32L0xx_HAL_Driver/Src/stm32l0xx_hal_rcc.c ****   *            @arg @ref RCC_MCO2 Clock source to output on MCO2 pin(PA9).
1061:Drivers/STM32L0xx_HAL_Driver/Src/stm32l0xx_hal_rcc.c ****   @if STM32L031xx
1062:Drivers/STM32L0xx_HAL_Driver/Src/stm32l0xx_hal_rcc.c ****   *            @arg @ref RCC_MCO3 Clock source to output on MCO3 pin(PB13)
1063:Drivers/STM32L0xx_HAL_Driver/Src/stm32l0xx_hal_rcc.c ****   @elseif STM32L041xx
1064:Drivers/STM32L0xx_HAL_Driver/Src/stm32l0xx_hal_rcc.c ****   *            @arg @ref RCC_MCO3 Clock source to output on MCO3 pin(PB13)
1065:Drivers/STM32L0xx_HAL_Driver/Src/stm32l0xx_hal_rcc.c ****   @elseif STM32L073xx
1066:Drivers/STM32L0xx_HAL_Driver/Src/stm32l0xx_hal_rcc.c ****   *            @arg @ref RCC_MCO3 Clock source to output on MCO3 pin(PB13)
1067:Drivers/STM32L0xx_HAL_Driver/Src/stm32l0xx_hal_rcc.c ****   @elseif STM32L083xx
1068:Drivers/STM32L0xx_HAL_Driver/Src/stm32l0xx_hal_rcc.c ****   *            @arg @ref RCC_MCO3 Clock source to output on MCO3 pin(PB13)
1069:Drivers/STM32L0xx_HAL_Driver/Src/stm32l0xx_hal_rcc.c ****   @elseif STM32L072xx
1070:Drivers/STM32L0xx_HAL_Driver/Src/stm32l0xx_hal_rcc.c ****   *            @arg @ref RCC_MCO3 Clock source to output on MCO3 pin(PB13)
1071:Drivers/STM32L0xx_HAL_Driver/Src/stm32l0xx_hal_rcc.c ****   @elseif STM32L082xx
1072:Drivers/STM32L0xx_HAL_Driver/Src/stm32l0xx_hal_rcc.c ****   *            @arg @ref RCC_MCO3 Clock source to output on MCO3 pin(PB13)
1073:Drivers/STM32L0xx_HAL_Driver/Src/stm32l0xx_hal_rcc.c ****   @elseif STM32L071xx
1074:Drivers/STM32L0xx_HAL_Driver/Src/stm32l0xx_hal_rcc.c ****   *            @arg @ref RCC_MCO3 Clock source to output on MCO3 pin(PB13)
1075:Drivers/STM32L0xx_HAL_Driver/Src/stm32l0xx_hal_rcc.c ****   @elseif STM32L081xx
1076:Drivers/STM32L0xx_HAL_Driver/Src/stm32l0xx_hal_rcc.c ****   *            @arg @ref RCC_MCO3 Clock source to output on MCO3 pin(PB13)
1077:Drivers/STM32L0xx_HAL_Driver/Src/stm32l0xx_hal_rcc.c ****   @elseif STM32L051xx
1078:Drivers/STM32L0xx_HAL_Driver/Src/stm32l0xx_hal_rcc.c ****   *            @arg @ref RCC_MCO3 Clock source to output on MCO3 pin(PB13)
1079:Drivers/STM32L0xx_HAL_Driver/Src/stm32l0xx_hal_rcc.c ****   @elseif STM32L053xx
1080:Drivers/STM32L0xx_HAL_Driver/Src/stm32l0xx_hal_rcc.c ****   *            @arg @ref RCC_MCO3 Clock source to output on MCO3 pin(PB13)
1081:Drivers/STM32L0xx_HAL_Driver/Src/stm32l0xx_hal_rcc.c ****   @endif
1082:Drivers/STM32L0xx_HAL_Driver/Src/stm32l0xx_hal_rcc.c ****   * @param  RCC_MCOSource specifies the clock source to output.
1083:Drivers/STM32L0xx_HAL_Driver/Src/stm32l0xx_hal_rcc.c ****   *          This parameter can be one of the following values:
1084:Drivers/STM32L0xx_HAL_Driver/Src/stm32l0xx_hal_rcc.c ****   *            @arg @ref RCC_MCO1SOURCE_NOCLOCK     No clock selected as MCO clock
ARM GAS  C:\Users\Tilen\AppData\Local\Temp\ccC0CAdr.s 			page 25


1085:Drivers/STM32L0xx_HAL_Driver/Src/stm32l0xx_hal_rcc.c ****   *            @arg @ref RCC_MCO1SOURCE_SYSCLK      System clock selected as MCO clock
1086:Drivers/STM32L0xx_HAL_Driver/Src/stm32l0xx_hal_rcc.c ****   *            @arg @ref RCC_MCO1SOURCE_HSI         HSI selected as MCO clock
1087:Drivers/STM32L0xx_HAL_Driver/Src/stm32l0xx_hal_rcc.c ****   *            @arg @ref RCC_MCO1SOURCE_HSE         HSE selected as MCO clock
1088:Drivers/STM32L0xx_HAL_Driver/Src/stm32l0xx_hal_rcc.c ****   *            @arg @ref RCC_MCO1SOURCE_MSI         MSI oscillator clock selected as MCO clock
1089:Drivers/STM32L0xx_HAL_Driver/Src/stm32l0xx_hal_rcc.c ****   *            @arg @ref RCC_MCO1SOURCE_PLLCLK      PLL clock selected as MCO clock
1090:Drivers/STM32L0xx_HAL_Driver/Src/stm32l0xx_hal_rcc.c ****   *            @arg @ref RCC_MCO1SOURCE_LSI         LSI clock selected as MCO clock
1091:Drivers/STM32L0xx_HAL_Driver/Src/stm32l0xx_hal_rcc.c ****   *            @arg @ref RCC_MCO1SOURCE_LSE         LSE clock selected as MCO clock
1092:Drivers/STM32L0xx_HAL_Driver/Src/stm32l0xx_hal_rcc.c ****   @if STM32L052xx
1093:Drivers/STM32L0xx_HAL_Driver/Src/stm32l0xx_hal_rcc.c ****   *            @arg @ref RCC_MCO1SOURCE_HSI48       HSI48 clock selected as MCO clock
1094:Drivers/STM32L0xx_HAL_Driver/Src/stm32l0xx_hal_rcc.c ****   @elseif STM32L053xx
1095:Drivers/STM32L0xx_HAL_Driver/Src/stm32l0xx_hal_rcc.c ****   *            @arg @ref RCC_MCO1SOURCE_HSI48       HSI48 clock selected as MCO clock
1096:Drivers/STM32L0xx_HAL_Driver/Src/stm32l0xx_hal_rcc.c ****   @elseif STM32L062xx
1097:Drivers/STM32L0xx_HAL_Driver/Src/stm32l0xx_hal_rcc.c ****   *            @arg @ref RCC_MCO1SOURCE_HSI48       HSI48 clock selected as MCO clock
1098:Drivers/STM32L0xx_HAL_Driver/Src/stm32l0xx_hal_rcc.c ****   @elseif STM32L063xx
1099:Drivers/STM32L0xx_HAL_Driver/Src/stm32l0xx_hal_rcc.c ****   *            @arg @ref RCC_MCO1SOURCE_HSI48       HSI48 clock selected as MCO clock
1100:Drivers/STM32L0xx_HAL_Driver/Src/stm32l0xx_hal_rcc.c ****   @elseif STM32L072xx
1101:Drivers/STM32L0xx_HAL_Driver/Src/stm32l0xx_hal_rcc.c ****   *            @arg @ref RCC_MCO1SOURCE_HSI48       HSI48 clock selected as MCO clock
1102:Drivers/STM32L0xx_HAL_Driver/Src/stm32l0xx_hal_rcc.c ****   @elseif STM32L073xx
1103:Drivers/STM32L0xx_HAL_Driver/Src/stm32l0xx_hal_rcc.c ****   *            @arg @ref RCC_MCO1SOURCE_HSI48       HSI48 clock selected as MCO clock
1104:Drivers/STM32L0xx_HAL_Driver/Src/stm32l0xx_hal_rcc.c ****   @elseif STM32L082xx
1105:Drivers/STM32L0xx_HAL_Driver/Src/stm32l0xx_hal_rcc.c ****   *            @arg @ref RCC_MCO1SOURCE_HSI48       HSI48 clock selected as MCO clock
1106:Drivers/STM32L0xx_HAL_Driver/Src/stm32l0xx_hal_rcc.c ****   @elseif STM32L083xx
1107:Drivers/STM32L0xx_HAL_Driver/Src/stm32l0xx_hal_rcc.c ****   *            @arg @ref RCC_MCO1SOURCE_HSI48       HSI48 clock selected as MCO clock
1108:Drivers/STM32L0xx_HAL_Driver/Src/stm32l0xx_hal_rcc.c ****   @endif
1109:Drivers/STM32L0xx_HAL_Driver/Src/stm32l0xx_hal_rcc.c ****   * @param  RCC_MCODiv specifies the MCO DIV.
1110:Drivers/STM32L0xx_HAL_Driver/Src/stm32l0xx_hal_rcc.c ****   *          This parameter can be one of the following values:
1111:Drivers/STM32L0xx_HAL_Driver/Src/stm32l0xx_hal_rcc.c ****   *            @arg @ref RCC_MCODIV_1 no division applied to MCO clock
1112:Drivers/STM32L0xx_HAL_Driver/Src/stm32l0xx_hal_rcc.c ****   *            @arg @ref RCC_MCODIV_2  division by 2 applied to MCO clock
1113:Drivers/STM32L0xx_HAL_Driver/Src/stm32l0xx_hal_rcc.c ****   *            @arg @ref RCC_MCODIV_4  division by 4 applied to MCO clock
1114:Drivers/STM32L0xx_HAL_Driver/Src/stm32l0xx_hal_rcc.c ****   *            @arg @ref RCC_MCODIV_8  division by 8 applied to MCO clock
1115:Drivers/STM32L0xx_HAL_Driver/Src/stm32l0xx_hal_rcc.c ****   *            @arg @ref RCC_MCODIV_16 division by 16 applied to MCO clock
1116:Drivers/STM32L0xx_HAL_Driver/Src/stm32l0xx_hal_rcc.c ****   * @retval None
1117:Drivers/STM32L0xx_HAL_Driver/Src/stm32l0xx_hal_rcc.c ****   */
1118:Drivers/STM32L0xx_HAL_Driver/Src/stm32l0xx_hal_rcc.c **** void HAL_RCC_MCOConfig(uint32_t RCC_MCOx, uint32_t RCC_MCOSource, uint32_t RCC_MCODiv)
1119:Drivers/STM32L0xx_HAL_Driver/Src/stm32l0xx_hal_rcc.c **** {
 243              		.loc 1 1119 1 is_stmt 1 view -0
 244              		.cfi_startproc
 245              		@ args = 0, pretend = 0, frame = 32
 246              		@ frame_needed = 0, uses_anonymous_args = 0
 247              		.loc 1 1119 1 is_stmt 0 view .LVU65
 248 0000 F0B5     		push	{r4, r5, r6, r7, lr}
 249              	.LCFI2:
 250              		.cfi_def_cfa_offset 20
 251              		.cfi_offset 4, -20
 252              		.cfi_offset 5, -16
 253              		.cfi_offset 6, -12
 254              		.cfi_offset 7, -8
 255              		.cfi_offset 14, -4
 256 0002 89B0     		sub	sp, sp, #36
 257              	.LCFI3:
 258              		.cfi_def_cfa_offset 56
 259 0004 0500     		movs	r5, r0
 260 0006 0E00     		movs	r6, r1
 261 0008 1700     		movs	r7, r2
1120:Drivers/STM32L0xx_HAL_Driver/Src/stm32l0xx_hal_rcc.c ****   GPIO_InitTypeDef gpio = {0};
 262              		.loc 1 1120 3 is_stmt 1 view .LVU66
 263              		.loc 1 1120 20 is_stmt 0 view .LVU67
ARM GAS  C:\Users\Tilen\AppData\Local\Temp\ccC0CAdr.s 			page 26


 264 000a 03AC     		add	r4, sp, #12
 265 000c 1422     		movs	r2, #20
 266              	.LVL17:
 267              		.loc 1 1120 20 view .LVU68
 268 000e 0021     		movs	r1, #0
 269              	.LVL18:
 270              		.loc 1 1120 20 view .LVU69
 271 0010 2000     		movs	r0, r4
 272              	.LVL19:
 273              		.loc 1 1120 20 view .LVU70
 274 0012 FFF7FEFF 		bl	memset
 275              	.LVL20:
1121:Drivers/STM32L0xx_HAL_Driver/Src/stm32l0xx_hal_rcc.c **** 
1122:Drivers/STM32L0xx_HAL_Driver/Src/stm32l0xx_hal_rcc.c ****   /* Check the parameters */
1123:Drivers/STM32L0xx_HAL_Driver/Src/stm32l0xx_hal_rcc.c ****   assert_param(IS_RCC_MCO(RCC_MCOx));
 276              		.loc 1 1123 3 is_stmt 1 view .LVU71
1124:Drivers/STM32L0xx_HAL_Driver/Src/stm32l0xx_hal_rcc.c ****   assert_param(IS_RCC_MCODIV(RCC_MCODiv));
 277              		.loc 1 1124 3 view .LVU72
1125:Drivers/STM32L0xx_HAL_Driver/Src/stm32l0xx_hal_rcc.c ****   assert_param(IS_RCC_MCO1SOURCE(RCC_MCOSource));
 278              		.loc 1 1125 3 view .LVU73
1126:Drivers/STM32L0xx_HAL_Driver/Src/stm32l0xx_hal_rcc.c **** 
1127:Drivers/STM32L0xx_HAL_Driver/Src/stm32l0xx_hal_rcc.c ****   /* Configure the MCO1 pin in alternate function mode */
1128:Drivers/STM32L0xx_HAL_Driver/Src/stm32l0xx_hal_rcc.c ****   gpio.Mode      = GPIO_MODE_AF_PP;
 279              		.loc 1 1128 3 view .LVU74
 280              		.loc 1 1128 18 is_stmt 0 view .LVU75
 281 0016 0223     		movs	r3, #2
 282 0018 0493     		str	r3, [sp, #16]
1129:Drivers/STM32L0xx_HAL_Driver/Src/stm32l0xx_hal_rcc.c ****   gpio.Speed     = GPIO_SPEED_FREQ_HIGH;
 283              		.loc 1 1129 3 is_stmt 1 view .LVU76
 284              		.loc 1 1129 18 is_stmt 0 view .LVU77
 285 001a 0693     		str	r3, [sp, #24]
1130:Drivers/STM32L0xx_HAL_Driver/Src/stm32l0xx_hal_rcc.c ****   gpio.Pull      = GPIO_NOPULL;
 286              		.loc 1 1130 3 is_stmt 1 view .LVU78
1131:Drivers/STM32L0xx_HAL_Driver/Src/stm32l0xx_hal_rcc.c ****   if(RCC_MCOx == RCC_MCO1)
 287              		.loc 1 1131 3 view .LVU79
 288              		.loc 1 1131 5 is_stmt 0 view .LVU80
 289 001c 2B1E     		subs	r3, r5, #0
 290 001e 1CD0     		beq	.L21
1132:Drivers/STM32L0xx_HAL_Driver/Src/stm32l0xx_hal_rcc.c ****   {
1133:Drivers/STM32L0xx_HAL_Driver/Src/stm32l0xx_hal_rcc.c ****     gpio.Pin       = MCO1_PIN;
1134:Drivers/STM32L0xx_HAL_Driver/Src/stm32l0xx_hal_rcc.c ****     gpio.Alternate = GPIO_AF0_MCO;
1135:Drivers/STM32L0xx_HAL_Driver/Src/stm32l0xx_hal_rcc.c **** 
1136:Drivers/STM32L0xx_HAL_Driver/Src/stm32l0xx_hal_rcc.c ****     /* MCO1 Clock Enable */
1137:Drivers/STM32L0xx_HAL_Driver/Src/stm32l0xx_hal_rcc.c ****     MCO1_CLK_ENABLE();
1138:Drivers/STM32L0xx_HAL_Driver/Src/stm32l0xx_hal_rcc.c ****     HAL_GPIO_Init(MCO1_GPIO_PORT, &gpio);
1139:Drivers/STM32L0xx_HAL_Driver/Src/stm32l0xx_hal_rcc.c ****   }
1140:Drivers/STM32L0xx_HAL_Driver/Src/stm32l0xx_hal_rcc.c **** #if defined(RCC_MCO3_SUPPORT)
1141:Drivers/STM32L0xx_HAL_Driver/Src/stm32l0xx_hal_rcc.c ****   else if (RCC_MCOx == RCC_MCO3)
 291              		.loc 1 1141 8 is_stmt 1 view .LVU81
 292              		.loc 1 1141 11 is_stmt 0 view .LVU82
 293 0020 022D     		cmp	r5, #2
 294 0022 2CD0     		beq	.L22
1142:Drivers/STM32L0xx_HAL_Driver/Src/stm32l0xx_hal_rcc.c ****   {
1143:Drivers/STM32L0xx_HAL_Driver/Src/stm32l0xx_hal_rcc.c ****     gpio.Pin       = MCO3_PIN;
1144:Drivers/STM32L0xx_HAL_Driver/Src/stm32l0xx_hal_rcc.c ****     gpio.Alternate = MCO3_GPIO_AF;
1145:Drivers/STM32L0xx_HAL_Driver/Src/stm32l0xx_hal_rcc.c **** 
1146:Drivers/STM32L0xx_HAL_Driver/Src/stm32l0xx_hal_rcc.c ****     /* MCO3 Clock Enable */
ARM GAS  C:\Users\Tilen\AppData\Local\Temp\ccC0CAdr.s 			page 27


1147:Drivers/STM32L0xx_HAL_Driver/Src/stm32l0xx_hal_rcc.c ****     MCO3_CLK_ENABLE();
1148:Drivers/STM32L0xx_HAL_Driver/Src/stm32l0xx_hal_rcc.c ****     HAL_GPIO_Init(MCO3_GPIO_PORT, &gpio);
1149:Drivers/STM32L0xx_HAL_Driver/Src/stm32l0xx_hal_rcc.c ****   }
1150:Drivers/STM32L0xx_HAL_Driver/Src/stm32l0xx_hal_rcc.c **** #endif /* RCC_MCO3_SUPPORT */
1151:Drivers/STM32L0xx_HAL_Driver/Src/stm32l0xx_hal_rcc.c ****   else
1152:Drivers/STM32L0xx_HAL_Driver/Src/stm32l0xx_hal_rcc.c ****   {
1153:Drivers/STM32L0xx_HAL_Driver/Src/stm32l0xx_hal_rcc.c ****     gpio.Pin       = MCO2_PIN;
 295              		.loc 1 1153 5 is_stmt 1 view .LVU83
 296              		.loc 1 1153 20 is_stmt 0 view .LVU84
 297 0024 8023     		movs	r3, #128
 298 0026 9B00     		lsls	r3, r3, #2
 299 0028 0393     		str	r3, [sp, #12]
1154:Drivers/STM32L0xx_HAL_Driver/Src/stm32l0xx_hal_rcc.c ****     gpio.Alternate = GPIO_AF0_MCO;
 300              		.loc 1 1154 5 is_stmt 1 view .LVU85
1155:Drivers/STM32L0xx_HAL_Driver/Src/stm32l0xx_hal_rcc.c **** 
1156:Drivers/STM32L0xx_HAL_Driver/Src/stm32l0xx_hal_rcc.c ****     /* MCO2 Clock Enable */
1157:Drivers/STM32L0xx_HAL_Driver/Src/stm32l0xx_hal_rcc.c ****     MCO2_CLK_ENABLE();
 301              		.loc 1 1157 5 view .LVU86
 302              	.LBB2:
 303              		.loc 1 1157 5 view .LVU87
 304              		.loc 1 1157 5 view .LVU88
 305 002a 1D4A     		ldr	r2, .L23
 306 002c D16A     		ldr	r1, [r2, #44]
 307 002e 0123     		movs	r3, #1
 308 0030 1943     		orrs	r1, r3
 309 0032 D162     		str	r1, [r2, #44]
 310              		.loc 1 1157 5 view .LVU89
 311 0034 D26A     		ldr	r2, [r2, #44]
 312 0036 1340     		ands	r3, r2
 313 0038 0293     		str	r3, [sp, #8]
 314              		.loc 1 1157 5 view .LVU90
 315 003a 029B     		ldr	r3, [sp, #8]
 316              	.LBE2:
 317              		.loc 1 1157 5 view .LVU91
1158:Drivers/STM32L0xx_HAL_Driver/Src/stm32l0xx_hal_rcc.c ****     HAL_GPIO_Init(MCO2_GPIO_PORT, &gpio);
 318              		.loc 1 1158 5 view .LVU92
 319 003c A020     		movs	r0, #160
 320 003e 03A9     		add	r1, sp, #12
 321 0040 C005     		lsls	r0, r0, #23
 322 0042 FFF7FEFF 		bl	HAL_GPIO_Init
 323              	.LVL21:
 324              	.L19:
1159:Drivers/STM32L0xx_HAL_Driver/Src/stm32l0xx_hal_rcc.c ****   }
1160:Drivers/STM32L0xx_HAL_Driver/Src/stm32l0xx_hal_rcc.c **** 
1161:Drivers/STM32L0xx_HAL_Driver/Src/stm32l0xx_hal_rcc.c ****   /* Configure the MCO clock source */
1162:Drivers/STM32L0xx_HAL_Driver/Src/stm32l0xx_hal_rcc.c ****   __HAL_RCC_MCO1_CONFIG(RCC_MCOSource, RCC_MCODiv);
 325              		.loc 1 1162 3 view .LVU93
 326 0046 1649     		ldr	r1, .L23
 327 0048 CA68     		ldr	r2, [r1, #12]
 328 004a 164B     		ldr	r3, .L23+4
 329 004c 1A40     		ands	r2, r3
 330 004e 3300     		movs	r3, r6
 331 0050 3B43     		orrs	r3, r7
 332 0052 1A43     		orrs	r2, r3
 333 0054 CA60     		str	r2, [r1, #12]
1163:Drivers/STM32L0xx_HAL_Driver/Src/stm32l0xx_hal_rcc.c **** }
 334              		.loc 1 1163 1 is_stmt 0 view .LVU94
ARM GAS  C:\Users\Tilen\AppData\Local\Temp\ccC0CAdr.s 			page 28


 335 0056 09B0     		add	sp, sp, #36
 336              		@ sp needed
 337              	.LVL22:
 338              	.LVL23:
 339              	.LVL24:
 340              		.loc 1 1163 1 view .LVU95
 341 0058 F0BD     		pop	{r4, r5, r6, r7, pc}
 342              	.LVL25:
 343              	.L21:
1133:Drivers/STM32L0xx_HAL_Driver/Src/stm32l0xx_hal_rcc.c ****     gpio.Alternate = GPIO_AF0_MCO;
 344              		.loc 1 1133 5 is_stmt 1 view .LVU96
1133:Drivers/STM32L0xx_HAL_Driver/Src/stm32l0xx_hal_rcc.c ****     gpio.Alternate = GPIO_AF0_MCO;
 345              		.loc 1 1133 20 is_stmt 0 view .LVU97
 346 005a 0133     		adds	r3, r3, #1
 347              	.LVL26:
1133:Drivers/STM32L0xx_HAL_Driver/Src/stm32l0xx_hal_rcc.c ****     gpio.Alternate = GPIO_AF0_MCO;
 348              		.loc 1 1133 20 view .LVU98
 349 005c FF33     		adds	r3, r3, #255
 350 005e 0393     		str	r3, [sp, #12]
1134:Drivers/STM32L0xx_HAL_Driver/Src/stm32l0xx_hal_rcc.c **** 
 351              		.loc 1 1134 5 is_stmt 1 view .LVU99
1137:Drivers/STM32L0xx_HAL_Driver/Src/stm32l0xx_hal_rcc.c ****     HAL_GPIO_Init(MCO1_GPIO_PORT, &gpio);
 352              		.loc 1 1137 5 view .LVU100
 353              	.LBB3:
1137:Drivers/STM32L0xx_HAL_Driver/Src/stm32l0xx_hal_rcc.c ****     HAL_GPIO_Init(MCO1_GPIO_PORT, &gpio);
 354              		.loc 1 1137 5 view .LVU101
1137:Drivers/STM32L0xx_HAL_Driver/Src/stm32l0xx_hal_rcc.c ****     HAL_GPIO_Init(MCO1_GPIO_PORT, &gpio);
 355              		.loc 1 1137 5 view .LVU102
 356 0060 0F4A     		ldr	r2, .L23
 357 0062 D16A     		ldr	r1, [r2, #44]
 358 0064 FF3B     		subs	r3, r3, #255
 359 0066 1943     		orrs	r1, r3
 360 0068 D162     		str	r1, [r2, #44]
1137:Drivers/STM32L0xx_HAL_Driver/Src/stm32l0xx_hal_rcc.c ****     HAL_GPIO_Init(MCO1_GPIO_PORT, &gpio);
 361              		.loc 1 1137 5 view .LVU103
 362 006a D26A     		ldr	r2, [r2, #44]
 363 006c 1340     		ands	r3, r2
 364 006e 0093     		str	r3, [sp]
1137:Drivers/STM32L0xx_HAL_Driver/Src/stm32l0xx_hal_rcc.c ****     HAL_GPIO_Init(MCO1_GPIO_PORT, &gpio);
 365              		.loc 1 1137 5 view .LVU104
 366 0070 009B     		ldr	r3, [sp]
 367              	.LBE3:
1137:Drivers/STM32L0xx_HAL_Driver/Src/stm32l0xx_hal_rcc.c ****     HAL_GPIO_Init(MCO1_GPIO_PORT, &gpio);
 368              		.loc 1 1137 5 view .LVU105
1138:Drivers/STM32L0xx_HAL_Driver/Src/stm32l0xx_hal_rcc.c ****   }
 369              		.loc 1 1138 5 view .LVU106
 370 0072 A020     		movs	r0, #160
 371 0074 2100     		movs	r1, r4
 372 0076 C005     		lsls	r0, r0, #23
 373 0078 FFF7FEFF 		bl	HAL_GPIO_Init
 374              	.LVL27:
 375 007c E3E7     		b	.L19
 376              	.LVL28:
 377              	.L22:
1143:Drivers/STM32L0xx_HAL_Driver/Src/stm32l0xx_hal_rcc.c ****     gpio.Alternate = MCO3_GPIO_AF;
 378              		.loc 1 1143 5 view .LVU107
1143:Drivers/STM32L0xx_HAL_Driver/Src/stm32l0xx_hal_rcc.c ****     gpio.Alternate = MCO3_GPIO_AF;
ARM GAS  C:\Users\Tilen\AppData\Local\Temp\ccC0CAdr.s 			page 29


 379              		.loc 1 1143 20 is_stmt 0 view .LVU108
 380 007e 8023     		movs	r3, #128
 381              	.LVL29:
1143:Drivers/STM32L0xx_HAL_Driver/Src/stm32l0xx_hal_rcc.c ****     gpio.Alternate = MCO3_GPIO_AF;
 382              		.loc 1 1143 20 view .LVU109
 383 0080 9B01     		lsls	r3, r3, #6
 384 0082 0393     		str	r3, [sp, #12]
1144:Drivers/STM32L0xx_HAL_Driver/Src/stm32l0xx_hal_rcc.c **** 
 385              		.loc 1 1144 5 is_stmt 1 view .LVU110
1147:Drivers/STM32L0xx_HAL_Driver/Src/stm32l0xx_hal_rcc.c ****     HAL_GPIO_Init(MCO3_GPIO_PORT, &gpio);
 386              		.loc 1 1147 5 view .LVU111
 387              	.LBB4:
1147:Drivers/STM32L0xx_HAL_Driver/Src/stm32l0xx_hal_rcc.c ****     HAL_GPIO_Init(MCO3_GPIO_PORT, &gpio);
 388              		.loc 1 1147 5 view .LVU112
1147:Drivers/STM32L0xx_HAL_Driver/Src/stm32l0xx_hal_rcc.c ****     HAL_GPIO_Init(MCO3_GPIO_PORT, &gpio);
 389              		.loc 1 1147 5 view .LVU113
 390 0084 064A     		ldr	r2, .L23
 391 0086 D16A     		ldr	r1, [r2, #44]
 392 0088 0223     		movs	r3, #2
 393 008a 1943     		orrs	r1, r3
 394 008c D162     		str	r1, [r2, #44]
1147:Drivers/STM32L0xx_HAL_Driver/Src/stm32l0xx_hal_rcc.c ****     HAL_GPIO_Init(MCO3_GPIO_PORT, &gpio);
 395              		.loc 1 1147 5 view .LVU114
 396 008e D26A     		ldr	r2, [r2, #44]
 397 0090 1340     		ands	r3, r2
 398 0092 0193     		str	r3, [sp, #4]
1147:Drivers/STM32L0xx_HAL_Driver/Src/stm32l0xx_hal_rcc.c ****     HAL_GPIO_Init(MCO3_GPIO_PORT, &gpio);
 399              		.loc 1 1147 5 view .LVU115
 400 0094 019B     		ldr	r3, [sp, #4]
 401              	.LBE4:
1147:Drivers/STM32L0xx_HAL_Driver/Src/stm32l0xx_hal_rcc.c ****     HAL_GPIO_Init(MCO3_GPIO_PORT, &gpio);
 402              		.loc 1 1147 5 view .LVU116
1148:Drivers/STM32L0xx_HAL_Driver/Src/stm32l0xx_hal_rcc.c ****   }
 403              		.loc 1 1148 5 view .LVU117
 404 0096 03A9     		add	r1, sp, #12
 405 0098 0348     		ldr	r0, .L23+8
 406 009a FFF7FEFF 		bl	HAL_GPIO_Init
 407              	.LVL30:
 408 009e D2E7     		b	.L19
 409              	.L24:
 410              		.align	2
 411              	.L23:
 412 00a0 00100240 		.word	1073876992
 413 00a4 FFFFFF80 		.word	-2130706433
 414 00a8 00040050 		.word	1342178304
 415              		.cfi_endproc
 416              	.LFE50:
 418              		.section	.text.HAL_RCC_EnableCSS,"ax",%progbits
 419              		.align	1
 420              		.global	HAL_RCC_EnableCSS
 421              		.syntax unified
 422              		.code	16
 423              		.thumb_func
 425              	HAL_RCC_EnableCSS:
 426              	.LFB51:
1164:Drivers/STM32L0xx_HAL_Driver/Src/stm32l0xx_hal_rcc.c **** 
1165:Drivers/STM32L0xx_HAL_Driver/Src/stm32l0xx_hal_rcc.c **** #if defined(RCC_HSECSS_SUPPORT)
ARM GAS  C:\Users\Tilen\AppData\Local\Temp\ccC0CAdr.s 			page 30


1166:Drivers/STM32L0xx_HAL_Driver/Src/stm32l0xx_hal_rcc.c **** /**
1167:Drivers/STM32L0xx_HAL_Driver/Src/stm32l0xx_hal_rcc.c ****   * @brief  Enables the Clock Security System.
1168:Drivers/STM32L0xx_HAL_Driver/Src/stm32l0xx_hal_rcc.c ****   * @note   If a failure is detected on the HSE oscillator clock, this oscillator
1169:Drivers/STM32L0xx_HAL_Driver/Src/stm32l0xx_hal_rcc.c ****   *         is automatically disabled and an interrupt is generated to inform the
1170:Drivers/STM32L0xx_HAL_Driver/Src/stm32l0xx_hal_rcc.c ****   *         software about the failure (Clock Security System Interrupt, CSSI),
1171:Drivers/STM32L0xx_HAL_Driver/Src/stm32l0xx_hal_rcc.c ****   *         allowing the MCU to perform rescue operations. The CSSI is linked to
1172:Drivers/STM32L0xx_HAL_Driver/Src/stm32l0xx_hal_rcc.c ****   *         the Cortex-M0+ NMI (Non-Maskable Interrupt) exception vector.
1173:Drivers/STM32L0xx_HAL_Driver/Src/stm32l0xx_hal_rcc.c ****   * @retval None
1174:Drivers/STM32L0xx_HAL_Driver/Src/stm32l0xx_hal_rcc.c ****   */
1175:Drivers/STM32L0xx_HAL_Driver/Src/stm32l0xx_hal_rcc.c **** void HAL_RCC_EnableCSS(void)
1176:Drivers/STM32L0xx_HAL_Driver/Src/stm32l0xx_hal_rcc.c **** {
 427              		.loc 1 1176 1 view -0
 428              		.cfi_startproc
 429              		@ args = 0, pretend = 0, frame = 0
 430              		@ frame_needed = 0, uses_anonymous_args = 0
 431              		@ link register save eliminated.
1177:Drivers/STM32L0xx_HAL_Driver/Src/stm32l0xx_hal_rcc.c ****   SET_BIT(RCC->CR, RCC_CR_CSSON) ;
 432              		.loc 1 1177 3 view .LVU119
 433 0000 034A     		ldr	r2, .L26
 434 0002 1168     		ldr	r1, [r2]
 435 0004 8023     		movs	r3, #128
 436 0006 1B03     		lsls	r3, r3, #12
 437 0008 0B43     		orrs	r3, r1
 438 000a 1360     		str	r3, [r2]
1178:Drivers/STM32L0xx_HAL_Driver/Src/stm32l0xx_hal_rcc.c **** }
 439              		.loc 1 1178 1 is_stmt 0 view .LVU120
 440              		@ sp needed
 441 000c 7047     		bx	lr
 442              	.L27:
 443 000e C046     		.align	2
 444              	.L26:
 445 0010 00100240 		.word	1073876992
 446              		.cfi_endproc
 447              	.LFE51:
 449              		.section	.text.HAL_RCC_GetSysClockFreq,"ax",%progbits
 450              		.align	1
 451              		.global	HAL_RCC_GetSysClockFreq
 452              		.syntax unified
 453              		.code	16
 454              		.thumb_func
 456              	HAL_RCC_GetSysClockFreq:
 457              	.LFB52:
1179:Drivers/STM32L0xx_HAL_Driver/Src/stm32l0xx_hal_rcc.c **** 
1180:Drivers/STM32L0xx_HAL_Driver/Src/stm32l0xx_hal_rcc.c **** #endif /* RCC_HSECSS_SUPPORT */
1181:Drivers/STM32L0xx_HAL_Driver/Src/stm32l0xx_hal_rcc.c **** /**
1182:Drivers/STM32L0xx_HAL_Driver/Src/stm32l0xx_hal_rcc.c ****   * @brief  Returns the SYSCLK frequency
1183:Drivers/STM32L0xx_HAL_Driver/Src/stm32l0xx_hal_rcc.c ****   * @note   The system frequency computed by this function is not the real
1184:Drivers/STM32L0xx_HAL_Driver/Src/stm32l0xx_hal_rcc.c ****   *         frequency in the chip. It is calculated based on the predefined
1185:Drivers/STM32L0xx_HAL_Driver/Src/stm32l0xx_hal_rcc.c ****   *         constant and the selected clock source:
1186:Drivers/STM32L0xx_HAL_Driver/Src/stm32l0xx_hal_rcc.c ****   * @note     If SYSCLK source is MSI, function returns a value based on MSI
1187:Drivers/STM32L0xx_HAL_Driver/Src/stm32l0xx_hal_rcc.c ****   *             Value as defined by the MSI range.
1188:Drivers/STM32L0xx_HAL_Driver/Src/stm32l0xx_hal_rcc.c ****   * @note     If SYSCLK source is HSI, function returns values based on HSI_VALUE(*)
1189:Drivers/STM32L0xx_HAL_Driver/Src/stm32l0xx_hal_rcc.c ****   * @note     If SYSCLK source is HSE, function returns a value based on HSE_VALUE(**)
1190:Drivers/STM32L0xx_HAL_Driver/Src/stm32l0xx_hal_rcc.c ****   * @note     If SYSCLK source is PLL, function returns a value based on HSE_VALUE(**)
1191:Drivers/STM32L0xx_HAL_Driver/Src/stm32l0xx_hal_rcc.c ****   *           or HSI_VALUE(*) multiplied/divided by the PLL factors.
1192:Drivers/STM32L0xx_HAL_Driver/Src/stm32l0xx_hal_rcc.c ****   * @note     (*) HSI_VALUE is a constant defined in stm32l0xx_hal_conf.h file (default value
1193:Drivers/STM32L0xx_HAL_Driver/Src/stm32l0xx_hal_rcc.c ****   *               16 MHz) but the real value may vary depending on the variations
ARM GAS  C:\Users\Tilen\AppData\Local\Temp\ccC0CAdr.s 			page 31


1194:Drivers/STM32L0xx_HAL_Driver/Src/stm32l0xx_hal_rcc.c ****   *               in voltage and temperature.
1195:Drivers/STM32L0xx_HAL_Driver/Src/stm32l0xx_hal_rcc.c ****   * @note     (**) HSE_VALUE is a constant defined in stm32l0xx_hal_conf.h file (default value
1196:Drivers/STM32L0xx_HAL_Driver/Src/stm32l0xx_hal_rcc.c ****   *                8 MHz), user has to ensure that HSE_VALUE is same as the real
1197:Drivers/STM32L0xx_HAL_Driver/Src/stm32l0xx_hal_rcc.c ****   *                frequency of the crystal used. Otherwise, this function may
1198:Drivers/STM32L0xx_HAL_Driver/Src/stm32l0xx_hal_rcc.c ****   *                have wrong result.
1199:Drivers/STM32L0xx_HAL_Driver/Src/stm32l0xx_hal_rcc.c ****   *
1200:Drivers/STM32L0xx_HAL_Driver/Src/stm32l0xx_hal_rcc.c ****   * @note   The result of this function could be not correct when using fractional
1201:Drivers/STM32L0xx_HAL_Driver/Src/stm32l0xx_hal_rcc.c ****   *         value for HSE crystal.
1202:Drivers/STM32L0xx_HAL_Driver/Src/stm32l0xx_hal_rcc.c ****   *
1203:Drivers/STM32L0xx_HAL_Driver/Src/stm32l0xx_hal_rcc.c ****   * @note   This function can be used by the user application to compute the
1204:Drivers/STM32L0xx_HAL_Driver/Src/stm32l0xx_hal_rcc.c ****   *         baud-rate for the communication peripherals or configure other parameters.
1205:Drivers/STM32L0xx_HAL_Driver/Src/stm32l0xx_hal_rcc.c ****   *
1206:Drivers/STM32L0xx_HAL_Driver/Src/stm32l0xx_hal_rcc.c ****   * @note   Each time SYSCLK changes, this function must be called to update the
1207:Drivers/STM32L0xx_HAL_Driver/Src/stm32l0xx_hal_rcc.c ****   *         right SYSCLK value. Otherwise, any configuration based on this function will be incorre
1208:Drivers/STM32L0xx_HAL_Driver/Src/stm32l0xx_hal_rcc.c ****   *
1209:Drivers/STM32L0xx_HAL_Driver/Src/stm32l0xx_hal_rcc.c ****   * @retval SYSCLK frequency
1210:Drivers/STM32L0xx_HAL_Driver/Src/stm32l0xx_hal_rcc.c ****   */
1211:Drivers/STM32L0xx_HAL_Driver/Src/stm32l0xx_hal_rcc.c **** uint32_t HAL_RCC_GetSysClockFreq(void)
1212:Drivers/STM32L0xx_HAL_Driver/Src/stm32l0xx_hal_rcc.c **** {
 458              		.loc 1 1212 1 is_stmt 1 view -0
 459              		.cfi_startproc
 460              		@ args = 0, pretend = 0, frame = 0
 461              		@ frame_needed = 0, uses_anonymous_args = 0
 462 0000 10B5     		push	{r4, lr}
 463              	.LCFI4:
 464              		.cfi_def_cfa_offset 8
 465              		.cfi_offset 4, -8
 466              		.cfi_offset 14, -4
1213:Drivers/STM32L0xx_HAL_Driver/Src/stm32l0xx_hal_rcc.c ****   uint32_t tmpreg, pllm, plld, pllvco, msiclkrange;    /* no init needed */
 467              		.loc 1 1213 3 view .LVU122
1214:Drivers/STM32L0xx_HAL_Driver/Src/stm32l0xx_hal_rcc.c ****   uint32_t sysclockfreq;
 468              		.loc 1 1214 3 view .LVU123
1215:Drivers/STM32L0xx_HAL_Driver/Src/stm32l0xx_hal_rcc.c **** 
1216:Drivers/STM32L0xx_HAL_Driver/Src/stm32l0xx_hal_rcc.c ****   tmpreg = RCC->CFGR;
 469              		.loc 1 1216 3 view .LVU124
 470              		.loc 1 1216 10 is_stmt 0 view .LVU125
 471 0002 264B     		ldr	r3, .L36
 472 0004 D968     		ldr	r1, [r3, #12]
 473              	.LVL31:
1217:Drivers/STM32L0xx_HAL_Driver/Src/stm32l0xx_hal_rcc.c **** 
1218:Drivers/STM32L0xx_HAL_Driver/Src/stm32l0xx_hal_rcc.c ****   /* Get SYSCLK source -------------------------------------------------------*/
1219:Drivers/STM32L0xx_HAL_Driver/Src/stm32l0xx_hal_rcc.c ****   switch (tmpreg & RCC_CFGR_SWS)
 474              		.loc 1 1219 3 is_stmt 1 view .LVU126
 475              		.loc 1 1219 18 is_stmt 0 view .LVU127
 476 0006 0C23     		movs	r3, #12
 477 0008 0B40     		ands	r3, r1
 478              		.loc 1 1219 3 view .LVU128
 479 000a 082B     		cmp	r3, #8
 480 000c 42D0     		beq	.L34
 481 000e 0C2B     		cmp	r3, #12
 482 0010 07D0     		beq	.L30
 483 0012 042B     		cmp	r3, #4
 484 0014 34D1     		bne	.L31
1220:Drivers/STM32L0xx_HAL_Driver/Src/stm32l0xx_hal_rcc.c ****   {
1221:Drivers/STM32L0xx_HAL_Driver/Src/stm32l0xx_hal_rcc.c ****     case RCC_SYSCLKSOURCE_STATUS_HSI:  /* HSI used as system clock source */
1222:Drivers/STM32L0xx_HAL_Driver/Src/stm32l0xx_hal_rcc.c ****     {
1223:Drivers/STM32L0xx_HAL_Driver/Src/stm32l0xx_hal_rcc.c ****       if ((RCC->CR & RCC_CR_HSIDIVF) != 0U)
ARM GAS  C:\Users\Tilen\AppData\Local\Temp\ccC0CAdr.s 			page 32


 485              		.loc 1 1223 7 is_stmt 1 view .LVU129
 486              		.loc 1 1223 15 is_stmt 0 view .LVU130
 487 0016 214B     		ldr	r3, .L36
 488 0018 1B68     		ldr	r3, [r3]
 489              		.loc 1 1223 10 view .LVU131
 490 001a DB06     		lsls	r3, r3, #27
 491 001c 3CD5     		bpl	.L35
1224:Drivers/STM32L0xx_HAL_Driver/Src/stm32l0xx_hal_rcc.c ****       {
1225:Drivers/STM32L0xx_HAL_Driver/Src/stm32l0xx_hal_rcc.c ****         sysclockfreq =  (HSI_VALUE >> 2);
 492              		.loc 1 1225 22 view .LVU132
 493 001e 2048     		ldr	r0, .L36+4
 494 0020 37E0     		b	.L28
 495              	.L30:
1226:Drivers/STM32L0xx_HAL_Driver/Src/stm32l0xx_hal_rcc.c ****       }
1227:Drivers/STM32L0xx_HAL_Driver/Src/stm32l0xx_hal_rcc.c ****       else
1228:Drivers/STM32L0xx_HAL_Driver/Src/stm32l0xx_hal_rcc.c ****       {
1229:Drivers/STM32L0xx_HAL_Driver/Src/stm32l0xx_hal_rcc.c ****         sysclockfreq =  HSI_VALUE;
1230:Drivers/STM32L0xx_HAL_Driver/Src/stm32l0xx_hal_rcc.c ****       }
1231:Drivers/STM32L0xx_HAL_Driver/Src/stm32l0xx_hal_rcc.c ****       break;
1232:Drivers/STM32L0xx_HAL_Driver/Src/stm32l0xx_hal_rcc.c ****     }
1233:Drivers/STM32L0xx_HAL_Driver/Src/stm32l0xx_hal_rcc.c ****     case RCC_SYSCLKSOURCE_STATUS_HSE:  /* HSE used as system clock */
1234:Drivers/STM32L0xx_HAL_Driver/Src/stm32l0xx_hal_rcc.c ****     {
1235:Drivers/STM32L0xx_HAL_Driver/Src/stm32l0xx_hal_rcc.c ****       sysclockfreq = HSE_VALUE;
1236:Drivers/STM32L0xx_HAL_Driver/Src/stm32l0xx_hal_rcc.c ****       break;
1237:Drivers/STM32L0xx_HAL_Driver/Src/stm32l0xx_hal_rcc.c ****     }
1238:Drivers/STM32L0xx_HAL_Driver/Src/stm32l0xx_hal_rcc.c ****     case RCC_SYSCLKSOURCE_STATUS_PLLCLK:  /* PLL used as system clock */
1239:Drivers/STM32L0xx_HAL_Driver/Src/stm32l0xx_hal_rcc.c ****     {
1240:Drivers/STM32L0xx_HAL_Driver/Src/stm32l0xx_hal_rcc.c ****       pllm = PLLMulTable[(uint32_t)(tmpreg & RCC_CFGR_PLLMUL) >> RCC_CFGR_PLLMUL_Pos];
 496              		.loc 1 1240 7 is_stmt 1 view .LVU133
 497              		.loc 1 1240 63 is_stmt 0 view .LVU134
 498 0022 8A0C     		lsrs	r2, r1, #18
 499 0024 0F23     		movs	r3, #15
 500 0026 1340     		ands	r3, r2
 501              		.loc 1 1240 25 view .LVU135
 502 0028 1E4A     		ldr	r2, .L36+8
 503 002a D25C     		ldrb	r2, [r2, r3]
 504              	.LVL32:
1241:Drivers/STM32L0xx_HAL_Driver/Src/stm32l0xx_hal_rcc.c ****       plld = ((uint32_t)(tmpreg & RCC_CFGR_PLLDIV) >> RCC_CFGR_PLLDIV_Pos) + 1U;
 505              		.loc 1 1241 7 is_stmt 1 view .LVU136
 506              		.loc 1 1241 52 is_stmt 0 view .LVU137
 507 002c 890D     		lsrs	r1, r1, #22
 508              	.LVL33:
 509              		.loc 1 1241 52 view .LVU138
 510 002e 0323     		movs	r3, #3
 511 0030 1940     		ands	r1, r3
 512              		.loc 1 1241 12 view .LVU139
 513 0032 0131     		adds	r1, r1, #1
 514              	.LVL34:
1242:Drivers/STM32L0xx_HAL_Driver/Src/stm32l0xx_hal_rcc.c ****       if (__HAL_RCC_GET_PLL_OSCSOURCE() != RCC_PLLSOURCE_HSI)
 515              		.loc 1 1242 7 is_stmt 1 view .LVU140
 516              		.loc 1 1242 11 is_stmt 0 view .LVU141
 517 0034 194B     		ldr	r3, .L36
 518 0036 DB68     		ldr	r3, [r3, #12]
 519              		.loc 1 1242 10 view .LVU142
 520 0038 DB03     		lsls	r3, r3, #15
 521 003a 09D5     		bpl	.L32
1243:Drivers/STM32L0xx_HAL_Driver/Src/stm32l0xx_hal_rcc.c ****       {
ARM GAS  C:\Users\Tilen\AppData\Local\Temp\ccC0CAdr.s 			page 33


1244:Drivers/STM32L0xx_HAL_Driver/Src/stm32l0xx_hal_rcc.c ****         /* HSE used as PLL clock source */
1245:Drivers/STM32L0xx_HAL_Driver/Src/stm32l0xx_hal_rcc.c ****         pllvco = (uint32_t)((HSE_VALUE * pllm) / plld);
 522              		.loc 1 1245 9 is_stmt 1 view .LVU143
 523              		.loc 1 1245 40 is_stmt 0 view .LVU144
 524 003c 5301     		lsls	r3, r2, #5
 525 003e 9B1A     		subs	r3, r3, r2
 526 0040 9801     		lsls	r0, r3, #6
 527 0042 C01A     		subs	r0, r0, r3
 528 0044 C000     		lsls	r0, r0, #3
 529 0046 8018     		adds	r0, r0, r2
 530 0048 4002     		lsls	r0, r0, #9
 531              		.loc 1 1245 16 view .LVU145
 532 004a FFF7FEFF 		bl	__aeabi_uidiv
 533              	.LVL35:
 534              		.loc 1 1245 16 view .LVU146
 535 004e 20E0     		b	.L28
 536              	.LVL36:
 537              	.L32:
1246:Drivers/STM32L0xx_HAL_Driver/Src/stm32l0xx_hal_rcc.c ****       }
1247:Drivers/STM32L0xx_HAL_Driver/Src/stm32l0xx_hal_rcc.c ****       else
1248:Drivers/STM32L0xx_HAL_Driver/Src/stm32l0xx_hal_rcc.c ****       {
1249:Drivers/STM32L0xx_HAL_Driver/Src/stm32l0xx_hal_rcc.c ****         if ((RCC->CR & RCC_CR_HSIDIVF) != 0U)
 538              		.loc 1 1249 9 is_stmt 1 view .LVU147
 539              		.loc 1 1249 17 is_stmt 0 view .LVU148
 540 0050 124B     		ldr	r3, .L36
 541 0052 1B68     		ldr	r3, [r3]
 542              		.loc 1 1249 12 view .LVU149
 543 0054 DB06     		lsls	r3, r3, #27
 544 0056 09D5     		bpl	.L33
1250:Drivers/STM32L0xx_HAL_Driver/Src/stm32l0xx_hal_rcc.c ****         {
1251:Drivers/STM32L0xx_HAL_Driver/Src/stm32l0xx_hal_rcc.c ****           pllvco = (uint32_t)((((HSI_VALUE >> 2)) * pllm) / plld);
 545              		.loc 1 1251 11 is_stmt 1 view .LVU150
 546              		.loc 1 1251 51 is_stmt 0 view .LVU151
 547 0058 5301     		lsls	r3, r2, #5
 548 005a 9B1A     		subs	r3, r3, r2
 549 005c 9801     		lsls	r0, r3, #6
 550 005e C01A     		subs	r0, r0, r3
 551 0060 C000     		lsls	r0, r0, #3
 552 0062 8018     		adds	r0, r0, r2
 553 0064 0002     		lsls	r0, r0, #8
 554              		.loc 1 1251 18 view .LVU152
 555 0066 FFF7FEFF 		bl	__aeabi_uidiv
 556              	.LVL37:
 557              		.loc 1 1251 18 view .LVU153
 558 006a 12E0     		b	.L28
 559              	.LVL38:
 560              	.L33:
1252:Drivers/STM32L0xx_HAL_Driver/Src/stm32l0xx_hal_rcc.c ****         }
1253:Drivers/STM32L0xx_HAL_Driver/Src/stm32l0xx_hal_rcc.c ****         else
1254:Drivers/STM32L0xx_HAL_Driver/Src/stm32l0xx_hal_rcc.c ****         {
1255:Drivers/STM32L0xx_HAL_Driver/Src/stm32l0xx_hal_rcc.c ****          pllvco = (uint32_t)((HSI_VALUE * pllm) / plld);
 561              		.loc 1 1255 10 is_stmt 1 view .LVU154
 562              		.loc 1 1255 41 is_stmt 0 view .LVU155
 563 006c 5301     		lsls	r3, r2, #5
 564 006e 9B1A     		subs	r3, r3, r2
 565 0070 9801     		lsls	r0, r3, #6
 566 0072 C01A     		subs	r0, r0, r3
ARM GAS  C:\Users\Tilen\AppData\Local\Temp\ccC0CAdr.s 			page 34


 567 0074 C000     		lsls	r0, r0, #3
 568 0076 8018     		adds	r0, r0, r2
 569 0078 8002     		lsls	r0, r0, #10
 570              		.loc 1 1255 17 view .LVU156
 571 007a FFF7FEFF 		bl	__aeabi_uidiv
 572              	.LVL39:
 573              		.loc 1 1255 17 view .LVU157
 574 007e 08E0     		b	.L28
 575              	.LVL40:
 576              	.L31:
1256:Drivers/STM32L0xx_HAL_Driver/Src/stm32l0xx_hal_rcc.c ****         }
1257:Drivers/STM32L0xx_HAL_Driver/Src/stm32l0xx_hal_rcc.c ****       }
1258:Drivers/STM32L0xx_HAL_Driver/Src/stm32l0xx_hal_rcc.c ****       sysclockfreq = pllvco;
1259:Drivers/STM32L0xx_HAL_Driver/Src/stm32l0xx_hal_rcc.c ****       break;
1260:Drivers/STM32L0xx_HAL_Driver/Src/stm32l0xx_hal_rcc.c ****     }
1261:Drivers/STM32L0xx_HAL_Driver/Src/stm32l0xx_hal_rcc.c ****     case RCC_SYSCLKSOURCE_STATUS_MSI:  /* MSI used as system clock source */
1262:Drivers/STM32L0xx_HAL_Driver/Src/stm32l0xx_hal_rcc.c ****     default: /* MSI used as system clock */
1263:Drivers/STM32L0xx_HAL_Driver/Src/stm32l0xx_hal_rcc.c ****     {
1264:Drivers/STM32L0xx_HAL_Driver/Src/stm32l0xx_hal_rcc.c ****       msiclkrange = (RCC->ICSCR & RCC_ICSCR_MSIRANGE ) >> RCC_ICSCR_MSIRANGE_Pos;
 577              		.loc 1 1264 7 is_stmt 1 view .LVU158
 578              		.loc 1 1264 25 is_stmt 0 view .LVU159
 579 0080 064B     		ldr	r3, .L36
 580 0082 5A68     		ldr	r2, [r3, #4]
 581              		.loc 1 1264 56 view .LVU160
 582 0084 520B     		lsrs	r2, r2, #13
 583              		.loc 1 1264 19 view .LVU161
 584 0086 0723     		movs	r3, #7
 585 0088 1340     		ands	r3, r2
 586              	.LVL41:
1265:Drivers/STM32L0xx_HAL_Driver/Src/stm32l0xx_hal_rcc.c ****       sysclockfreq = (32768U * (1UL << (msiclkrange + 1U)));
 587              		.loc 1 1265 7 is_stmt 1 view .LVU162
 588              		.loc 1 1265 53 is_stmt 0 view .LVU163
 589 008a 0133     		adds	r3, r3, #1
 590              	.LVL42:
 591              		.loc 1 1265 20 view .LVU164
 592 008c 8020     		movs	r0, #128
 593 008e 0002     		lsls	r0, r0, #8
 594 0090 9840     		lsls	r0, r0, r3
 595              	.LVL43:
1266:Drivers/STM32L0xx_HAL_Driver/Src/stm32l0xx_hal_rcc.c ****       break;
 596              		.loc 1 1266 7 is_stmt 1 view .LVU165
 597              	.L28:
1267:Drivers/STM32L0xx_HAL_Driver/Src/stm32l0xx_hal_rcc.c ****     }
1268:Drivers/STM32L0xx_HAL_Driver/Src/stm32l0xx_hal_rcc.c ****   }
1269:Drivers/STM32L0xx_HAL_Driver/Src/stm32l0xx_hal_rcc.c ****   return sysclockfreq;
1270:Drivers/STM32L0xx_HAL_Driver/Src/stm32l0xx_hal_rcc.c **** }
 598              		.loc 1 1270 1 is_stmt 0 view .LVU166
 599              		@ sp needed
 600 0092 10BD     		pop	{r4, pc}
 601              	.LVL44:
 602              	.L34:
1219:Drivers/STM32L0xx_HAL_Driver/Src/stm32l0xx_hal_rcc.c ****   {
 603              		.loc 1 1219 3 view .LVU167
 604 0094 0448     		ldr	r0, .L36+12
 605 0096 FCE7     		b	.L28
 606              	.L35:
1229:Drivers/STM32L0xx_HAL_Driver/Src/stm32l0xx_hal_rcc.c ****       }
ARM GAS  C:\Users\Tilen\AppData\Local\Temp\ccC0CAdr.s 			page 35


 607              		.loc 1 1229 22 view .LVU168
 608 0098 0448     		ldr	r0, .L36+16
 609              	.LVL45:
1269:Drivers/STM32L0xx_HAL_Driver/Src/stm32l0xx_hal_rcc.c **** }
 610              		.loc 1 1269 3 is_stmt 1 view .LVU169
1269:Drivers/STM32L0xx_HAL_Driver/Src/stm32l0xx_hal_rcc.c **** }
 611              		.loc 1 1269 10 is_stmt 0 view .LVU170
 612 009a FAE7     		b	.L28
 613              	.L37:
 614              		.align	2
 615              	.L36:
 616 009c 00100240 		.word	1073876992
 617 00a0 00093D00 		.word	4000000
 618 00a4 00000000 		.word	PLLMulTable
 619 00a8 00127A00 		.word	8000000
 620 00ac 0024F400 		.word	16000000
 621              		.cfi_endproc
 622              	.LFE52:
 624              		.section	.text.HAL_RCC_OscConfig,"ax",%progbits
 625              		.align	1
 626              		.global	HAL_RCC_OscConfig
 627              		.syntax unified
 628              		.code	16
 629              		.thumb_func
 631              	HAL_RCC_OscConfig:
 632              	.LVL46:
 633              	.LFB48:
 337:Drivers/STM32L0xx_HAL_Driver/Src/stm32l0xx_hal_rcc.c ****   uint32_t tickstart;
 634              		.loc 1 337 1 is_stmt 1 view -0
 635              		.cfi_startproc
 636              		@ args = 0, pretend = 0, frame = 8
 637              		@ frame_needed = 0, uses_anonymous_args = 0
 337:Drivers/STM32L0xx_HAL_Driver/Src/stm32l0xx_hal_rcc.c ****   uint32_t tickstart;
 638              		.loc 1 337 1 is_stmt 0 view .LVU172
 639 0000 F0B5     		push	{r4, r5, r6, r7, lr}
 640              	.LCFI5:
 641              		.cfi_def_cfa_offset 20
 642              		.cfi_offset 4, -20
 643              		.cfi_offset 5, -16
 644              		.cfi_offset 6, -12
 645              		.cfi_offset 7, -8
 646              		.cfi_offset 14, -4
 647 0002 83B0     		sub	sp, sp, #12
 648              	.LCFI6:
 649              		.cfi_def_cfa_offset 32
 650 0004 041E     		subs	r4, r0, #0
 338:Drivers/STM32L0xx_HAL_Driver/Src/stm32l0xx_hal_rcc.c ****   uint32_t hsi_state;
 651              		.loc 1 338 3 is_stmt 1 view .LVU173
 339:Drivers/STM32L0xx_HAL_Driver/Src/stm32l0xx_hal_rcc.c ****   HAL_StatusTypeDef status;
 652              		.loc 1 339 3 view .LVU174
 340:Drivers/STM32L0xx_HAL_Driver/Src/stm32l0xx_hal_rcc.c ****   uint32_t sysclk_source, pll_config;
 653              		.loc 1 340 3 view .LVU175
 341:Drivers/STM32L0xx_HAL_Driver/Src/stm32l0xx_hal_rcc.c **** 
 654              		.loc 1 341 3 view .LVU176
 344:Drivers/STM32L0xx_HAL_Driver/Src/stm32l0xx_hal_rcc.c ****   {
 655              		.loc 1 344 3 view .LVU177
 344:Drivers/STM32L0xx_HAL_Driver/Src/stm32l0xx_hal_rcc.c ****   {
ARM GAS  C:\Users\Tilen\AppData\Local\Temp\ccC0CAdr.s 			page 36


 656              		.loc 1 344 5 is_stmt 0 view .LVU178
 657 0006 00D1     		bne	.LCB592
 658 0008 97E2     		b	.L103	@long jump
 659              	.LCB592:
 350:Drivers/STM32L0xx_HAL_Driver/Src/stm32l0xx_hal_rcc.c **** 
 660              		.loc 1 350 3 is_stmt 1 view .LVU179
 352:Drivers/STM32L0xx_HAL_Driver/Src/stm32l0xx_hal_rcc.c ****   pll_config = __HAL_RCC_GET_PLL_OSCSOURCE();
 661              		.loc 1 352 3 view .LVU180
 352:Drivers/STM32L0xx_HAL_Driver/Src/stm32l0xx_hal_rcc.c ****   pll_config = __HAL_RCC_GET_PLL_OSCSOURCE();
 662              		.loc 1 352 19 is_stmt 0 view .LVU181
 663 000a C24B     		ldr	r3, .L154
 664 000c DA68     		ldr	r2, [r3, #12]
 352:Drivers/STM32L0xx_HAL_Driver/Src/stm32l0xx_hal_rcc.c ****   pll_config = __HAL_RCC_GET_PLL_OSCSOURCE();
 665              		.loc 1 352 17 view .LVU182
 666 000e 0C25     		movs	r5, #12
 667 0010 1540     		ands	r5, r2
 668              	.LVL47:
 353:Drivers/STM32L0xx_HAL_Driver/Src/stm32l0xx_hal_rcc.c **** 
 669              		.loc 1 353 3 is_stmt 1 view .LVU183
 353:Drivers/STM32L0xx_HAL_Driver/Src/stm32l0xx_hal_rcc.c **** 
 670              		.loc 1 353 16 is_stmt 0 view .LVU184
 671 0012 DA68     		ldr	r2, [r3, #12]
 353:Drivers/STM32L0xx_HAL_Driver/Src/stm32l0xx_hal_rcc.c **** 
 672              		.loc 1 353 14 view .LVU185
 673 0014 8023     		movs	r3, #128
 674 0016 5B02     		lsls	r3, r3, #9
 675 0018 1A40     		ands	r2, r3
 676 001a 1700     		movs	r7, r2
 677              	.LVL48:
 356:Drivers/STM32L0xx_HAL_Driver/Src/stm32l0xx_hal_rcc.c ****   {
 678              		.loc 1 356 3 is_stmt 1 view .LVU186
 356:Drivers/STM32L0xx_HAL_Driver/Src/stm32l0xx_hal_rcc.c ****   {
 679              		.loc 1 356 25 is_stmt 0 view .LVU187
 680 001c 0368     		ldr	r3, [r0]
 356:Drivers/STM32L0xx_HAL_Driver/Src/stm32l0xx_hal_rcc.c ****   {
 681              		.loc 1 356 5 view .LVU188
 682 001e DB07     		lsls	r3, r3, #31
 683 0020 36D5     		bpl	.L40
 359:Drivers/STM32L0xx_HAL_Driver/Src/stm32l0xx_hal_rcc.c **** 
 684              		.loc 1 359 5 is_stmt 1 view .LVU189
 362:Drivers/STM32L0xx_HAL_Driver/Src/stm32l0xx_hal_rcc.c ****        || ((sysclk_source == RCC_SYSCLKSOURCE_STATUS_PLLCLK) && (pll_config == RCC_PLLSOURCE_HSE)))
 685              		.loc 1 362 5 view .LVU190
 362:Drivers/STM32L0xx_HAL_Driver/Src/stm32l0xx_hal_rcc.c ****        || ((sysclk_source == RCC_SYSCLKSOURCE_STATUS_PLLCLK) && (pll_config == RCC_PLLSOURCE_HSE)))
 686              		.loc 1 362 7 is_stmt 0 view .LVU191
 687 0022 082D     		cmp	r5, #8
 688 0024 2CD0     		beq	.L41
 363:Drivers/STM32L0xx_HAL_Driver/Src/stm32l0xx_hal_rcc.c ****     {
 689              		.loc 1 363 8 view .LVU192
 690 0026 0C2D     		cmp	r5, #12
 691 0028 28D0     		beq	.L139
 692              	.L42:
 373:Drivers/STM32L0xx_HAL_Driver/Src/stm32l0xx_hal_rcc.c **** 
 693              		.loc 1 373 7 is_stmt 1 view .LVU193
 694              	.LBB5:
 373:Drivers/STM32L0xx_HAL_Driver/Src/stm32l0xx_hal_rcc.c **** 
 695              		.loc 1 373 7 view .LVU194
 373:Drivers/STM32L0xx_HAL_Driver/Src/stm32l0xx_hal_rcc.c **** 
ARM GAS  C:\Users\Tilen\AppData\Local\Temp\ccC0CAdr.s 			page 37


 696              		.loc 1 373 7 view .LVU195
 697 002a 6368     		ldr	r3, [r4, #4]
 698 002c 8022     		movs	r2, #128
 699              	.LVL49:
 373:Drivers/STM32L0xx_HAL_Driver/Src/stm32l0xx_hal_rcc.c **** 
 700              		.loc 1 373 7 is_stmt 0 view .LVU196
 701 002e 5202     		lsls	r2, r2, #9
 702 0030 9342     		cmp	r3, r2
 703 0032 4DD0     		beq	.L140
 373:Drivers/STM32L0xx_HAL_Driver/Src/stm32l0xx_hal_rcc.c **** 
 704              		.loc 1 373 7 is_stmt 1 discriminator 2 view .LVU197
 705 0034 A022     		movs	r2, #160
 706 0036 D202     		lsls	r2, r2, #11
 707 0038 9342     		cmp	r3, r2
 708 003a 4ED0     		beq	.L141
 373:Drivers/STM32L0xx_HAL_Driver/Src/stm32l0xx_hal_rcc.c **** 
 709              		.loc 1 373 7 discriminator 4 view .LVU198
 710 003c B54B     		ldr	r3, .L154
 711 003e 1A68     		ldr	r2, [r3]
 712 0040 B549     		ldr	r1, .L154+4
 713 0042 0A40     		ands	r2, r1
 714 0044 1A60     		str	r2, [r3]
 373:Drivers/STM32L0xx_HAL_Driver/Src/stm32l0xx_hal_rcc.c **** 
 715              		.loc 1 373 7 view .LVU199
 373:Drivers/STM32L0xx_HAL_Driver/Src/stm32l0xx_hal_rcc.c **** 
 716              		.loc 1 373 7 is_stmt 0 discriminator 4 view .LVU200
 717 0046 1A68     		ldr	r2, [r3]
 718 0048 8021     		movs	r1, #128
 719 004a 4902     		lsls	r1, r1, #9
 720 004c 0A40     		ands	r2, r1
 721 004e 0192     		str	r2, [sp, #4]
 373:Drivers/STM32L0xx_HAL_Driver/Src/stm32l0xx_hal_rcc.c **** 
 722              		.loc 1 373 7 is_stmt 1 view .LVU201
 373:Drivers/STM32L0xx_HAL_Driver/Src/stm32l0xx_hal_rcc.c **** 
 723              		.loc 1 373 7 is_stmt 0 discriminator 4 view .LVU202
 724 0050 019A     		ldr	r2, [sp, #4]
 373:Drivers/STM32L0xx_HAL_Driver/Src/stm32l0xx_hal_rcc.c **** 
 725              		.loc 1 373 7 is_stmt 1 view .LVU203
 373:Drivers/STM32L0xx_HAL_Driver/Src/stm32l0xx_hal_rcc.c **** 
 726              		.loc 1 373 7 is_stmt 0 discriminator 4 view .LVU204
 727 0052 1A68     		ldr	r2, [r3]
 728 0054 B149     		ldr	r1, .L154+8
 729 0056 0A40     		ands	r2, r1
 730 0058 1A60     		str	r2, [r3]
 731              	.L44:
 732              	.LBE5:
 373:Drivers/STM32L0xx_HAL_Driver/Src/stm32l0xx_hal_rcc.c **** 
 733              		.loc 1 373 7 is_stmt 1 view .LVU205
 376:Drivers/STM32L0xx_HAL_Driver/Src/stm32l0xx_hal_rcc.c ****       {
 734              		.loc 1 376 7 view .LVU206
 376:Drivers/STM32L0xx_HAL_Driver/Src/stm32l0xx_hal_rcc.c ****       {
 735              		.loc 1 376 27 is_stmt 0 view .LVU207
 736 005a 6368     		ldr	r3, [r4, #4]
 376:Drivers/STM32L0xx_HAL_Driver/Src/stm32l0xx_hal_rcc.c ****       {
 737              		.loc 1 376 9 view .LVU208
 738 005c 002B     		cmp	r3, #0
 739 005e 48D0     		beq	.L46
ARM GAS  C:\Users\Tilen\AppData\Local\Temp\ccC0CAdr.s 			page 38


 379:Drivers/STM32L0xx_HAL_Driver/Src/stm32l0xx_hal_rcc.c **** 
 740              		.loc 1 379 9 is_stmt 1 view .LVU209
 379:Drivers/STM32L0xx_HAL_Driver/Src/stm32l0xx_hal_rcc.c **** 
 741              		.loc 1 379 21 is_stmt 0 view .LVU210
 742 0060 FFF7FEFF 		bl	HAL_GetTick
 743              	.LVL50:
 379:Drivers/STM32L0xx_HAL_Driver/Src/stm32l0xx_hal_rcc.c **** 
 744              		.loc 1 379 21 view .LVU211
 745 0064 0600     		movs	r6, r0
 746              	.LVL51:
 382:Drivers/STM32L0xx_HAL_Driver/Src/stm32l0xx_hal_rcc.c ****         {
 747              		.loc 1 382 9 is_stmt 1 view .LVU212
 748              	.L47:
 382:Drivers/STM32L0xx_HAL_Driver/Src/stm32l0xx_hal_rcc.c ****         {
 749              		.loc 1 382 51 view .LVU213
 382:Drivers/STM32L0xx_HAL_Driver/Src/stm32l0xx_hal_rcc.c ****         {
 750              		.loc 1 382 15 is_stmt 0 view .LVU214
 751 0066 AB4B     		ldr	r3, .L154
 752 0068 1B68     		ldr	r3, [r3]
 382:Drivers/STM32L0xx_HAL_Driver/Src/stm32l0xx_hal_rcc.c ****         {
 753              		.loc 1 382 51 view .LVU215
 754 006a 9B03     		lsls	r3, r3, #14
 755 006c 10D4     		bmi	.L40
 384:Drivers/STM32L0xx_HAL_Driver/Src/stm32l0xx_hal_rcc.c ****           {
 756              		.loc 1 384 11 is_stmt 1 view .LVU216
 384:Drivers/STM32L0xx_HAL_Driver/Src/stm32l0xx_hal_rcc.c ****           {
 757              		.loc 1 384 15 is_stmt 0 view .LVU217
 758 006e FFF7FEFF 		bl	HAL_GetTick
 759              	.LVL52:
 384:Drivers/STM32L0xx_HAL_Driver/Src/stm32l0xx_hal_rcc.c ****           {
 760              		.loc 1 384 29 discriminator 1 view .LVU218
 761 0072 801B     		subs	r0, r0, r6
 384:Drivers/STM32L0xx_HAL_Driver/Src/stm32l0xx_hal_rcc.c ****           {
 762              		.loc 1 384 13 discriminator 1 view .LVU219
 763 0074 6428     		cmp	r0, #100
 764 0076 F6D9     		bls	.L47
 386:Drivers/STM32L0xx_HAL_Driver/Src/stm32l0xx_hal_rcc.c ****           }
 765              		.loc 1 386 20 view .LVU220
 766 0078 0320     		movs	r0, #3
 767 007a 5FE2     		b	.L39
 768              	.LVL53:
 769              	.L139:
 363:Drivers/STM32L0xx_HAL_Driver/Src/stm32l0xx_hal_rcc.c ****     {
 770              		.loc 1 363 62 discriminator 1 view .LVU221
 771 007c 002A     		cmp	r2, #0
 772 007e D4D0     		beq	.L42
 773              	.L41:
 365:Drivers/STM32L0xx_HAL_Driver/Src/stm32l0xx_hal_rcc.c ****       {
 774              		.loc 1 365 7 is_stmt 1 view .LVU222
 365:Drivers/STM32L0xx_HAL_Driver/Src/stm32l0xx_hal_rcc.c ****       {
 775              		.loc 1 365 11 is_stmt 0 view .LVU223
 776 0080 A44B     		ldr	r3, .L154
 777 0082 1B68     		ldr	r3, [r3]
 365:Drivers/STM32L0xx_HAL_Driver/Src/stm32l0xx_hal_rcc.c ****       {
 778              		.loc 1 365 9 view .LVU224
 779 0084 9B03     		lsls	r3, r3, #14
 780 0086 03D5     		bpl	.L40
ARM GAS  C:\Users\Tilen\AppData\Local\Temp\ccC0CAdr.s 			page 39


 365:Drivers/STM32L0xx_HAL_Driver/Src/stm32l0xx_hal_rcc.c ****       {
 781              		.loc 1 365 75 discriminator 1 view .LVU225
 782 0088 6368     		ldr	r3, [r4, #4]
 365:Drivers/STM32L0xx_HAL_Driver/Src/stm32l0xx_hal_rcc.c ****       {
 783              		.loc 1 365 54 discriminator 1 view .LVU226
 784 008a 002B     		cmp	r3, #0
 785 008c 00D1     		bne	.LCB704
 786 008e 57E2     		b	.L142	@long jump
 787              	.LCB704:
 788              	.LVL54:
 789              	.L40:
 407:Drivers/STM32L0xx_HAL_Driver/Src/stm32l0xx_hal_rcc.c ****   {
 790              		.loc 1 407 3 is_stmt 1 view .LVU227
 407:Drivers/STM32L0xx_HAL_Driver/Src/stm32l0xx_hal_rcc.c ****   {
 791              		.loc 1 407 25 is_stmt 0 view .LVU228
 792 0090 2368     		ldr	r3, [r4]
 407:Drivers/STM32L0xx_HAL_Driver/Src/stm32l0xx_hal_rcc.c ****   {
 793              		.loc 1 407 5 view .LVU229
 794 0092 9B07     		lsls	r3, r3, #30
 795 0094 64D5     		bpl	.L51
 410:Drivers/STM32L0xx_HAL_Driver/Src/stm32l0xx_hal_rcc.c ****     assert_param(IS_RCC_CALIBRATION_VALUE(RCC_OscInitStruct->HSICalibrationValue));
 796              		.loc 1 410 5 is_stmt 1 view .LVU230
 411:Drivers/STM32L0xx_HAL_Driver/Src/stm32l0xx_hal_rcc.c **** 
 797              		.loc 1 411 5 view .LVU231
 413:Drivers/STM32L0xx_HAL_Driver/Src/stm32l0xx_hal_rcc.c **** 
 798              		.loc 1 413 5 view .LVU232
 413:Drivers/STM32L0xx_HAL_Driver/Src/stm32l0xx_hal_rcc.c **** 
 799              		.loc 1 413 15 is_stmt 0 view .LVU233
 800 0096 E368     		ldr	r3, [r4, #12]
 801              	.LVL55:
 426:Drivers/STM32L0xx_HAL_Driver/Src/stm32l0xx_hal_rcc.c ****        || ((sysclk_source == RCC_SYSCLKSOURCE_STATUS_PLLCLK) && (pll_config == RCC_PLLSOURCE_HSI)))
 802              		.loc 1 426 5 is_stmt 1 view .LVU234
 426:Drivers/STM32L0xx_HAL_Driver/Src/stm32l0xx_hal_rcc.c ****        || ((sysclk_source == RCC_SYSCLKSOURCE_STATUS_PLLCLK) && (pll_config == RCC_PLLSOURCE_HSI)))
 803              		.loc 1 426 7 is_stmt 0 view .LVU235
 804 0098 042D     		cmp	r5, #4
 805 009a 3AD0     		beq	.L52
 427:Drivers/STM32L0xx_HAL_Driver/Src/stm32l0xx_hal_rcc.c ****     {
 806              		.loc 1 427 8 view .LVU236
 807 009c 0C2D     		cmp	r5, #12
 808 009e 36D0     		beq	.L143
 809              	.L53:
 457:Drivers/STM32L0xx_HAL_Driver/Src/stm32l0xx_hal_rcc.c ****       {
 810              		.loc 1 457 7 is_stmt 1 view .LVU237
 457:Drivers/STM32L0xx_HAL_Driver/Src/stm32l0xx_hal_rcc.c ****       {
 811              		.loc 1 457 9 is_stmt 0 view .LVU238
 812 00a0 002B     		cmp	r3, #0
 813 00a2 00D1     		bne	.LCB727
 814 00a4 AFE0     		b	.L55	@long jump
 815              	.LCB727:
 460:Drivers/STM32L0xx_HAL_Driver/Src/stm32l0xx_hal_rcc.c **** 
 816              		.loc 1 460 9 is_stmt 1 view .LVU239
 817 00a6 9B49     		ldr	r1, .L154
 818 00a8 0A68     		ldr	r2, [r1]
 819 00aa 0920     		movs	r0, #9
 820 00ac 8243     		bics	r2, r0
 821 00ae 1343     		orrs	r3, r2
 822              	.LVL56:
ARM GAS  C:\Users\Tilen\AppData\Local\Temp\ccC0CAdr.s 			page 40


 460:Drivers/STM32L0xx_HAL_Driver/Src/stm32l0xx_hal_rcc.c **** 
 823              		.loc 1 460 9 is_stmt 0 view .LVU240
 824 00b0 0B60     		str	r3, [r1]
 825              	.LVL57:
 463:Drivers/STM32L0xx_HAL_Driver/Src/stm32l0xx_hal_rcc.c **** 
 826              		.loc 1 463 9 is_stmt 1 view .LVU241
 463:Drivers/STM32L0xx_HAL_Driver/Src/stm32l0xx_hal_rcc.c **** 
 827              		.loc 1 463 21 is_stmt 0 view .LVU242
 828 00b2 FFF7FEFF 		bl	HAL_GetTick
 829              	.LVL58:
 830 00b6 0600     		movs	r6, r0
 831              	.LVL59:
 466:Drivers/STM32L0xx_HAL_Driver/Src/stm32l0xx_hal_rcc.c ****         {
 832              		.loc 1 466 9 is_stmt 1 view .LVU243
 833              	.L56:
 466:Drivers/STM32L0xx_HAL_Driver/Src/stm32l0xx_hal_rcc.c ****         {
 834              		.loc 1 466 51 view .LVU244
 466:Drivers/STM32L0xx_HAL_Driver/Src/stm32l0xx_hal_rcc.c ****         {
 835              		.loc 1 466 15 is_stmt 0 view .LVU245
 836 00b8 964B     		ldr	r3, .L154
 837 00ba 1B68     		ldr	r3, [r3]
 466:Drivers/STM32L0xx_HAL_Driver/Src/stm32l0xx_hal_rcc.c ****         {
 838              		.loc 1 466 51 view .LVU246
 839 00bc 5B07     		lsls	r3, r3, #29
 840 00be 00D5     		bpl	.LCB751
 841 00c0 98E0     		b	.L144	@long jump
 842              	.LCB751:
 468:Drivers/STM32L0xx_HAL_Driver/Src/stm32l0xx_hal_rcc.c ****           {
 843              		.loc 1 468 11 is_stmt 1 view .LVU247
 468:Drivers/STM32L0xx_HAL_Driver/Src/stm32l0xx_hal_rcc.c ****           {
 844              		.loc 1 468 15 is_stmt 0 view .LVU248
 845 00c2 FFF7FEFF 		bl	HAL_GetTick
 846              	.LVL60:
 468:Drivers/STM32L0xx_HAL_Driver/Src/stm32l0xx_hal_rcc.c ****           {
 847              		.loc 1 468 29 discriminator 1 view .LVU249
 848 00c6 801B     		subs	r0, r0, r6
 468:Drivers/STM32L0xx_HAL_Driver/Src/stm32l0xx_hal_rcc.c ****           {
 849              		.loc 1 468 13 discriminator 1 view .LVU250
 850 00c8 0228     		cmp	r0, #2
 851 00ca F5D9     		bls	.L56
 470:Drivers/STM32L0xx_HAL_Driver/Src/stm32l0xx_hal_rcc.c ****           }
 852              		.loc 1 470 20 view .LVU251
 853 00cc 0320     		movs	r0, #3
 854 00ce 35E2     		b	.L39
 855              	.LVL61:
 856              	.L140:
 857              	.LBB6:
 373:Drivers/STM32L0xx_HAL_Driver/Src/stm32l0xx_hal_rcc.c **** 
 858              		.loc 1 373 7 is_stmt 1 discriminator 1 view .LVU252
 859 00d0 904A     		ldr	r2, .L154
 860 00d2 1168     		ldr	r1, [r2]
 861 00d4 0B43     		orrs	r3, r1
 862 00d6 1360     		str	r3, [r2]
 863 00d8 BFE7     		b	.L44
 864              	.L141:
 373:Drivers/STM32L0xx_HAL_Driver/Src/stm32l0xx_hal_rcc.c **** 
 865              		.loc 1 373 7 discriminator 3 view .LVU253
ARM GAS  C:\Users\Tilen\AppData\Local\Temp\ccC0CAdr.s 			page 41


 866 00da 8E4B     		ldr	r3, .L154
 867 00dc 1968     		ldr	r1, [r3]
 868 00de 8022     		movs	r2, #128
 869 00e0 D202     		lsls	r2, r2, #11
 870 00e2 0A43     		orrs	r2, r1
 871 00e4 1A60     		str	r2, [r3]
 373:Drivers/STM32L0xx_HAL_Driver/Src/stm32l0xx_hal_rcc.c **** 
 872              		.loc 1 373 7 view .LVU254
 373:Drivers/STM32L0xx_HAL_Driver/Src/stm32l0xx_hal_rcc.c **** 
 873              		.loc 1 373 7 is_stmt 0 discriminator 3 view .LVU255
 874 00e6 1968     		ldr	r1, [r3]
 875 00e8 8022     		movs	r2, #128
 876 00ea 5202     		lsls	r2, r2, #9
 877 00ec 0A43     		orrs	r2, r1
 878 00ee 1A60     		str	r2, [r3]
 879 00f0 B3E7     		b	.L44
 880              	.L46:
 373:Drivers/STM32L0xx_HAL_Driver/Src/stm32l0xx_hal_rcc.c **** 
 881              		.loc 1 373 7 discriminator 3 view .LVU256
 882              	.LBE6:
 393:Drivers/STM32L0xx_HAL_Driver/Src/stm32l0xx_hal_rcc.c **** 
 883              		.loc 1 393 9 is_stmt 1 view .LVU257
 393:Drivers/STM32L0xx_HAL_Driver/Src/stm32l0xx_hal_rcc.c **** 
 884              		.loc 1 393 21 is_stmt 0 view .LVU258
 885 00f2 FFF7FEFF 		bl	HAL_GetTick
 886              	.LVL62:
 393:Drivers/STM32L0xx_HAL_Driver/Src/stm32l0xx_hal_rcc.c **** 
 887              		.loc 1 393 21 view .LVU259
 888 00f6 0600     		movs	r6, r0
 889              	.LVL63:
 396:Drivers/STM32L0xx_HAL_Driver/Src/stm32l0xx_hal_rcc.c ****         {
 890              		.loc 1 396 9 is_stmt 1 view .LVU260
 891              	.L49:
 396:Drivers/STM32L0xx_HAL_Driver/Src/stm32l0xx_hal_rcc.c ****         {
 892              		.loc 1 396 51 view .LVU261
 396:Drivers/STM32L0xx_HAL_Driver/Src/stm32l0xx_hal_rcc.c ****         {
 893              		.loc 1 396 15 is_stmt 0 view .LVU262
 894 00f8 864B     		ldr	r3, .L154
 895 00fa 1B68     		ldr	r3, [r3]
 396:Drivers/STM32L0xx_HAL_Driver/Src/stm32l0xx_hal_rcc.c ****         {
 896              		.loc 1 396 51 view .LVU263
 897 00fc 9B03     		lsls	r3, r3, #14
 898 00fe C7D5     		bpl	.L40
 398:Drivers/STM32L0xx_HAL_Driver/Src/stm32l0xx_hal_rcc.c ****           {
 899              		.loc 1 398 12 is_stmt 1 view .LVU264
 398:Drivers/STM32L0xx_HAL_Driver/Src/stm32l0xx_hal_rcc.c ****           {
 900              		.loc 1 398 16 is_stmt 0 view .LVU265
 901 0100 FFF7FEFF 		bl	HAL_GetTick
 902              	.LVL64:
 398:Drivers/STM32L0xx_HAL_Driver/Src/stm32l0xx_hal_rcc.c ****           {
 903              		.loc 1 398 30 discriminator 1 view .LVU266
 904 0104 801B     		subs	r0, r0, r6
 398:Drivers/STM32L0xx_HAL_Driver/Src/stm32l0xx_hal_rcc.c ****           {
 905              		.loc 1 398 14 discriminator 1 view .LVU267
 906 0106 6428     		cmp	r0, #100
 907 0108 F6D9     		bls	.L49
 400:Drivers/STM32L0xx_HAL_Driver/Src/stm32l0xx_hal_rcc.c ****           }
ARM GAS  C:\Users\Tilen\AppData\Local\Temp\ccC0CAdr.s 			page 42


 908              		.loc 1 400 20 view .LVU268
 909 010a 0320     		movs	r0, #3
 910 010c 16E2     		b	.L39
 911              	.LVL65:
 912              	.L143:
 427:Drivers/STM32L0xx_HAL_Driver/Src/stm32l0xx_hal_rcc.c ****     {
 913              		.loc 1 427 62 discriminator 1 view .LVU269
 914 010e 002F     		cmp	r7, #0
 915 0110 C6D1     		bne	.L53
 916              	.L52:
 430:Drivers/STM32L0xx_HAL_Driver/Src/stm32l0xx_hal_rcc.c ****       {
 917              		.loc 1 430 7 is_stmt 1 view .LVU270
 430:Drivers/STM32L0xx_HAL_Driver/Src/stm32l0xx_hal_rcc.c ****       {
 918              		.loc 1 430 11 is_stmt 0 view .LVU271
 919 0112 804A     		ldr	r2, .L154
 920 0114 1268     		ldr	r2, [r2]
 430:Drivers/STM32L0xx_HAL_Driver/Src/stm32l0xx_hal_rcc.c ****       {
 921              		.loc 1 430 9 view .LVU272
 922 0116 5207     		lsls	r2, r2, #29
 923 0118 02D5     		bpl	.L54
 430:Drivers/STM32L0xx_HAL_Driver/Src/stm32l0xx_hal_rcc.c ****       {
 924              		.loc 1 430 54 discriminator 1 view .LVU273
 925 011a 002B     		cmp	r3, #0
 926 011c 00D1     		bne	.LCB836
 927 011e 11E2     		b	.L107	@long jump
 928              	.LCB836:
 929              	.L54:
 438:Drivers/STM32L0xx_HAL_Driver/Src/stm32l0xx_hal_rcc.c **** 
 930              		.loc 1 438 9 is_stmt 1 view .LVU274
 931 0120 7C48     		ldr	r0, .L154
 932 0122 4268     		ldr	r2, [r0, #4]
 933 0124 7E49     		ldr	r1, .L154+12
 934 0126 0A40     		ands	r2, r1
 935 0128 2169     		ldr	r1, [r4, #16]
 936 012a 0902     		lsls	r1, r1, #8
 937 012c 0A43     		orrs	r2, r1
 938 012e 4260     		str	r2, [r0, #4]
 441:Drivers/STM32L0xx_HAL_Driver/Src/stm32l0xx_hal_rcc.c ****       }
 939              		.loc 1 441 9 view .LVU275
 940 0130 0268     		ldr	r2, [r0]
 941 0132 0921     		movs	r1, #9
 942 0134 8A43     		bics	r2, r1
 943 0136 1343     		orrs	r3, r2
 944              	.LVL66:
 441:Drivers/STM32L0xx_HAL_Driver/Src/stm32l0xx_hal_rcc.c ****       }
 945              		.loc 1 441 9 is_stmt 0 view .LVU276
 946 0138 0600     		movs	r6, r0
 947 013a 0360     		str	r3, [r0]
 445:Drivers/STM32L0xx_HAL_Driver/Src/stm32l0xx_hal_rcc.c **** 
 948              		.loc 1 445 7 is_stmt 1 view .LVU277
 445:Drivers/STM32L0xx_HAL_Driver/Src/stm32l0xx_hal_rcc.c **** 
 949              		.loc 1 445 25 is_stmt 0 view .LVU278
 950 013c FFF7FEFF 		bl	HAL_RCC_GetSysClockFreq
 951              	.LVL67:
 445:Drivers/STM32L0xx_HAL_Driver/Src/stm32l0xx_hal_rcc.c **** 
 952              		.loc 1 445 72 discriminator 1 view .LVU279
 953 0140 F268     		ldr	r2, [r6, #12]
ARM GAS  C:\Users\Tilen\AppData\Local\Temp\ccC0CAdr.s 			page 43


 445:Drivers/STM32L0xx_HAL_Driver/Src/stm32l0xx_hal_rcc.c **** 
 954              		.loc 1 445 95 discriminator 1 view .LVU280
 955 0142 1209     		lsrs	r2, r2, #4
 956 0144 0F23     		movs	r3, #15
 957 0146 1340     		ands	r3, r2
 445:Drivers/STM32L0xx_HAL_Driver/Src/stm32l0xx_hal_rcc.c **** 
 958              		.loc 1 445 67 discriminator 1 view .LVU281
 959 0148 764A     		ldr	r2, .L154+16
 960 014a D35C     		ldrb	r3, [r2, r3]
 445:Drivers/STM32L0xx_HAL_Driver/Src/stm32l0xx_hal_rcc.c **** 
 961              		.loc 1 445 51 discriminator 1 view .LVU282
 962 014c D840     		lsrs	r0, r0, r3
 445:Drivers/STM32L0xx_HAL_Driver/Src/stm32l0xx_hal_rcc.c **** 
 963              		.loc 1 445 23 discriminator 1 view .LVU283
 964 014e 764B     		ldr	r3, .L154+20
 965 0150 1860     		str	r0, [r3]
 448:Drivers/STM32L0xx_HAL_Driver/Src/stm32l0xx_hal_rcc.c ****       if(status != HAL_OK)
 966              		.loc 1 448 7 is_stmt 1 view .LVU284
 448:Drivers/STM32L0xx_HAL_Driver/Src/stm32l0xx_hal_rcc.c ****       if(status != HAL_OK)
 967              		.loc 1 448 16 is_stmt 0 view .LVU285
 968 0152 764B     		ldr	r3, .L154+24
 969 0154 1868     		ldr	r0, [r3]
 970 0156 FFF7FEFF 		bl	HAL_InitTick
 971              	.LVL68:
 449:Drivers/STM32L0xx_HAL_Driver/Src/stm32l0xx_hal_rcc.c ****       {
 972              		.loc 1 449 7 is_stmt 1 view .LVU286
 449:Drivers/STM32L0xx_HAL_Driver/Src/stm32l0xx_hal_rcc.c ****       {
 973              		.loc 1 449 9 is_stmt 0 view .LVU287
 974 015a 0028     		cmp	r0, #0
 975 015c 00D0     		beq	.LCB880
 976 015e EDE1     		b	.L39	@long jump
 977              	.LCB880:
 978              	.LVL69:
 979              	.L51:
 497:Drivers/STM32L0xx_HAL_Driver/Src/stm32l0xx_hal_rcc.c ****   {
 980              		.loc 1 497 3 is_stmt 1 view .LVU288
 497:Drivers/STM32L0xx_HAL_Driver/Src/stm32l0xx_hal_rcc.c ****   {
 981              		.loc 1 497 25 is_stmt 0 view .LVU289
 982 0160 2368     		ldr	r3, [r4]
 497:Drivers/STM32L0xx_HAL_Driver/Src/stm32l0xx_hal_rcc.c ****   {
 983              		.loc 1 497 5 view .LVU290
 984 0162 DB06     		lsls	r3, r3, #27
 985 0164 2DD5     		bpl	.L60
 500:Drivers/STM32L0xx_HAL_Driver/Src/stm32l0xx_hal_rcc.c ****     {
 986              		.loc 1 500 5 is_stmt 1 view .LVU291
 500:Drivers/STM32L0xx_HAL_Driver/Src/stm32l0xx_hal_rcc.c ****     {
 987              		.loc 1 500 7 is_stmt 0 view .LVU292
 988 0166 002D     		cmp	r5, #0
 989 0168 60D1     		bne	.L61
 502:Drivers/STM32L0xx_HAL_Driver/Src/stm32l0xx_hal_rcc.c ****       {
 990              		.loc 1 502 7 is_stmt 1 view .LVU293
 502:Drivers/STM32L0xx_HAL_Driver/Src/stm32l0xx_hal_rcc.c ****       {
 991              		.loc 1 502 11 is_stmt 0 view .LVU294
 992 016a 6A4B     		ldr	r3, .L154
 993 016c 1B68     		ldr	r3, [r3]
 502:Drivers/STM32L0xx_HAL_Driver/Src/stm32l0xx_hal_rcc.c ****       {
 994              		.loc 1 502 9 view .LVU295
ARM GAS  C:\Users\Tilen\AppData\Local\Temp\ccC0CAdr.s 			page 44


 995 016e 9B05     		lsls	r3, r3, #22
 996 0170 03D5     		bpl	.L62
 502:Drivers/STM32L0xx_HAL_Driver/Src/stm32l0xx_hal_rcc.c ****       {
 997              		.loc 1 502 75 discriminator 1 view .LVU296
 998 0172 E369     		ldr	r3, [r4, #28]
 502:Drivers/STM32L0xx_HAL_Driver/Src/stm32l0xx_hal_rcc.c ****       {
 999              		.loc 1 502 54 discriminator 1 view .LVU297
 1000 0174 002B     		cmp	r3, #0
 1001 0176 00D1     		bne	.LCB903
 1002 0178 E6E1     		b	.L110	@long jump
 1003              	.LCB903:
 1004              	.L62:
 510:Drivers/STM32L0xx_HAL_Driver/Src/stm32l0xx_hal_rcc.c ****         assert_param(IS_RCC_MSI_CLOCK_RANGE(RCC_OscInitStruct->MSIClockRange));
 1005              		.loc 1 510 9 is_stmt 1 view .LVU298
 511:Drivers/STM32L0xx_HAL_Driver/Src/stm32l0xx_hal_rcc.c **** 
 1006              		.loc 1 511 9 view .LVU299
 514:Drivers/STM32L0xx_HAL_Driver/Src/stm32l0xx_hal_rcc.c ****         /* Adjusts the Multiple Speed oscillator (MSI) calibration value.*/
 1007              		.loc 1 514 9 view .LVU300
 1008 017a 664A     		ldr	r2, .L154
 1009 017c 5368     		ldr	r3, [r2, #4]
 1010 017e 6C49     		ldr	r1, .L154+28
 1011 0180 0B40     		ands	r3, r1
 1012 0182 616A     		ldr	r1, [r4, #36]
 1013 0184 0B43     		orrs	r3, r1
 1014 0186 5360     		str	r3, [r2, #4]
 516:Drivers/STM32L0xx_HAL_Driver/Src/stm32l0xx_hal_rcc.c **** 
 1015              		.loc 1 516 9 view .LVU301
 1016 0188 5368     		ldr	r3, [r2, #4]
 1017 018a 1B02     		lsls	r3, r3, #8
 1018 018c 1B0A     		lsrs	r3, r3, #8
 1019 018e 216A     		ldr	r1, [r4, #32]
 1020 0190 0906     		lsls	r1, r1, #24
 1021 0192 0B43     		orrs	r3, r1
 1022 0194 5360     		str	r3, [r2, #4]
 520:Drivers/STM32L0xx_HAL_Driver/Src/stm32l0xx_hal_rcc.c ****                            >> AHBPrescTable[((RCC->CFGR & RCC_CFGR_HPRE) >> RCC_CFGR_HPRE_Pos)];
 1023              		.loc 1 520 9 view .LVU302
 520:Drivers/STM32L0xx_HAL_Driver/Src/stm32l0xx_hal_rcc.c ****                            >> AHBPrescTable[((RCC->CFGR & RCC_CFGR_HPRE) >> RCC_CFGR_HPRE_Pos)];
 1024              		.loc 1 520 65 is_stmt 0 view .LVU303
 1025 0196 616A     		ldr	r1, [r4, #36]
 520:Drivers/STM32L0xx_HAL_Driver/Src/stm32l0xx_hal_rcc.c ****                            >> AHBPrescTable[((RCC->CFGR & RCC_CFGR_HPRE) >> RCC_CFGR_HPRE_Pos)];
 1026              		.loc 1 520 81 view .LVU304
 1027 0198 490B     		lsrs	r1, r1, #13
 520:Drivers/STM32L0xx_HAL_Driver/Src/stm32l0xx_hal_rcc.c ****                            >> AHBPrescTable[((RCC->CFGR & RCC_CFGR_HPRE) >> RCC_CFGR_HPRE_Pos)];
 1028              		.loc 1 520 108 view .LVU305
 1029 019a 0131     		adds	r1, r1, #1
 520:Drivers/STM32L0xx_HAL_Driver/Src/stm32l0xx_hal_rcc.c ****                            >> AHBPrescTable[((RCC->CFGR & RCC_CFGR_HPRE) >> RCC_CFGR_HPRE_Pos)];
 1030              		.loc 1 520 36 view .LVU306
 1031 019c 8023     		movs	r3, #128
 1032 019e 1B02     		lsls	r3, r3, #8
 1033 01a0 8B40     		lsls	r3, r3, r1
 521:Drivers/STM32L0xx_HAL_Driver/Src/stm32l0xx_hal_rcc.c **** 
 1034              		.loc 1 521 50 view .LVU307
 1035 01a2 D168     		ldr	r1, [r2, #12]
 521:Drivers/STM32L0xx_HAL_Driver/Src/stm32l0xx_hal_rcc.c **** 
 1036              		.loc 1 521 74 view .LVU308
 1037 01a4 0909     		lsrs	r1, r1, #4
 1038 01a6 0F22     		movs	r2, #15
ARM GAS  C:\Users\Tilen\AppData\Local\Temp\ccC0CAdr.s 			page 45


 1039 01a8 0A40     		ands	r2, r1
 521:Drivers/STM32L0xx_HAL_Driver/Src/stm32l0xx_hal_rcc.c **** 
 1040              		.loc 1 521 44 view .LVU309
 1041 01aa 5E49     		ldr	r1, .L154+16
 1042 01ac 8A5C     		ldrb	r2, [r1, r2]
 521:Drivers/STM32L0xx_HAL_Driver/Src/stm32l0xx_hal_rcc.c **** 
 1043              		.loc 1 521 28 view .LVU310
 1044 01ae D340     		lsrs	r3, r3, r2
 520:Drivers/STM32L0xx_HAL_Driver/Src/stm32l0xx_hal_rcc.c ****                            >> AHBPrescTable[((RCC->CFGR & RCC_CFGR_HPRE) >> RCC_CFGR_HPRE_Pos)];
 1045              		.loc 1 520 25 view .LVU311
 1046 01b0 5D4A     		ldr	r2, .L154+20
 1047 01b2 1360     		str	r3, [r2]
 524:Drivers/STM32L0xx_HAL_Driver/Src/stm32l0xx_hal_rcc.c ****         if(status != HAL_OK)
 1048              		.loc 1 524 9 is_stmt 1 view .LVU312
 524:Drivers/STM32L0xx_HAL_Driver/Src/stm32l0xx_hal_rcc.c ****         if(status != HAL_OK)
 1049              		.loc 1 524 18 is_stmt 0 view .LVU313
 1050 01b4 5D4B     		ldr	r3, .L154+24
 1051 01b6 1868     		ldr	r0, [r3]
 1052 01b8 FFF7FEFF 		bl	HAL_InitTick
 1053              	.LVL70:
 525:Drivers/STM32L0xx_HAL_Driver/Src/stm32l0xx_hal_rcc.c ****         {
 1054              		.loc 1 525 9 is_stmt 1 view .LVU314
 525:Drivers/STM32L0xx_HAL_Driver/Src/stm32l0xx_hal_rcc.c ****         {
 1055              		.loc 1 525 11 is_stmt 0 view .LVU315
 1056 01bc 0028     		cmp	r0, #0
 1057 01be 00D0     		beq	.LCB947
 1058 01c0 BCE1     		b	.L39	@long jump
 1059              	.LCB947:
 1060              	.LVL71:
 1061              	.L60:
 582:Drivers/STM32L0xx_HAL_Driver/Src/stm32l0xx_hal_rcc.c ****   {
 1062              		.loc 1 582 3 is_stmt 1 view .LVU316
 582:Drivers/STM32L0xx_HAL_Driver/Src/stm32l0xx_hal_rcc.c ****   {
 1063              		.loc 1 582 25 is_stmt 0 view .LVU317
 1064 01c2 2368     		ldr	r3, [r4]
 582:Drivers/STM32L0xx_HAL_Driver/Src/stm32l0xx_hal_rcc.c ****   {
 1065              		.loc 1 582 5 view .LVU318
 1066 01c4 1B07     		lsls	r3, r3, #28
 1067 01c6 7DD5     		bpl	.L68
 585:Drivers/STM32L0xx_HAL_Driver/Src/stm32l0xx_hal_rcc.c **** 
 1068              		.loc 1 585 5 is_stmt 1 view .LVU319
 588:Drivers/STM32L0xx_HAL_Driver/Src/stm32l0xx_hal_rcc.c ****     {
 1069              		.loc 1 588 5 view .LVU320
 588:Drivers/STM32L0xx_HAL_Driver/Src/stm32l0xx_hal_rcc.c ****     {
 1070              		.loc 1 588 25 is_stmt 0 view .LVU321
 1071 01c8 6369     		ldr	r3, [r4, #20]
 588:Drivers/STM32L0xx_HAL_Driver/Src/stm32l0xx_hal_rcc.c ****     {
 1072              		.loc 1 588 7 view .LVU322
 1073 01ca 002B     		cmp	r3, #0
 1074 01cc 67D0     		beq	.L69
 591:Drivers/STM32L0xx_HAL_Driver/Src/stm32l0xx_hal_rcc.c **** 
 1075              		.loc 1 591 7 is_stmt 1 view .LVU323
 1076 01ce 514A     		ldr	r2, .L154
 1077 01d0 136D     		ldr	r3, [r2, #80]
 1078 01d2 0121     		movs	r1, #1
 1079 01d4 0B43     		orrs	r3, r1
 1080 01d6 1365     		str	r3, [r2, #80]
ARM GAS  C:\Users\Tilen\AppData\Local\Temp\ccC0CAdr.s 			page 46


 594:Drivers/STM32L0xx_HAL_Driver/Src/stm32l0xx_hal_rcc.c **** 
 1081              		.loc 1 594 7 view .LVU324
 594:Drivers/STM32L0xx_HAL_Driver/Src/stm32l0xx_hal_rcc.c **** 
 1082              		.loc 1 594 19 is_stmt 0 view .LVU325
 1083 01d8 FFF7FEFF 		bl	HAL_GetTick
 1084              	.LVL72:
 1085 01dc 0600     		movs	r6, r0
 1086              	.LVL73:
 597:Drivers/STM32L0xx_HAL_Driver/Src/stm32l0xx_hal_rcc.c ****       {
 1087              		.loc 1 597 7 is_stmt 1 view .LVU326
 1088              	.L70:
 597:Drivers/STM32L0xx_HAL_Driver/Src/stm32l0xx_hal_rcc.c ****       {
 1089              		.loc 1 597 49 view .LVU327
 597:Drivers/STM32L0xx_HAL_Driver/Src/stm32l0xx_hal_rcc.c ****       {
 1090              		.loc 1 597 13 is_stmt 0 view .LVU328
 1091 01de 4D4B     		ldr	r3, .L154
 1092 01e0 1B6D     		ldr	r3, [r3, #80]
 597:Drivers/STM32L0xx_HAL_Driver/Src/stm32l0xx_hal_rcc.c ****       {
 1093              		.loc 1 597 49 view .LVU329
 1094 01e2 9B07     		lsls	r3, r3, #30
 1095 01e4 6ED4     		bmi	.L68
 599:Drivers/STM32L0xx_HAL_Driver/Src/stm32l0xx_hal_rcc.c ****         {
 1096              		.loc 1 599 9 is_stmt 1 view .LVU330
 599:Drivers/STM32L0xx_HAL_Driver/Src/stm32l0xx_hal_rcc.c ****         {
 1097              		.loc 1 599 13 is_stmt 0 view .LVU331
 1098 01e6 FFF7FEFF 		bl	HAL_GetTick
 1099              	.LVL74:
 599:Drivers/STM32L0xx_HAL_Driver/Src/stm32l0xx_hal_rcc.c ****         {
 1100              		.loc 1 599 27 discriminator 1 view .LVU332
 1101 01ea 801B     		subs	r0, r0, r6
 599:Drivers/STM32L0xx_HAL_Driver/Src/stm32l0xx_hal_rcc.c ****         {
 1102              		.loc 1 599 11 discriminator 1 view .LVU333
 1103 01ec 0228     		cmp	r0, #2
 1104 01ee F6D9     		bls	.L70
 601:Drivers/STM32L0xx_HAL_Driver/Src/stm32l0xx_hal_rcc.c ****         }
 1105              		.loc 1 601 18 view .LVU334
 1106 01f0 0320     		movs	r0, #3
 1107 01f2 A3E1     		b	.L39
 1108              	.LVL75:
 1109              	.L144:
 475:Drivers/STM32L0xx_HAL_Driver/Src/stm32l0xx_hal_rcc.c ****       }
 1110              		.loc 1 475 9 is_stmt 1 view .LVU335
 1111 01f4 4749     		ldr	r1, .L154
 1112 01f6 4B68     		ldr	r3, [r1, #4]
 1113 01f8 494A     		ldr	r2, .L154+12
 1114 01fa 1340     		ands	r3, r2
 1115 01fc 2269     		ldr	r2, [r4, #16]
 1116 01fe 1202     		lsls	r2, r2, #8
 1117 0200 1343     		orrs	r3, r2
 1118 0202 4B60     		str	r3, [r1, #4]
 1119 0204 ACE7     		b	.L51
 1120              	.LVL76:
 1121              	.L55:
 480:Drivers/STM32L0xx_HAL_Driver/Src/stm32l0xx_hal_rcc.c **** 
 1122              		.loc 1 480 9 view .LVU336
 1123 0206 434A     		ldr	r2, .L154
 1124 0208 1368     		ldr	r3, [r2]
ARM GAS  C:\Users\Tilen\AppData\Local\Temp\ccC0CAdr.s 			page 47


 1125              	.LVL77:
 480:Drivers/STM32L0xx_HAL_Driver/Src/stm32l0xx_hal_rcc.c **** 
 1126              		.loc 1 480 9 is_stmt 0 view .LVU337
 1127 020a 0121     		movs	r1, #1
 1128 020c 8B43     		bics	r3, r1
 1129 020e 1360     		str	r3, [r2]
 1130              	.LVL78:
 483:Drivers/STM32L0xx_HAL_Driver/Src/stm32l0xx_hal_rcc.c **** 
 1131              		.loc 1 483 9 is_stmt 1 view .LVU338
 483:Drivers/STM32L0xx_HAL_Driver/Src/stm32l0xx_hal_rcc.c **** 
 1132              		.loc 1 483 21 is_stmt 0 view .LVU339
 1133 0210 FFF7FEFF 		bl	HAL_GetTick
 1134              	.LVL79:
 1135 0214 0600     		movs	r6, r0
 1136              	.LVL80:
 486:Drivers/STM32L0xx_HAL_Driver/Src/stm32l0xx_hal_rcc.c ****         {
 1137              		.loc 1 486 9 is_stmt 1 view .LVU340
 1138              	.L58:
 486:Drivers/STM32L0xx_HAL_Driver/Src/stm32l0xx_hal_rcc.c ****         {
 1139              		.loc 1 486 51 view .LVU341
 486:Drivers/STM32L0xx_HAL_Driver/Src/stm32l0xx_hal_rcc.c ****         {
 1140              		.loc 1 486 15 is_stmt 0 view .LVU342
 1141 0216 3F4B     		ldr	r3, .L154
 1142 0218 1B68     		ldr	r3, [r3]
 486:Drivers/STM32L0xx_HAL_Driver/Src/stm32l0xx_hal_rcc.c ****         {
 1143              		.loc 1 486 51 view .LVU343
 1144 021a 5B07     		lsls	r3, r3, #29
 1145 021c A0D5     		bpl	.L51
 488:Drivers/STM32L0xx_HAL_Driver/Src/stm32l0xx_hal_rcc.c ****           {
 1146              		.loc 1 488 11 is_stmt 1 view .LVU344
 488:Drivers/STM32L0xx_HAL_Driver/Src/stm32l0xx_hal_rcc.c ****           {
 1147              		.loc 1 488 15 is_stmt 0 view .LVU345
 1148 021e FFF7FEFF 		bl	HAL_GetTick
 1149              	.LVL81:
 488:Drivers/STM32L0xx_HAL_Driver/Src/stm32l0xx_hal_rcc.c ****           {
 1150              		.loc 1 488 29 discriminator 1 view .LVU346
 1151 0222 801B     		subs	r0, r0, r6
 488:Drivers/STM32L0xx_HAL_Driver/Src/stm32l0xx_hal_rcc.c ****           {
 1152              		.loc 1 488 13 discriminator 1 view .LVU347
 1153 0224 0228     		cmp	r0, #2
 1154 0226 F6D9     		bls	.L58
 490:Drivers/STM32L0xx_HAL_Driver/Src/stm32l0xx_hal_rcc.c ****           }
 1155              		.loc 1 490 20 view .LVU348
 1156 0228 0320     		movs	r0, #3
 1157 022a 87E1     		b	.L39
 1158              	.LVL82:
 1159              	.L61:
 534:Drivers/STM32L0xx_HAL_Driver/Src/stm32l0xx_hal_rcc.c **** 
 1160              		.loc 1 534 7 is_stmt 1 view .LVU349
 537:Drivers/STM32L0xx_HAL_Driver/Src/stm32l0xx_hal_rcc.c ****       {
 1161              		.loc 1 537 7 view .LVU350
 537:Drivers/STM32L0xx_HAL_Driver/Src/stm32l0xx_hal_rcc.c ****       {
 1162              		.loc 1 537 27 is_stmt 0 view .LVU351
 1163 022c E369     		ldr	r3, [r4, #28]
 537:Drivers/STM32L0xx_HAL_Driver/Src/stm32l0xx_hal_rcc.c ****       {
 1164              		.loc 1 537 9 view .LVU352
 1165 022e 002B     		cmp	r3, #0
ARM GAS  C:\Users\Tilen\AppData\Local\Temp\ccC0CAdr.s 			page 48


 1166 0230 22D0     		beq	.L63
 540:Drivers/STM32L0xx_HAL_Driver/Src/stm32l0xx_hal_rcc.c **** 
 1167              		.loc 1 540 9 is_stmt 1 view .LVU353
 1168 0232 384A     		ldr	r2, .L154
 1169 0234 1168     		ldr	r1, [r2]
 1170 0236 8023     		movs	r3, #128
 1171 0238 5B00     		lsls	r3, r3, #1
 1172 023a 0B43     		orrs	r3, r1
 1173 023c 1360     		str	r3, [r2]
 543:Drivers/STM32L0xx_HAL_Driver/Src/stm32l0xx_hal_rcc.c **** 
 1174              		.loc 1 543 9 view .LVU354
 543:Drivers/STM32L0xx_HAL_Driver/Src/stm32l0xx_hal_rcc.c **** 
 1175              		.loc 1 543 21 is_stmt 0 view .LVU355
 1176 023e FFF7FEFF 		bl	HAL_GetTick
 1177              	.LVL83:
 1178 0242 0600     		movs	r6, r0
 1179              	.LVL84:
 546:Drivers/STM32L0xx_HAL_Driver/Src/stm32l0xx_hal_rcc.c ****         {
 1180              		.loc 1 546 9 is_stmt 1 view .LVU356
 1181              	.L64:
 546:Drivers/STM32L0xx_HAL_Driver/Src/stm32l0xx_hal_rcc.c ****         {
 1182              		.loc 1 546 51 view .LVU357
 546:Drivers/STM32L0xx_HAL_Driver/Src/stm32l0xx_hal_rcc.c ****         {
 1183              		.loc 1 546 15 is_stmt 0 view .LVU358
 1184 0244 334B     		ldr	r3, .L154
 1185 0246 1B68     		ldr	r3, [r3]
 546:Drivers/STM32L0xx_HAL_Driver/Src/stm32l0xx_hal_rcc.c ****         {
 1186              		.loc 1 546 51 view .LVU359
 1187 0248 9B05     		lsls	r3, r3, #22
 1188 024a 06D4     		bmi	.L145
 548:Drivers/STM32L0xx_HAL_Driver/Src/stm32l0xx_hal_rcc.c ****           {
 1189              		.loc 1 548 11 is_stmt 1 view .LVU360
 548:Drivers/STM32L0xx_HAL_Driver/Src/stm32l0xx_hal_rcc.c ****           {
 1190              		.loc 1 548 15 is_stmt 0 view .LVU361
 1191 024c FFF7FEFF 		bl	HAL_GetTick
 1192              	.LVL85:
 548:Drivers/STM32L0xx_HAL_Driver/Src/stm32l0xx_hal_rcc.c ****           {
 1193              		.loc 1 548 29 discriminator 1 view .LVU362
 1194 0250 801B     		subs	r0, r0, r6
 548:Drivers/STM32L0xx_HAL_Driver/Src/stm32l0xx_hal_rcc.c ****           {
 1195              		.loc 1 548 13 discriminator 1 view .LVU363
 1196 0252 0228     		cmp	r0, #2
 1197 0254 F6D9     		bls	.L64
 550:Drivers/STM32L0xx_HAL_Driver/Src/stm32l0xx_hal_rcc.c ****           }
 1198              		.loc 1 550 20 view .LVU364
 1199 0256 0320     		movs	r0, #3
 1200 0258 70E1     		b	.L39
 1201              	.L145:
 554:Drivers/STM32L0xx_HAL_Driver/Src/stm32l0xx_hal_rcc.c ****         assert_param(IS_RCC_MSI_CLOCK_RANGE(RCC_OscInitStruct->MSIClockRange));
 1202              		.loc 1 554 9 is_stmt 1 view .LVU365
 555:Drivers/STM32L0xx_HAL_Driver/Src/stm32l0xx_hal_rcc.c **** 
 1203              		.loc 1 555 9 view .LVU366
 558:Drivers/STM32L0xx_HAL_Driver/Src/stm32l0xx_hal_rcc.c ****          /* Adjusts the Multiple Speed oscillator (MSI) calibration value.*/
 1204              		.loc 1 558 9 view .LVU367
 1205 025a 2E4A     		ldr	r2, .L154
 1206 025c 5368     		ldr	r3, [r2, #4]
 1207 025e 3449     		ldr	r1, .L154+28
ARM GAS  C:\Users\Tilen\AppData\Local\Temp\ccC0CAdr.s 			page 49


 1208 0260 0B40     		ands	r3, r1
 1209 0262 616A     		ldr	r1, [r4, #36]
 1210 0264 0B43     		orrs	r3, r1
 1211 0266 5360     		str	r3, [r2, #4]
 560:Drivers/STM32L0xx_HAL_Driver/Src/stm32l0xx_hal_rcc.c ****       }
 1212              		.loc 1 560 9 view .LVU368
 1213 0268 5368     		ldr	r3, [r2, #4]
 1214 026a 1B02     		lsls	r3, r3, #8
 1215 026c 1B0A     		lsrs	r3, r3, #8
 1216 026e 216A     		ldr	r1, [r4, #32]
 1217 0270 0906     		lsls	r1, r1, #24
 1218 0272 0B43     		orrs	r3, r1
 1219 0274 5360     		str	r3, [r2, #4]
 1220 0276 A4E7     		b	.L60
 1221              	.LVL86:
 1222              	.L63:
 565:Drivers/STM32L0xx_HAL_Driver/Src/stm32l0xx_hal_rcc.c **** 
 1223              		.loc 1 565 9 view .LVU369
 1224 0278 264A     		ldr	r2, .L154
 1225 027a 1368     		ldr	r3, [r2]
 1226 027c 2D49     		ldr	r1, .L154+32
 1227 027e 0B40     		ands	r3, r1
 1228 0280 1360     		str	r3, [r2]
 568:Drivers/STM32L0xx_HAL_Driver/Src/stm32l0xx_hal_rcc.c **** 
 1229              		.loc 1 568 9 view .LVU370
 568:Drivers/STM32L0xx_HAL_Driver/Src/stm32l0xx_hal_rcc.c **** 
 1230              		.loc 1 568 21 is_stmt 0 view .LVU371
 1231 0282 FFF7FEFF 		bl	HAL_GetTick
 1232              	.LVL87:
 1233 0286 0600     		movs	r6, r0
 1234              	.LVL88:
 571:Drivers/STM32L0xx_HAL_Driver/Src/stm32l0xx_hal_rcc.c ****         {
 1235              		.loc 1 571 9 is_stmt 1 view .LVU372
 1236              	.L66:
 571:Drivers/STM32L0xx_HAL_Driver/Src/stm32l0xx_hal_rcc.c ****         {
 1237              		.loc 1 571 51 view .LVU373
 571:Drivers/STM32L0xx_HAL_Driver/Src/stm32l0xx_hal_rcc.c ****         {
 1238              		.loc 1 571 15 is_stmt 0 view .LVU374
 1239 0288 224B     		ldr	r3, .L154
 1240 028a 1B68     		ldr	r3, [r3]
 571:Drivers/STM32L0xx_HAL_Driver/Src/stm32l0xx_hal_rcc.c ****         {
 1241              		.loc 1 571 51 view .LVU375
 1242 028c 9B05     		lsls	r3, r3, #22
 1243 028e 98D5     		bpl	.L60
 573:Drivers/STM32L0xx_HAL_Driver/Src/stm32l0xx_hal_rcc.c ****           {
 1244              		.loc 1 573 11 is_stmt 1 view .LVU376
 573:Drivers/STM32L0xx_HAL_Driver/Src/stm32l0xx_hal_rcc.c ****           {
 1245              		.loc 1 573 15 is_stmt 0 view .LVU377
 1246 0290 FFF7FEFF 		bl	HAL_GetTick
 1247              	.LVL89:
 573:Drivers/STM32L0xx_HAL_Driver/Src/stm32l0xx_hal_rcc.c ****           {
 1248              		.loc 1 573 29 discriminator 1 view .LVU378
 1249 0294 801B     		subs	r0, r0, r6
 573:Drivers/STM32L0xx_HAL_Driver/Src/stm32l0xx_hal_rcc.c ****           {
 1250              		.loc 1 573 13 discriminator 1 view .LVU379
 1251 0296 0228     		cmp	r0, #2
 1252 0298 F6D9     		bls	.L66
ARM GAS  C:\Users\Tilen\AppData\Local\Temp\ccC0CAdr.s 			page 50


 575:Drivers/STM32L0xx_HAL_Driver/Src/stm32l0xx_hal_rcc.c ****           }
 1253              		.loc 1 575 20 view .LVU380
 1254 029a 0320     		movs	r0, #3
 1255 029c 4EE1     		b	.L39
 1256              	.LVL90:
 1257              	.L69:
 608:Drivers/STM32L0xx_HAL_Driver/Src/stm32l0xx_hal_rcc.c **** 
 1258              		.loc 1 608 7 is_stmt 1 view .LVU381
 1259 029e 1D4A     		ldr	r2, .L154
 1260 02a0 136D     		ldr	r3, [r2, #80]
 1261 02a2 0121     		movs	r1, #1
 1262 02a4 8B43     		bics	r3, r1
 1263 02a6 1365     		str	r3, [r2, #80]
 611:Drivers/STM32L0xx_HAL_Driver/Src/stm32l0xx_hal_rcc.c **** 
 1264              		.loc 1 611 7 view .LVU382
 611:Drivers/STM32L0xx_HAL_Driver/Src/stm32l0xx_hal_rcc.c **** 
 1265              		.loc 1 611 19 is_stmt 0 view .LVU383
 1266 02a8 FFF7FEFF 		bl	HAL_GetTick
 1267              	.LVL91:
 1268 02ac 0600     		movs	r6, r0
 1269              	.LVL92:
 614:Drivers/STM32L0xx_HAL_Driver/Src/stm32l0xx_hal_rcc.c ****       {
 1270              		.loc 1 614 7 is_stmt 1 view .LVU384
 1271              	.L72:
 614:Drivers/STM32L0xx_HAL_Driver/Src/stm32l0xx_hal_rcc.c ****       {
 1272              		.loc 1 614 49 view .LVU385
 614:Drivers/STM32L0xx_HAL_Driver/Src/stm32l0xx_hal_rcc.c ****       {
 1273              		.loc 1 614 13 is_stmt 0 view .LVU386
 1274 02ae 194B     		ldr	r3, .L154
 1275 02b0 1B6D     		ldr	r3, [r3, #80]
 614:Drivers/STM32L0xx_HAL_Driver/Src/stm32l0xx_hal_rcc.c ****       {
 1276              		.loc 1 614 49 view .LVU387
 1277 02b2 9B07     		lsls	r3, r3, #30
 1278 02b4 06D5     		bpl	.L68
 616:Drivers/STM32L0xx_HAL_Driver/Src/stm32l0xx_hal_rcc.c ****         {
 1279              		.loc 1 616 9 is_stmt 1 view .LVU388
 616:Drivers/STM32L0xx_HAL_Driver/Src/stm32l0xx_hal_rcc.c ****         {
 1280              		.loc 1 616 13 is_stmt 0 view .LVU389
 1281 02b6 FFF7FEFF 		bl	HAL_GetTick
 1282              	.LVL93:
 616:Drivers/STM32L0xx_HAL_Driver/Src/stm32l0xx_hal_rcc.c ****         {
 1283              		.loc 1 616 27 discriminator 1 view .LVU390
 1284 02ba 801B     		subs	r0, r0, r6
 616:Drivers/STM32L0xx_HAL_Driver/Src/stm32l0xx_hal_rcc.c ****         {
 1285              		.loc 1 616 11 discriminator 1 view .LVU391
 1286 02bc 0228     		cmp	r0, #2
 1287 02be F6D9     		bls	.L72
 618:Drivers/STM32L0xx_HAL_Driver/Src/stm32l0xx_hal_rcc.c ****         }
 1288              		.loc 1 618 18 view .LVU392
 1289 02c0 0320     		movs	r0, #3
 1290 02c2 3BE1     		b	.L39
 1291              	.LVL94:
 1292              	.L68:
 624:Drivers/STM32L0xx_HAL_Driver/Src/stm32l0xx_hal_rcc.c ****   {
 1293              		.loc 1 624 3 is_stmt 1 view .LVU393
 624:Drivers/STM32L0xx_HAL_Driver/Src/stm32l0xx_hal_rcc.c ****   {
 1294              		.loc 1 624 25 is_stmt 0 view .LVU394
ARM GAS  C:\Users\Tilen\AppData\Local\Temp\ccC0CAdr.s 			page 51


 1295 02c4 2368     		ldr	r3, [r4]
 624:Drivers/STM32L0xx_HAL_Driver/Src/stm32l0xx_hal_rcc.c ****   {
 1296              		.loc 1 624 5 view .LVU395
 1297 02c6 5B07     		lsls	r3, r3, #29
 1298 02c8 00D4     		bmi	.LCB1185
 1299 02ca 8EE0     		b	.L74	@long jump
 1300              	.LCB1185:
 1301              	.LBB7:
 626:Drivers/STM32L0xx_HAL_Driver/Src/stm32l0xx_hal_rcc.c **** 
 1302              		.loc 1 626 5 is_stmt 1 view .LVU396
 1303              	.LVL95:
 629:Drivers/STM32L0xx_HAL_Driver/Src/stm32l0xx_hal_rcc.c **** 
 1304              		.loc 1 629 5 view .LVU397
 633:Drivers/STM32L0xx_HAL_Driver/Src/stm32l0xx_hal_rcc.c ****     {
 1305              		.loc 1 633 5 view .LVU398
 633:Drivers/STM32L0xx_HAL_Driver/Src/stm32l0xx_hal_rcc.c ****     {
 1306              		.loc 1 633 8 is_stmt 0 view .LVU399
 1307 02cc 114B     		ldr	r3, .L154
 1308 02ce 9B6B     		ldr	r3, [r3, #56]
 633:Drivers/STM32L0xx_HAL_Driver/Src/stm32l0xx_hal_rcc.c ****     {
 1309              		.loc 1 633 7 view .LVU400
 1310 02d0 DB00     		lsls	r3, r3, #3
 1311 02d2 1CD4     		bmi	.L115
 635:Drivers/STM32L0xx_HAL_Driver/Src/stm32l0xx_hal_rcc.c ****       pwrclkchanged = SET;
 1312              		.loc 1 635 7 is_stmt 1 view .LVU401
 1313 02d4 0F4A     		ldr	r2, .L154
 1314 02d6 916B     		ldr	r1, [r2, #56]
 1315 02d8 8023     		movs	r3, #128
 1316 02da 5B05     		lsls	r3, r3, #21
 1317 02dc 0B43     		orrs	r3, r1
 1318 02de 9363     		str	r3, [r2, #56]
 636:Drivers/STM32L0xx_HAL_Driver/Src/stm32l0xx_hal_rcc.c ****     }
 1319              		.loc 1 636 7 view .LVU402
 1320              	.LVL96:
 636:Drivers/STM32L0xx_HAL_Driver/Src/stm32l0xx_hal_rcc.c ****     }
 1321              		.loc 1 636 21 is_stmt 0 view .LVU403
 1322 02e0 0123     		movs	r3, #1
 1323 02e2 1F00     		movs	r7, r3
 1324              	.LVL97:
 1325              	.L75:
 639:Drivers/STM32L0xx_HAL_Driver/Src/stm32l0xx_hal_rcc.c ****     {
 1326              		.loc 1 639 5 is_stmt 1 view .LVU404
 639:Drivers/STM32L0xx_HAL_Driver/Src/stm32l0xx_hal_rcc.c ****     {
 1327              		.loc 1 639 8 is_stmt 0 view .LVU405
 1328 02e4 144B     		ldr	r3, .L154+36
 1329 02e6 1B68     		ldr	r3, [r3]
 639:Drivers/STM32L0xx_HAL_Driver/Src/stm32l0xx_hal_rcc.c ****     {
 1330              		.loc 1 639 7 view .LVU406
 1331 02e8 DB05     		lsls	r3, r3, #23
 1332 02ea 29D5     		bpl	.L146
 1333              	.L76:
 657:Drivers/STM32L0xx_HAL_Driver/Src/stm32l0xx_hal_rcc.c **** 
 1334              		.loc 1 657 5 is_stmt 1 view .LVU407
 657:Drivers/STM32L0xx_HAL_Driver/Src/stm32l0xx_hal_rcc.c **** 
 1335              		.loc 1 657 5 view .LVU408
 1336 02ec A368     		ldr	r3, [r4, #8]
 1337 02ee 8022     		movs	r2, #128
ARM GAS  C:\Users\Tilen\AppData\Local\Temp\ccC0CAdr.s 			page 52


 1338 02f0 5200     		lsls	r2, r2, #1
 1339 02f2 9342     		cmp	r3, r2
 1340 02f4 38D0     		beq	.L147
 657:Drivers/STM32L0xx_HAL_Driver/Src/stm32l0xx_hal_rcc.c **** 
 1341              		.loc 1 657 5 discriminator 2 view .LVU409
 1342 02f6 002B     		cmp	r3, #0
 1343 02f8 4CD1     		bne	.L81
 657:Drivers/STM32L0xx_HAL_Driver/Src/stm32l0xx_hal_rcc.c **** 
 1344              		.loc 1 657 5 discriminator 3 view .LVU410
 1345 02fa 064B     		ldr	r3, .L154
 1346 02fc 1A6D     		ldr	r2, [r3, #80]
 1347 02fe 0D49     		ldr	r1, .L154+32
 1348 0300 0A40     		ands	r2, r1
 1349 0302 1A65     		str	r2, [r3, #80]
 657:Drivers/STM32L0xx_HAL_Driver/Src/stm32l0xx_hal_rcc.c **** 
 1350              		.loc 1 657 5 view .LVU411
 657:Drivers/STM32L0xx_HAL_Driver/Src/stm32l0xx_hal_rcc.c **** 
 1351              		.loc 1 657 5 is_stmt 0 discriminator 3 view .LVU412
 1352 0304 1A6D     		ldr	r2, [r3, #80]
 1353 0306 0D49     		ldr	r1, .L154+40
 1354 0308 0A40     		ands	r2, r1
 1355 030a 1A65     		str	r2, [r3, #80]
 1356 030c 30E0     		b	.L80
 1357              	.LVL98:
 1358              	.L115:
 626:Drivers/STM32L0xx_HAL_Driver/Src/stm32l0xx_hal_rcc.c **** 
 1359              		.loc 1 626 22 view .LVU413
 1360 030e 0023     		movs	r3, #0
 1361 0310 1F00     		movs	r7, r3
 1362              	.LVL99:
 626:Drivers/STM32L0xx_HAL_Driver/Src/stm32l0xx_hal_rcc.c **** 
 1363              		.loc 1 626 22 view .LVU414
 1364 0312 E7E7     		b	.L75
 1365              	.L155:
 1366              		.align	2
 1367              	.L154:
 1368 0314 00100240 		.word	1073876992
 1369 0318 FFFFFEFF 		.word	-65537
 1370 031c FFFFFBFF 		.word	-262145
 1371 0320 FFE0FFFF 		.word	-7937
 1372 0324 00000000 		.word	AHBPrescTable
 1373 0328 00000000 		.word	SystemCoreClock
 1374 032c 00000000 		.word	uwTickPrio
 1375 0330 FF1FFFFF 		.word	-57345
 1376 0334 FFFEFFFF 		.word	-257
 1377 0338 00700040 		.word	1073770496
 1378 033c FFFBFFFF 		.word	-1025
 1379              	.LVL100:
 1380              	.L146:
 642:Drivers/STM32L0xx_HAL_Driver/Src/stm32l0xx_hal_rcc.c **** 
 1381              		.loc 1 642 7 is_stmt 1 view .LVU415
 1382 0340 874A     		ldr	r2, .L156
 1383 0342 1168     		ldr	r1, [r2]
 1384 0344 8023     		movs	r3, #128
 1385 0346 5B00     		lsls	r3, r3, #1
 1386 0348 0B43     		orrs	r3, r1
 1387 034a 1360     		str	r3, [r2]
ARM GAS  C:\Users\Tilen\AppData\Local\Temp\ccC0CAdr.s 			page 53


 645:Drivers/STM32L0xx_HAL_Driver/Src/stm32l0xx_hal_rcc.c **** 
 1388              		.loc 1 645 7 view .LVU416
 645:Drivers/STM32L0xx_HAL_Driver/Src/stm32l0xx_hal_rcc.c **** 
 1389              		.loc 1 645 19 is_stmt 0 view .LVU417
 1390 034c FFF7FEFF 		bl	HAL_GetTick
 1391              	.LVL101:
 1392 0350 0600     		movs	r6, r0
 1393              	.LVL102:
 647:Drivers/STM32L0xx_HAL_Driver/Src/stm32l0xx_hal_rcc.c ****       {
 1394              		.loc 1 647 7 is_stmt 1 view .LVU418
 1395              	.L77:
 647:Drivers/STM32L0xx_HAL_Driver/Src/stm32l0xx_hal_rcc.c ****       {
 1396              		.loc 1 647 13 view .LVU419
 1397 0352 834B     		ldr	r3, .L156
 1398 0354 1B68     		ldr	r3, [r3]
 1399 0356 DB05     		lsls	r3, r3, #23
 1400 0358 C8D4     		bmi	.L76
 649:Drivers/STM32L0xx_HAL_Driver/Src/stm32l0xx_hal_rcc.c ****         {
 1401              		.loc 1 649 9 view .LVU420
 649:Drivers/STM32L0xx_HAL_Driver/Src/stm32l0xx_hal_rcc.c ****         {
 1402              		.loc 1 649 13 is_stmt 0 view .LVU421
 1403 035a FFF7FEFF 		bl	HAL_GetTick
 1404              	.LVL103:
 649:Drivers/STM32L0xx_HAL_Driver/Src/stm32l0xx_hal_rcc.c ****         {
 1405              		.loc 1 649 27 discriminator 1 view .LVU422
 1406 035e 801B     		subs	r0, r0, r6
 649:Drivers/STM32L0xx_HAL_Driver/Src/stm32l0xx_hal_rcc.c ****         {
 1407              		.loc 1 649 11 discriminator 1 view .LVU423
 1408 0360 6428     		cmp	r0, #100
 1409 0362 F6D9     		bls	.L77
 651:Drivers/STM32L0xx_HAL_Driver/Src/stm32l0xx_hal_rcc.c ****         }
 1410              		.loc 1 651 18 view .LVU424
 1411 0364 0320     		movs	r0, #3
 1412 0366 E9E0     		b	.L39
 1413              	.LVL104:
 1414              	.L147:
 657:Drivers/STM32L0xx_HAL_Driver/Src/stm32l0xx_hal_rcc.c **** 
 1415              		.loc 1 657 5 is_stmt 1 discriminator 1 view .LVU425
 1416 0368 7E4A     		ldr	r2, .L156+4
 1417 036a 116D     		ldr	r1, [r2, #80]
 1418 036c 0B43     		orrs	r3, r1
 1419 036e 1365     		str	r3, [r2, #80]
 1420              	.L80:
 657:Drivers/STM32L0xx_HAL_Driver/Src/stm32l0xx_hal_rcc.c **** 
 1421              		.loc 1 657 5 view .LVU426
 660:Drivers/STM32L0xx_HAL_Driver/Src/stm32l0xx_hal_rcc.c ****     {
 1422              		.loc 1 660 5 view .LVU427
 660:Drivers/STM32L0xx_HAL_Driver/Src/stm32l0xx_hal_rcc.c ****     {
 1423              		.loc 1 660 25 is_stmt 0 view .LVU428
 1424 0370 A368     		ldr	r3, [r4, #8]
 660:Drivers/STM32L0xx_HAL_Driver/Src/stm32l0xx_hal_rcc.c ****     {
 1425              		.loc 1 660 7 view .LVU429
 1426 0372 002B     		cmp	r3, #0
 1427 0374 28D0     		beq	.L83
 663:Drivers/STM32L0xx_HAL_Driver/Src/stm32l0xx_hal_rcc.c **** 
 1428              		.loc 1 663 7 is_stmt 1 view .LVU430
 663:Drivers/STM32L0xx_HAL_Driver/Src/stm32l0xx_hal_rcc.c **** 
ARM GAS  C:\Users\Tilen\AppData\Local\Temp\ccC0CAdr.s 			page 54


 1429              		.loc 1 663 19 is_stmt 0 view .LVU431
 1430 0376 FFF7FEFF 		bl	HAL_GetTick
 1431              	.LVL105:
 1432 037a 0600     		movs	r6, r0
 1433              	.LVL106:
 666:Drivers/STM32L0xx_HAL_Driver/Src/stm32l0xx_hal_rcc.c ****       {
 1434              		.loc 1 666 7 is_stmt 1 view .LVU432
 1435              	.L84:
 666:Drivers/STM32L0xx_HAL_Driver/Src/stm32l0xx_hal_rcc.c ****       {
 1436              		.loc 1 666 49 view .LVU433
 666:Drivers/STM32L0xx_HAL_Driver/Src/stm32l0xx_hal_rcc.c ****       {
 1437              		.loc 1 666 13 is_stmt 0 view .LVU434
 1438 037c 794B     		ldr	r3, .L156+4
 1439 037e 1B6D     		ldr	r3, [r3, #80]
 666:Drivers/STM32L0xx_HAL_Driver/Src/stm32l0xx_hal_rcc.c ****       {
 1440              		.loc 1 666 49 view .LVU435
 1441 0380 9B05     		lsls	r3, r3, #22
 1442 0382 30D4     		bmi	.L86
 668:Drivers/STM32L0xx_HAL_Driver/Src/stm32l0xx_hal_rcc.c ****         {
 1443              		.loc 1 668 9 is_stmt 1 view .LVU436
 668:Drivers/STM32L0xx_HAL_Driver/Src/stm32l0xx_hal_rcc.c ****         {
 1444              		.loc 1 668 13 is_stmt 0 view .LVU437
 1445 0384 FFF7FEFF 		bl	HAL_GetTick
 1446              	.LVL107:
 668:Drivers/STM32L0xx_HAL_Driver/Src/stm32l0xx_hal_rcc.c ****         {
 1447              		.loc 1 668 27 discriminator 1 view .LVU438
 1448 0388 801B     		subs	r0, r0, r6
 668:Drivers/STM32L0xx_HAL_Driver/Src/stm32l0xx_hal_rcc.c ****         {
 1449              		.loc 1 668 11 discriminator 1 view .LVU439
 1450 038a 774B     		ldr	r3, .L156+8
 1451 038c 9842     		cmp	r0, r3
 1452 038e F5D9     		bls	.L84
 670:Drivers/STM32L0xx_HAL_Driver/Src/stm32l0xx_hal_rcc.c ****         }
 1453              		.loc 1 670 18 view .LVU440
 1454 0390 0320     		movs	r0, #3
 1455 0392 D3E0     		b	.L39
 1456              	.LVL108:
 1457              	.L81:
 657:Drivers/STM32L0xx_HAL_Driver/Src/stm32l0xx_hal_rcc.c **** 
 1458              		.loc 1 657 5 is_stmt 1 discriminator 4 view .LVU441
 1459 0394 A022     		movs	r2, #160
 1460 0396 D200     		lsls	r2, r2, #3
 1461 0398 9342     		cmp	r3, r2
 1462 039a 09D0     		beq	.L148
 657:Drivers/STM32L0xx_HAL_Driver/Src/stm32l0xx_hal_rcc.c **** 
 1463              		.loc 1 657 5 discriminator 6 view .LVU442
 1464 039c 714B     		ldr	r3, .L156+4
 1465 039e 1A6D     		ldr	r2, [r3, #80]
 1466 03a0 7249     		ldr	r1, .L156+12
 1467 03a2 0A40     		ands	r2, r1
 1468 03a4 1A65     		str	r2, [r3, #80]
 657:Drivers/STM32L0xx_HAL_Driver/Src/stm32l0xx_hal_rcc.c **** 
 1469              		.loc 1 657 5 view .LVU443
 657:Drivers/STM32L0xx_HAL_Driver/Src/stm32l0xx_hal_rcc.c **** 
 1470              		.loc 1 657 5 is_stmt 0 discriminator 6 view .LVU444
 1471 03a6 1A6D     		ldr	r2, [r3, #80]
 1472 03a8 7149     		ldr	r1, .L156+16
ARM GAS  C:\Users\Tilen\AppData\Local\Temp\ccC0CAdr.s 			page 55


 1473 03aa 0A40     		ands	r2, r1
 1474 03ac 1A65     		str	r2, [r3, #80]
 1475 03ae DFE7     		b	.L80
 1476              	.L148:
 657:Drivers/STM32L0xx_HAL_Driver/Src/stm32l0xx_hal_rcc.c **** 
 1477              		.loc 1 657 5 is_stmt 1 discriminator 5 view .LVU445
 1478 03b0 6C4B     		ldr	r3, .L156+4
 1479 03b2 196D     		ldr	r1, [r3, #80]
 1480 03b4 013A     		subs	r2, r2, #1
 1481 03b6 FF3A     		subs	r2, r2, #255
 1482 03b8 0A43     		orrs	r2, r1
 1483 03ba 1A65     		str	r2, [r3, #80]
 657:Drivers/STM32L0xx_HAL_Driver/Src/stm32l0xx_hal_rcc.c **** 
 1484              		.loc 1 657 5 view .LVU446
 657:Drivers/STM32L0xx_HAL_Driver/Src/stm32l0xx_hal_rcc.c **** 
 1485              		.loc 1 657 5 is_stmt 0 discriminator 5 view .LVU447
 1486 03bc 196D     		ldr	r1, [r3, #80]
 1487 03be 8022     		movs	r2, #128
 1488 03c0 5200     		lsls	r2, r2, #1
 1489 03c2 0A43     		orrs	r2, r1
 1490 03c4 1A65     		str	r2, [r3, #80]
 1491 03c6 D3E7     		b	.L80
 1492              	.L83:
 677:Drivers/STM32L0xx_HAL_Driver/Src/stm32l0xx_hal_rcc.c **** 
 1493              		.loc 1 677 7 is_stmt 1 view .LVU448
 677:Drivers/STM32L0xx_HAL_Driver/Src/stm32l0xx_hal_rcc.c **** 
 1494              		.loc 1 677 19 is_stmt 0 view .LVU449
 1495 03c8 FFF7FEFF 		bl	HAL_GetTick
 1496              	.LVL109:
 1497 03cc 0600     		movs	r6, r0
 1498              	.LVL110:
 680:Drivers/STM32L0xx_HAL_Driver/Src/stm32l0xx_hal_rcc.c ****       {
 1499              		.loc 1 680 7 is_stmt 1 view .LVU450
 1500              	.L87:
 680:Drivers/STM32L0xx_HAL_Driver/Src/stm32l0xx_hal_rcc.c ****       {
 1501              		.loc 1 680 49 view .LVU451
 680:Drivers/STM32L0xx_HAL_Driver/Src/stm32l0xx_hal_rcc.c ****       {
 1502              		.loc 1 680 13 is_stmt 0 view .LVU452
 1503 03ce 654B     		ldr	r3, .L156+4
 1504 03d0 1B6D     		ldr	r3, [r3, #80]
 680:Drivers/STM32L0xx_HAL_Driver/Src/stm32l0xx_hal_rcc.c ****       {
 1505              		.loc 1 680 49 view .LVU453
 1506 03d2 9B05     		lsls	r3, r3, #22
 1507 03d4 07D5     		bpl	.L86
 682:Drivers/STM32L0xx_HAL_Driver/Src/stm32l0xx_hal_rcc.c ****         {
 1508              		.loc 1 682 9 is_stmt 1 view .LVU454
 682:Drivers/STM32L0xx_HAL_Driver/Src/stm32l0xx_hal_rcc.c ****         {
 1509              		.loc 1 682 13 is_stmt 0 view .LVU455
 1510 03d6 FFF7FEFF 		bl	HAL_GetTick
 1511              	.LVL111:
 682:Drivers/STM32L0xx_HAL_Driver/Src/stm32l0xx_hal_rcc.c ****         {
 1512              		.loc 1 682 27 discriminator 1 view .LVU456
 1513 03da 801B     		subs	r0, r0, r6
 682:Drivers/STM32L0xx_HAL_Driver/Src/stm32l0xx_hal_rcc.c ****         {
 1514              		.loc 1 682 11 discriminator 1 view .LVU457
 1515 03dc 624B     		ldr	r3, .L156+8
 1516 03de 9842     		cmp	r0, r3
ARM GAS  C:\Users\Tilen\AppData\Local\Temp\ccC0CAdr.s 			page 56


 1517 03e0 F5D9     		bls	.L87
 684:Drivers/STM32L0xx_HAL_Driver/Src/stm32l0xx_hal_rcc.c ****         }
 1518              		.loc 1 684 18 view .LVU458
 1519 03e2 0320     		movs	r0, #3
 1520 03e4 AAE0     		b	.L39
 1521              	.L86:
 690:Drivers/STM32L0xx_HAL_Driver/Src/stm32l0xx_hal_rcc.c ****     {
 1522              		.loc 1 690 5 is_stmt 1 view .LVU459
 690:Drivers/STM32L0xx_HAL_Driver/Src/stm32l0xx_hal_rcc.c ****     {
 1523              		.loc 1 690 7 is_stmt 0 view .LVU460
 1524 03e6 012F     		cmp	r7, #1
 1525 03e8 21D0     		beq	.L149
 1526              	.LVL112:
 1527              	.L74:
 690:Drivers/STM32L0xx_HAL_Driver/Src/stm32l0xx_hal_rcc.c ****     {
 1528              		.loc 1 690 7 view .LVU461
 1529              	.LBE7:
 698:Drivers/STM32L0xx_HAL_Driver/Src/stm32l0xx_hal_rcc.c ****   {
 1530              		.loc 1 698 3 is_stmt 1 view .LVU462
 698:Drivers/STM32L0xx_HAL_Driver/Src/stm32l0xx_hal_rcc.c ****   {
 1531              		.loc 1 698 25 is_stmt 0 view .LVU463
 1532 03ea 2368     		ldr	r3, [r4]
 698:Drivers/STM32L0xx_HAL_Driver/Src/stm32l0xx_hal_rcc.c ****   {
 1533              		.loc 1 698 5 view .LVU464
 1534 03ec 9B06     		lsls	r3, r3, #26
 1535 03ee 3CD5     		bpl	.L89
 701:Drivers/STM32L0xx_HAL_Driver/Src/stm32l0xx_hal_rcc.c **** 
 1536              		.loc 1 701 5 is_stmt 1 view .LVU465
 704:Drivers/STM32L0xx_HAL_Driver/Src/stm32l0xx_hal_rcc.c ****       {
 1537              		.loc 1 704 7 view .LVU466
 704:Drivers/STM32L0xx_HAL_Driver/Src/stm32l0xx_hal_rcc.c ****       {
 1538              		.loc 1 704 27 is_stmt 0 view .LVU467
 1539 03f0 A369     		ldr	r3, [r4, #24]
 704:Drivers/STM32L0xx_HAL_Driver/Src/stm32l0xx_hal_rcc.c ****       {
 1540              		.loc 1 704 9 view .LVU468
 1541 03f2 002B     		cmp	r3, #0
 1542 03f4 21D0     		beq	.L90
 707:Drivers/STM32L0xx_HAL_Driver/Src/stm32l0xx_hal_rcc.c **** 
 1543              		.loc 1 707 9 is_stmt 1 view .LVU469
 707:Drivers/STM32L0xx_HAL_Driver/Src/stm32l0xx_hal_rcc.c **** 
 1544              		.loc 1 707 9 view .LVU470
 1545 03f6 5B4B     		ldr	r3, .L156+4
 1546 03f8 9A68     		ldr	r2, [r3, #8]
 1547 03fa 0121     		movs	r1, #1
 1548 03fc 0A43     		orrs	r2, r1
 1549 03fe 9A60     		str	r2, [r3, #8]
 707:Drivers/STM32L0xx_HAL_Driver/Src/stm32l0xx_hal_rcc.c **** 
 1550              		.loc 1 707 9 view .LVU471
 1551 0400 5A6B     		ldr	r2, [r3, #52]
 1552 0402 0A43     		orrs	r2, r1
 1553 0404 5A63     		str	r2, [r3, #52]
 707:Drivers/STM32L0xx_HAL_Driver/Src/stm32l0xx_hal_rcc.c **** 
 1554              		.loc 1 707 9 view .LVU472
 1555 0406 5B4A     		ldr	r2, .L156+20
 1556 0408 116A     		ldr	r1, [r2, #32]
 1557 040a 8023     		movs	r3, #128
 1558 040c 9B01     		lsls	r3, r3, #6
ARM GAS  C:\Users\Tilen\AppData\Local\Temp\ccC0CAdr.s 			page 57


 1559 040e 0B43     		orrs	r3, r1
 1560 0410 1362     		str	r3, [r2, #32]
 707:Drivers/STM32L0xx_HAL_Driver/Src/stm32l0xx_hal_rcc.c **** 
 1561              		.loc 1 707 9 view .LVU473
 710:Drivers/STM32L0xx_HAL_Driver/Src/stm32l0xx_hal_rcc.c **** 
 1562              		.loc 1 710 9 view .LVU474
 710:Drivers/STM32L0xx_HAL_Driver/Src/stm32l0xx_hal_rcc.c **** 
 1563              		.loc 1 710 21 is_stmt 0 view .LVU475
 1564 0412 FFF7FEFF 		bl	HAL_GetTick
 1565              	.LVL113:
 1566 0416 0600     		movs	r6, r0
 1567              	.LVL114:
 713:Drivers/STM32L0xx_HAL_Driver/Src/stm32l0xx_hal_rcc.c ****         {
 1568              		.loc 1 713 9 is_stmt 1 view .LVU476
 1569              	.L91:
 713:Drivers/STM32L0xx_HAL_Driver/Src/stm32l0xx_hal_rcc.c ****         {
 1570              		.loc 1 713 53 view .LVU477
 713:Drivers/STM32L0xx_HAL_Driver/Src/stm32l0xx_hal_rcc.c ****         {
 1571              		.loc 1 713 15 is_stmt 0 view .LVU478
 1572 0418 524B     		ldr	r3, .L156+4
 1573 041a 9B68     		ldr	r3, [r3, #8]
 713:Drivers/STM32L0xx_HAL_Driver/Src/stm32l0xx_hal_rcc.c ****         {
 1574              		.loc 1 713 53 view .LVU479
 1575 041c 9B07     		lsls	r3, r3, #30
 1576 041e 24D4     		bmi	.L89
 715:Drivers/STM32L0xx_HAL_Driver/Src/stm32l0xx_hal_rcc.c ****           {
 1577              		.loc 1 715 11 is_stmt 1 view .LVU480
 715:Drivers/STM32L0xx_HAL_Driver/Src/stm32l0xx_hal_rcc.c ****           {
 1578              		.loc 1 715 15 is_stmt 0 view .LVU481
 1579 0420 FFF7FEFF 		bl	HAL_GetTick
 1580              	.LVL115:
 715:Drivers/STM32L0xx_HAL_Driver/Src/stm32l0xx_hal_rcc.c ****           {
 1581              		.loc 1 715 29 discriminator 1 view .LVU482
 1582 0424 801B     		subs	r0, r0, r6
 715:Drivers/STM32L0xx_HAL_Driver/Src/stm32l0xx_hal_rcc.c ****           {
 1583              		.loc 1 715 13 discriminator 1 view .LVU483
 1584 0426 0228     		cmp	r0, #2
 1585 0428 F6D9     		bls	.L91
 717:Drivers/STM32L0xx_HAL_Driver/Src/stm32l0xx_hal_rcc.c ****           }
 1586              		.loc 1 717 20 view .LVU484
 1587 042a 0320     		movs	r0, #3
 1588 042c 86E0     		b	.L39
 1589              	.LVL116:
 1590              	.L149:
 1591              	.LBB8:
 692:Drivers/STM32L0xx_HAL_Driver/Src/stm32l0xx_hal_rcc.c ****     }
 1592              		.loc 1 692 7 is_stmt 1 view .LVU485
 1593 042e 4D4A     		ldr	r2, .L156+4
 1594 0430 936B     		ldr	r3, [r2, #56]
 1595 0432 5149     		ldr	r1, .L156+24
 1596 0434 0B40     		ands	r3, r1
 1597 0436 9363     		str	r3, [r2, #56]
 1598 0438 D7E7     		b	.L74
 1599              	.LVL117:
 1600              	.L90:
 692:Drivers/STM32L0xx_HAL_Driver/Src/stm32l0xx_hal_rcc.c ****     }
 1601              		.loc 1 692 7 is_stmt 0 view .LVU486
ARM GAS  C:\Users\Tilen\AppData\Local\Temp\ccC0CAdr.s 			page 58


 1602              	.LBE8:
 724:Drivers/STM32L0xx_HAL_Driver/Src/stm32l0xx_hal_rcc.c **** 
 1603              		.loc 1 724 9 is_stmt 1 view .LVU487
 724:Drivers/STM32L0xx_HAL_Driver/Src/stm32l0xx_hal_rcc.c **** 
 1604              		.loc 1 724 9 view .LVU488
 1605 043a 4A4A     		ldr	r2, .L156+4
 1606 043c 9368     		ldr	r3, [r2, #8]
 1607 043e 0121     		movs	r1, #1
 1608 0440 8B43     		bics	r3, r1
 1609 0442 9360     		str	r3, [r2, #8]
 724:Drivers/STM32L0xx_HAL_Driver/Src/stm32l0xx_hal_rcc.c **** 
 1610              		.loc 1 724 9 view .LVU489
 1611 0444 4B4A     		ldr	r2, .L156+20
 1612 0446 136A     		ldr	r3, [r2, #32]
 1613 0448 4C49     		ldr	r1, .L156+28
 1614 044a 0B40     		ands	r3, r1
 1615 044c 1362     		str	r3, [r2, #32]
 724:Drivers/STM32L0xx_HAL_Driver/Src/stm32l0xx_hal_rcc.c **** 
 1616              		.loc 1 724 9 view .LVU490
 727:Drivers/STM32L0xx_HAL_Driver/Src/stm32l0xx_hal_rcc.c **** 
 1617              		.loc 1 727 9 view .LVU491
 727:Drivers/STM32L0xx_HAL_Driver/Src/stm32l0xx_hal_rcc.c **** 
 1618              		.loc 1 727 21 is_stmt 0 view .LVU492
 1619 044e FFF7FEFF 		bl	HAL_GetTick
 1620              	.LVL118:
 1621 0452 0600     		movs	r6, r0
 1622              	.LVL119:
 730:Drivers/STM32L0xx_HAL_Driver/Src/stm32l0xx_hal_rcc.c ****         {
 1623              		.loc 1 730 9 is_stmt 1 view .LVU493
 1624              	.L93:
 730:Drivers/STM32L0xx_HAL_Driver/Src/stm32l0xx_hal_rcc.c ****         {
 1625              		.loc 1 730 53 view .LVU494
 730:Drivers/STM32L0xx_HAL_Driver/Src/stm32l0xx_hal_rcc.c ****         {
 1626              		.loc 1 730 15 is_stmt 0 view .LVU495
 1627 0454 434B     		ldr	r3, .L156+4
 1628 0456 9B68     		ldr	r3, [r3, #8]
 730:Drivers/STM32L0xx_HAL_Driver/Src/stm32l0xx_hal_rcc.c ****         {
 1629              		.loc 1 730 53 view .LVU496
 1630 0458 9B07     		lsls	r3, r3, #30
 1631 045a 06D5     		bpl	.L89
 732:Drivers/STM32L0xx_HAL_Driver/Src/stm32l0xx_hal_rcc.c ****           {
 1632              		.loc 1 732 11 is_stmt 1 view .LVU497
 732:Drivers/STM32L0xx_HAL_Driver/Src/stm32l0xx_hal_rcc.c ****           {
 1633              		.loc 1 732 15 is_stmt 0 view .LVU498
 1634 045c FFF7FEFF 		bl	HAL_GetTick
 1635              	.LVL120:
 732:Drivers/STM32L0xx_HAL_Driver/Src/stm32l0xx_hal_rcc.c ****           {
 1636              		.loc 1 732 29 discriminator 1 view .LVU499
 1637 0460 801B     		subs	r0, r0, r6
 732:Drivers/STM32L0xx_HAL_Driver/Src/stm32l0xx_hal_rcc.c ****           {
 1638              		.loc 1 732 13 discriminator 1 view .LVU500
 1639 0462 0228     		cmp	r0, #2
 1640 0464 F6D9     		bls	.L93
 734:Drivers/STM32L0xx_HAL_Driver/Src/stm32l0xx_hal_rcc.c ****           }
 1641              		.loc 1 734 20 view .LVU501
 1642 0466 0320     		movs	r0, #3
 1643 0468 68E0     		b	.L39
ARM GAS  C:\Users\Tilen\AppData\Local\Temp\ccC0CAdr.s 			page 59


 1644              	.LVL121:
 1645              	.L89:
 743:Drivers/STM32L0xx_HAL_Driver/Src/stm32l0xx_hal_rcc.c ****   if ((RCC_OscInitStruct->PLL.PLLState) != RCC_PLL_NONE)
 1646              		.loc 1 743 3 is_stmt 1 view .LVU502
 744:Drivers/STM32L0xx_HAL_Driver/Src/stm32l0xx_hal_rcc.c ****   {
 1647              		.loc 1 744 3 view .LVU503
 744:Drivers/STM32L0xx_HAL_Driver/Src/stm32l0xx_hal_rcc.c ****   {
 1648              		.loc 1 744 30 is_stmt 0 view .LVU504
 1649 046a A36A     		ldr	r3, [r4, #40]
 744:Drivers/STM32L0xx_HAL_Driver/Src/stm32l0xx_hal_rcc.c ****   {
 1650              		.loc 1 744 6 view .LVU505
 1651 046c 002B     		cmp	r3, #0
 1652 046e 00D1     		bne	.LCB1542
 1653 0470 6CE0     		b	.L121	@long jump
 1654              	.LCB1542:
 747:Drivers/STM32L0xx_HAL_Driver/Src/stm32l0xx_hal_rcc.c ****     {
 1655              		.loc 1 747 5 is_stmt 1 view .LVU506
 747:Drivers/STM32L0xx_HAL_Driver/Src/stm32l0xx_hal_rcc.c ****     {
 1656              		.loc 1 747 7 is_stmt 0 view .LVU507
 1657 0472 0C2D     		cmp	r5, #12
 1658 0474 49D0     		beq	.L95
 749:Drivers/STM32L0xx_HAL_Driver/Src/stm32l0xx_hal_rcc.c ****       {
 1659              		.loc 1 749 7 is_stmt 1 view .LVU508
 749:Drivers/STM32L0xx_HAL_Driver/Src/stm32l0xx_hal_rcc.c ****       {
 1660              		.loc 1 749 9 is_stmt 0 view .LVU509
 1661 0476 022B     		cmp	r3, #2
 1662 0478 12D0     		beq	.L150
 793:Drivers/STM32L0xx_HAL_Driver/Src/stm32l0xx_hal_rcc.c **** 
 1663              		.loc 1 793 9 is_stmt 1 view .LVU510
 1664 047a 3A4A     		ldr	r2, .L156+4
 1665 047c 1368     		ldr	r3, [r2]
 1666 047e 4049     		ldr	r1, .L156+32
 1667 0480 0B40     		ands	r3, r1
 1668 0482 1360     		str	r3, [r2]
 796:Drivers/STM32L0xx_HAL_Driver/Src/stm32l0xx_hal_rcc.c **** 
 1669              		.loc 1 796 9 view .LVU511
 796:Drivers/STM32L0xx_HAL_Driver/Src/stm32l0xx_hal_rcc.c **** 
 1670              		.loc 1 796 21 is_stmt 0 view .LVU512
 1671 0484 FFF7FEFF 		bl	HAL_GetTick
 1672              	.LVL122:
 1673 0488 0400     		movs	r4, r0
 1674              	.LVL123:
 799:Drivers/STM32L0xx_HAL_Driver/Src/stm32l0xx_hal_rcc.c ****         {
 1675              		.loc 1 799 9 is_stmt 1 view .LVU513
 1676              	.L101:
 799:Drivers/STM32L0xx_HAL_Driver/Src/stm32l0xx_hal_rcc.c ****         {
 1677              		.loc 1 799 52 view .LVU514
 799:Drivers/STM32L0xx_HAL_Driver/Src/stm32l0xx_hal_rcc.c ****         {
 1678              		.loc 1 799 15 is_stmt 0 view .LVU515
 1679 048a 364B     		ldr	r3, .L156+4
 1680 048c 1B68     		ldr	r3, [r3]
 799:Drivers/STM32L0xx_HAL_Driver/Src/stm32l0xx_hal_rcc.c ****         {
 1681              		.loc 1 799 52 view .LVU516
 1682 048e 9B01     		lsls	r3, r3, #6
 1683 0490 39D5     		bpl	.L151
 801:Drivers/STM32L0xx_HAL_Driver/Src/stm32l0xx_hal_rcc.c ****           {
 1684              		.loc 1 801 11 is_stmt 1 view .LVU517
ARM GAS  C:\Users\Tilen\AppData\Local\Temp\ccC0CAdr.s 			page 60


 801:Drivers/STM32L0xx_HAL_Driver/Src/stm32l0xx_hal_rcc.c ****           {
 1685              		.loc 1 801 15 is_stmt 0 view .LVU518
 1686 0492 FFF7FEFF 		bl	HAL_GetTick
 1687              	.LVL124:
 801:Drivers/STM32L0xx_HAL_Driver/Src/stm32l0xx_hal_rcc.c ****           {
 1688              		.loc 1 801 29 discriminator 1 view .LVU519
 1689 0496 001B     		subs	r0, r0, r4
 801:Drivers/STM32L0xx_HAL_Driver/Src/stm32l0xx_hal_rcc.c ****           {
 1690              		.loc 1 801 13 discriminator 1 view .LVU520
 1691 0498 0228     		cmp	r0, #2
 1692 049a F6D9     		bls	.L101
 803:Drivers/STM32L0xx_HAL_Driver/Src/stm32l0xx_hal_rcc.c ****           }
 1693              		.loc 1 803 20 view .LVU521
 1694 049c 0320     		movs	r0, #3
 1695 049e 4DE0     		b	.L39
 1696              	.LVL125:
 1697              	.L150:
 752:Drivers/STM32L0xx_HAL_Driver/Src/stm32l0xx_hal_rcc.c ****         assert_param(IS_RCC_PLL_MUL(RCC_OscInitStruct->PLL.PLLMUL));
 1698              		.loc 1 752 9 is_stmt 1 view .LVU522
 753:Drivers/STM32L0xx_HAL_Driver/Src/stm32l0xx_hal_rcc.c ****         assert_param(IS_RCC_PLL_DIV(RCC_OscInitStruct->PLL.PLLDIV));
 1699              		.loc 1 753 9 view .LVU523
 754:Drivers/STM32L0xx_HAL_Driver/Src/stm32l0xx_hal_rcc.c **** 
 1700              		.loc 1 754 9 view .LVU524
 757:Drivers/STM32L0xx_HAL_Driver/Src/stm32l0xx_hal_rcc.c **** 
 1701              		.loc 1 757 9 view .LVU525
 1702 04a0 304A     		ldr	r2, .L156+4
 1703 04a2 1368     		ldr	r3, [r2]
 1704 04a4 3649     		ldr	r1, .L156+32
 1705 04a6 0B40     		ands	r3, r1
 1706 04a8 1360     		str	r3, [r2]
 760:Drivers/STM32L0xx_HAL_Driver/Src/stm32l0xx_hal_rcc.c **** 
 1707              		.loc 1 760 9 view .LVU526
 760:Drivers/STM32L0xx_HAL_Driver/Src/stm32l0xx_hal_rcc.c **** 
 1708              		.loc 1 760 21 is_stmt 0 view .LVU527
 1709 04aa FFF7FEFF 		bl	HAL_GetTick
 1710              	.LVL126:
 1711 04ae 0500     		movs	r5, r0
 1712              	.LVL127:
 763:Drivers/STM32L0xx_HAL_Driver/Src/stm32l0xx_hal_rcc.c ****         {
 1713              		.loc 1 763 9 is_stmt 1 view .LVU528
 1714              	.L97:
 763:Drivers/STM32L0xx_HAL_Driver/Src/stm32l0xx_hal_rcc.c ****         {
 1715              		.loc 1 763 52 view .LVU529
 763:Drivers/STM32L0xx_HAL_Driver/Src/stm32l0xx_hal_rcc.c ****         {
 1716              		.loc 1 763 15 is_stmt 0 view .LVU530
 1717 04b0 2C4B     		ldr	r3, .L156+4
 1718 04b2 1B68     		ldr	r3, [r3]
 763:Drivers/STM32L0xx_HAL_Driver/Src/stm32l0xx_hal_rcc.c ****         {
 1719              		.loc 1 763 52 view .LVU531
 1720 04b4 9B01     		lsls	r3, r3, #6
 1721 04b6 06D5     		bpl	.L152
 765:Drivers/STM32L0xx_HAL_Driver/Src/stm32l0xx_hal_rcc.c ****           {
 1722              		.loc 1 765 11 is_stmt 1 view .LVU532
 765:Drivers/STM32L0xx_HAL_Driver/Src/stm32l0xx_hal_rcc.c ****           {
 1723              		.loc 1 765 15 is_stmt 0 view .LVU533
 1724 04b8 FFF7FEFF 		bl	HAL_GetTick
 1725              	.LVL128:
ARM GAS  C:\Users\Tilen\AppData\Local\Temp\ccC0CAdr.s 			page 61


 765:Drivers/STM32L0xx_HAL_Driver/Src/stm32l0xx_hal_rcc.c ****           {
 1726              		.loc 1 765 29 discriminator 1 view .LVU534
 1727 04bc 401B     		subs	r0, r0, r5
 765:Drivers/STM32L0xx_HAL_Driver/Src/stm32l0xx_hal_rcc.c ****           {
 1728              		.loc 1 765 13 discriminator 1 view .LVU535
 1729 04be 0228     		cmp	r0, #2
 1730 04c0 F6D9     		bls	.L97
 767:Drivers/STM32L0xx_HAL_Driver/Src/stm32l0xx_hal_rcc.c ****           }
 1731              		.loc 1 767 20 view .LVU536
 1732 04c2 0320     		movs	r0, #3
 1733 04c4 3AE0     		b	.L39
 1734              	.L152:
 772:Drivers/STM32L0xx_HAL_Driver/Src/stm32l0xx_hal_rcc.c ****                              RCC_OscInitStruct->PLL.PLLMUL,
 1735              		.loc 1 772 9 is_stmt 1 view .LVU537
 1736 04c6 2749     		ldr	r1, .L156+4
 1737 04c8 CB68     		ldr	r3, [r1, #12]
 1738 04ca 2E4A     		ldr	r2, .L156+36
 1739 04cc 1340     		ands	r3, r2
 1740 04ce E26A     		ldr	r2, [r4, #44]
 1741 04d0 206B     		ldr	r0, [r4, #48]
 1742 04d2 0243     		orrs	r2, r0
 1743 04d4 606B     		ldr	r0, [r4, #52]
 1744 04d6 0243     		orrs	r2, r0
 1745 04d8 1343     		orrs	r3, r2
 1746 04da CB60     		str	r3, [r1, #12]
 776:Drivers/STM32L0xx_HAL_Driver/Src/stm32l0xx_hal_rcc.c **** 
 1747              		.loc 1 776 9 view .LVU538
 1748 04dc 0A68     		ldr	r2, [r1]
 1749 04de 8023     		movs	r3, #128
 1750 04e0 5B04     		lsls	r3, r3, #17
 1751 04e2 1343     		orrs	r3, r2
 1752 04e4 0B60     		str	r3, [r1]
 779:Drivers/STM32L0xx_HAL_Driver/Src/stm32l0xx_hal_rcc.c **** 
 1753              		.loc 1 779 9 view .LVU539
 779:Drivers/STM32L0xx_HAL_Driver/Src/stm32l0xx_hal_rcc.c **** 
 1754              		.loc 1 779 21 is_stmt 0 view .LVU540
 1755 04e6 FFF7FEFF 		bl	HAL_GetTick
 1756              	.LVL129:
 1757 04ea 0400     		movs	r4, r0
 1758              	.LVL130:
 782:Drivers/STM32L0xx_HAL_Driver/Src/stm32l0xx_hal_rcc.c ****         {
 1759              		.loc 1 782 9 is_stmt 1 view .LVU541
 1760              	.L99:
 782:Drivers/STM32L0xx_HAL_Driver/Src/stm32l0xx_hal_rcc.c ****         {
 1761              		.loc 1 782 52 view .LVU542
 782:Drivers/STM32L0xx_HAL_Driver/Src/stm32l0xx_hal_rcc.c ****         {
 1762              		.loc 1 782 15 is_stmt 0 view .LVU543
 1763 04ec 1D4B     		ldr	r3, .L156+4
 1764 04ee 1B68     		ldr	r3, [r3]
 782:Drivers/STM32L0xx_HAL_Driver/Src/stm32l0xx_hal_rcc.c ****         {
 1765              		.loc 1 782 52 view .LVU544
 1766 04f0 9B01     		lsls	r3, r3, #6
 1767 04f2 06D4     		bmi	.L153
 784:Drivers/STM32L0xx_HAL_Driver/Src/stm32l0xx_hal_rcc.c ****           {
 1768              		.loc 1 784 11 is_stmt 1 view .LVU545
 784:Drivers/STM32L0xx_HAL_Driver/Src/stm32l0xx_hal_rcc.c ****           {
 1769              		.loc 1 784 15 is_stmt 0 view .LVU546
ARM GAS  C:\Users\Tilen\AppData\Local\Temp\ccC0CAdr.s 			page 62


 1770 04f4 FFF7FEFF 		bl	HAL_GetTick
 1771              	.LVL131:
 784:Drivers/STM32L0xx_HAL_Driver/Src/stm32l0xx_hal_rcc.c ****           {
 1772              		.loc 1 784 29 discriminator 1 view .LVU547
 1773 04f8 001B     		subs	r0, r0, r4
 784:Drivers/STM32L0xx_HAL_Driver/Src/stm32l0xx_hal_rcc.c ****           {
 1774              		.loc 1 784 13 discriminator 1 view .LVU548
 1775 04fa 0228     		cmp	r0, #2
 1776 04fc F6D9     		bls	.L99
 786:Drivers/STM32L0xx_HAL_Driver/Src/stm32l0xx_hal_rcc.c ****           }
 1777              		.loc 1 786 20 view .LVU549
 1778 04fe 0320     		movs	r0, #3
 1779 0500 1CE0     		b	.L39
 1780              	.L153:
 828:Drivers/STM32L0xx_HAL_Driver/Src/stm32l0xx_hal_rcc.c **** }
 1781              		.loc 1 828 10 view .LVU550
 1782 0502 0020     		movs	r0, #0
 1783 0504 1AE0     		b	.L39
 1784              	.LVL132:
 1785              	.L151:
 828:Drivers/STM32L0xx_HAL_Driver/Src/stm32l0xx_hal_rcc.c **** }
 1786              		.loc 1 828 10 view .LVU551
 1787 0506 0020     		movs	r0, #0
 1788 0508 18E0     		b	.L39
 1789              	.LVL133:
 1790              	.L95:
 811:Drivers/STM32L0xx_HAL_Driver/Src/stm32l0xx_hal_rcc.c ****       {
 1791              		.loc 1 811 7 is_stmt 1 view .LVU552
 811:Drivers/STM32L0xx_HAL_Driver/Src/stm32l0xx_hal_rcc.c ****       {
 1792              		.loc 1 811 9 is_stmt 0 view .LVU553
 1793 050a 012B     		cmp	r3, #1
 1794 050c 20D0     		beq	.L125
 818:Drivers/STM32L0xx_HAL_Driver/Src/stm32l0xx_hal_rcc.c ****         if((READ_BIT(pll_config, RCC_CFGR_PLLSRC) != RCC_OscInitStruct->PLL.PLLSource) ||
 1795              		.loc 1 818 9 is_stmt 1 view .LVU554
 818:Drivers/STM32L0xx_HAL_Driver/Src/stm32l0xx_hal_rcc.c ****         if((READ_BIT(pll_config, RCC_CFGR_PLLSRC) != RCC_OscInitStruct->PLL.PLLSource) ||
 1796              		.loc 1 818 20 is_stmt 0 view .LVU555
 1797 050e 154B     		ldr	r3, .L156+4
 1798 0510 DA68     		ldr	r2, [r3, #12]
 1799              	.LVL134:
 819:Drivers/STM32L0xx_HAL_Driver/Src/stm32l0xx_hal_rcc.c ****            (READ_BIT(pll_config, RCC_CFGR_PLLMUL) != RCC_OscInitStruct->PLL.PLLMUL) ||
 1800              		.loc 1 819 9 is_stmt 1 view .LVU556
 819:Drivers/STM32L0xx_HAL_Driver/Src/stm32l0xx_hal_rcc.c ****            (READ_BIT(pll_config, RCC_CFGR_PLLMUL) != RCC_OscInitStruct->PLL.PLLMUL) ||
 1801              		.loc 1 819 13 is_stmt 0 view .LVU557
 1802 0512 8023     		movs	r3, #128
 1803 0514 5B02     		lsls	r3, r3, #9
 1804 0516 1340     		ands	r3, r2
 819:Drivers/STM32L0xx_HAL_Driver/Src/stm32l0xx_hal_rcc.c ****            (READ_BIT(pll_config, RCC_CFGR_PLLMUL) != RCC_OscInitStruct->PLL.PLLMUL) ||
 1805              		.loc 1 819 76 view .LVU558
 1806 0518 E16A     		ldr	r1, [r4, #44]
 819:Drivers/STM32L0xx_HAL_Driver/Src/stm32l0xx_hal_rcc.c ****            (READ_BIT(pll_config, RCC_CFGR_PLLMUL) != RCC_OscInitStruct->PLL.PLLMUL) ||
 1807              		.loc 1 819 11 view .LVU559
 1808 051a 8B42     		cmp	r3, r1
 1809 051c 1AD1     		bne	.L126
 820:Drivers/STM32L0xx_HAL_Driver/Src/stm32l0xx_hal_rcc.c ****            (READ_BIT(pll_config, RCC_CFGR_PLLDIV) != RCC_OscInitStruct->PLL.PLLDIV))
 1810              		.loc 1 820 13 view .LVU560
 1811 051e F023     		movs	r3, #240
 1812 0520 9B03     		lsls	r3, r3, #14
ARM GAS  C:\Users\Tilen\AppData\Local\Temp\ccC0CAdr.s 			page 63


 1813 0522 1340     		ands	r3, r2
 820:Drivers/STM32L0xx_HAL_Driver/Src/stm32l0xx_hal_rcc.c ****            (READ_BIT(pll_config, RCC_CFGR_PLLDIV) != RCC_OscInitStruct->PLL.PLLDIV))
 1814              		.loc 1 820 76 view .LVU561
 1815 0524 216B     		ldr	r1, [r4, #48]
 819:Drivers/STM32L0xx_HAL_Driver/Src/stm32l0xx_hal_rcc.c ****            (READ_BIT(pll_config, RCC_CFGR_PLLMUL) != RCC_OscInitStruct->PLL.PLLMUL) ||
 1816              		.loc 1 819 88 discriminator 1 view .LVU562
 1817 0526 8B42     		cmp	r3, r1
 1818 0528 16D1     		bne	.L127
 821:Drivers/STM32L0xx_HAL_Driver/Src/stm32l0xx_hal_rcc.c ****         {
 1819              		.loc 1 821 13 view .LVU563
 1820 052a C023     		movs	r3, #192
 1821 052c 1B04     		lsls	r3, r3, #16
 1822 052e 1A40     		ands	r2, r3
 1823              	.LVL135:
 821:Drivers/STM32L0xx_HAL_Driver/Src/stm32l0xx_hal_rcc.c ****         {
 1824              		.loc 1 821 76 view .LVU564
 1825 0530 636B     		ldr	r3, [r4, #52]
 820:Drivers/STM32L0xx_HAL_Driver/Src/stm32l0xx_hal_rcc.c ****            (READ_BIT(pll_config, RCC_CFGR_PLLDIV) != RCC_OscInitStruct->PLL.PLLDIV))
 1826              		.loc 1 820 85 view .LVU565
 1827 0532 9A42     		cmp	r2, r3
 1828 0534 12D1     		bne	.L128
 828:Drivers/STM32L0xx_HAL_Driver/Src/stm32l0xx_hal_rcc.c **** }
 1829              		.loc 1 828 10 view .LVU566
 1830 0536 0020     		movs	r0, #0
 1831 0538 00E0     		b	.L39
 1832              	.LVL136:
 1833              	.L103:
 346:Drivers/STM32L0xx_HAL_Driver/Src/stm32l0xx_hal_rcc.c ****   }
 1834              		.loc 1 346 12 view .LVU567
 1835 053a 0120     		movs	r0, #1
 1836              	.LVL137:
 1837              	.L39:
 829:Drivers/STM32L0xx_HAL_Driver/Src/stm32l0xx_hal_rcc.c **** 
 1838              		.loc 1 829 1 view .LVU568
 1839 053c 03B0     		add	sp, sp, #12
 1840              		@ sp needed
 1841 053e F0BD     		pop	{r4, r5, r6, r7, pc}
 1842              	.LVL138:
 1843              	.L142:
 367:Drivers/STM32L0xx_HAL_Driver/Src/stm32l0xx_hal_rcc.c ****       }
 1844              		.loc 1 367 16 view .LVU569
 1845 0540 0120     		movs	r0, #1
 1846              	.LVL139:
 367:Drivers/STM32L0xx_HAL_Driver/Src/stm32l0xx_hal_rcc.c ****       }
 1847              		.loc 1 367 16 view .LVU570
 1848 0542 FBE7     		b	.L39
 1849              	.LVL140:
 1850              	.L107:
 432:Drivers/STM32L0xx_HAL_Driver/Src/stm32l0xx_hal_rcc.c ****       }
 1851              		.loc 1 432 16 view .LVU571
 1852 0544 0120     		movs	r0, #1
 1853 0546 F9E7     		b	.L39
 1854              	.LVL141:
 1855              	.L110:
 504:Drivers/STM32L0xx_HAL_Driver/Src/stm32l0xx_hal_rcc.c ****       }
 1856              		.loc 1 504 16 view .LVU572
 1857 0548 0120     		movs	r0, #1
ARM GAS  C:\Users\Tilen\AppData\Local\Temp\ccC0CAdr.s 			page 64


 1858 054a F7E7     		b	.L39
 1859              	.LVL142:
 1860              	.L121:
 828:Drivers/STM32L0xx_HAL_Driver/Src/stm32l0xx_hal_rcc.c **** }
 1861              		.loc 1 828 10 view .LVU573
 1862 054c 0020     		movs	r0, #0
 1863 054e F5E7     		b	.L39
 1864              	.L125:
 813:Drivers/STM32L0xx_HAL_Driver/Src/stm32l0xx_hal_rcc.c ****       }
 1865              		.loc 1 813 16 view .LVU574
 1866 0550 0120     		movs	r0, #1
 1867 0552 F3E7     		b	.L39
 1868              	.LVL143:
 1869              	.L126:
 823:Drivers/STM32L0xx_HAL_Driver/Src/stm32l0xx_hal_rcc.c ****         }
 1870              		.loc 1 823 18 view .LVU575
 1871 0554 0120     		movs	r0, #1
 1872 0556 F1E7     		b	.L39
 1873              	.L127:
 1874 0558 0120     		movs	r0, #1
 1875 055a EFE7     		b	.L39
 1876              	.LVL144:
 1877              	.L128:
 823:Drivers/STM32L0xx_HAL_Driver/Src/stm32l0xx_hal_rcc.c ****         }
 1878              		.loc 1 823 18 view .LVU576
 1879 055c 0120     		movs	r0, #1
 1880 055e EDE7     		b	.L39
 1881              	.L157:
 1882              		.align	2
 1883              	.L156:
 1884 0560 00700040 		.word	1073770496
 1885 0564 00100240 		.word	1073876992
 1886 0568 88130000 		.word	5000
 1887 056c FFFEFFFF 		.word	-257
 1888 0570 FFFBFFFF 		.word	-1025
 1889 0574 00000140 		.word	1073807360
 1890 0578 FFFFFFEF 		.word	-268435457
 1891 057c FFDFFFFF 		.word	-8193
 1892 0580 FFFFFFFE 		.word	-16777217
 1893 0584 FFFF02FF 		.word	-16580609
 1894              		.cfi_endproc
 1895              	.LFE48:
 1897              		.section	.text.HAL_RCC_ClockConfig,"ax",%progbits
 1898              		.align	1
 1899              		.global	HAL_RCC_ClockConfig
 1900              		.syntax unified
 1901              		.code	16
 1902              		.thumb_func
 1904              	HAL_RCC_ClockConfig:
 1905              	.LVL145:
 1906              	.LFB49:
 858:Drivers/STM32L0xx_HAL_Driver/Src/stm32l0xx_hal_rcc.c ****   uint32_t tickstart;
 1907              		.loc 1 858 1 is_stmt 1 view -0
 1908              		.cfi_startproc
 1909              		@ args = 0, pretend = 0, frame = 0
 1910              		@ frame_needed = 0, uses_anonymous_args = 0
 858:Drivers/STM32L0xx_HAL_Driver/Src/stm32l0xx_hal_rcc.c ****   uint32_t tickstart;
ARM GAS  C:\Users\Tilen\AppData\Local\Temp\ccC0CAdr.s 			page 65


 1911              		.loc 1 858 1 is_stmt 0 view .LVU578
 1912 0000 70B5     		push	{r4, r5, r6, lr}
 1913              	.LCFI7:
 1914              		.cfi_def_cfa_offset 16
 1915              		.cfi_offset 4, -16
 1916              		.cfi_offset 5, -12
 1917              		.cfi_offset 6, -8
 1918              		.cfi_offset 14, -4
 1919 0002 0500     		movs	r5, r0
 1920 0004 0C00     		movs	r4, r1
 859:Drivers/STM32L0xx_HAL_Driver/Src/stm32l0xx_hal_rcc.c ****   HAL_StatusTypeDef status;
 1921              		.loc 1 859 3 is_stmt 1 view .LVU579
 860:Drivers/STM32L0xx_HAL_Driver/Src/stm32l0xx_hal_rcc.c **** 
 1922              		.loc 1 860 3 view .LVU580
 863:Drivers/STM32L0xx_HAL_Driver/Src/stm32l0xx_hal_rcc.c ****   {
 1923              		.loc 1 863 3 view .LVU581
 863:Drivers/STM32L0xx_HAL_Driver/Src/stm32l0xx_hal_rcc.c ****   {
 1924              		.loc 1 863 5 is_stmt 0 view .LVU582
 1925 0006 0028     		cmp	r0, #0
 1926 0008 00D1     		bne	.LCB1823
 1927 000a D1E0     		b	.L184	@long jump
 1928              	.LCB1823:
 869:Drivers/STM32L0xx_HAL_Driver/Src/stm32l0xx_hal_rcc.c ****   assert_param(IS_FLASH_LATENCY(FLatency));
 1929              		.loc 1 869 3 is_stmt 1 view .LVU583
 870:Drivers/STM32L0xx_HAL_Driver/Src/stm32l0xx_hal_rcc.c **** 
 1930              		.loc 1 870 3 view .LVU584
 877:Drivers/STM32L0xx_HAL_Driver/Src/stm32l0xx_hal_rcc.c ****   {
 1931              		.loc 1 877 3 view .LVU585
 877:Drivers/STM32L0xx_HAL_Driver/Src/stm32l0xx_hal_rcc.c ****   {
 1932              		.loc 1 877 17 is_stmt 0 view .LVU586
 1933 000c 6A4B     		ldr	r3, .L210
 1934 000e 1A68     		ldr	r2, [r3]
 1935 0010 0123     		movs	r3, #1
 1936 0012 1340     		ands	r3, r2
 877:Drivers/STM32L0xx_HAL_Driver/Src/stm32l0xx_hal_rcc.c ****   {
 1937              		.loc 1 877 5 view .LVU587
 1938 0014 8B42     		cmp	r3, r1
 1939 0016 19D3     		bcc	.L204
 1940              	.LVL146:
 1941              	.L160:
 896:Drivers/STM32L0xx_HAL_Driver/Src/stm32l0xx_hal_rcc.c ****   {
 1942              		.loc 1 896 3 is_stmt 1 view .LVU588
 896:Drivers/STM32L0xx_HAL_Driver/Src/stm32l0xx_hal_rcc.c ****   {
 1943              		.loc 1 896 25 is_stmt 0 view .LVU589
 1944 0018 2B68     		ldr	r3, [r5]
 896:Drivers/STM32L0xx_HAL_Driver/Src/stm32l0xx_hal_rcc.c ****   {
 1945              		.loc 1 896 5 view .LVU590
 1946 001a 9B07     		lsls	r3, r3, #30
 1947 001c 06D5     		bpl	.L163
 898:Drivers/STM32L0xx_HAL_Driver/Src/stm32l0xx_hal_rcc.c ****     MODIFY_REG(RCC->CFGR, RCC_CFGR_HPRE, RCC_ClkInitStruct->AHBCLKDivider);
 1948              		.loc 1 898 5 is_stmt 1 view .LVU591
 899:Drivers/STM32L0xx_HAL_Driver/Src/stm32l0xx_hal_rcc.c ****   }
 1949              		.loc 1 899 5 view .LVU592
 1950 001e 674A     		ldr	r2, .L210+4
 1951 0020 D368     		ldr	r3, [r2, #12]
 1952 0022 F021     		movs	r1, #240
 1953 0024 8B43     		bics	r3, r1
ARM GAS  C:\Users\Tilen\AppData\Local\Temp\ccC0CAdr.s 			page 66


 1954 0026 A968     		ldr	r1, [r5, #8]
 1955 0028 0B43     		orrs	r3, r1
 1956 002a D360     		str	r3, [r2, #12]
 1957              	.L163:
 903:Drivers/STM32L0xx_HAL_Driver/Src/stm32l0xx_hal_rcc.c ****   {
 1958              		.loc 1 903 3 view .LVU593
 903:Drivers/STM32L0xx_HAL_Driver/Src/stm32l0xx_hal_rcc.c ****   {
 1959              		.loc 1 903 25 is_stmt 0 view .LVU594
 1960 002c 2B68     		ldr	r3, [r5]
 903:Drivers/STM32L0xx_HAL_Driver/Src/stm32l0xx_hal_rcc.c ****   {
 1961              		.loc 1 903 5 view .LVU595
 1962 002e DB07     		lsls	r3, r3, #31
 1963 0030 7BD5     		bpl	.L164
 905:Drivers/STM32L0xx_HAL_Driver/Src/stm32l0xx_hal_rcc.c **** 
 1964              		.loc 1 905 5 is_stmt 1 view .LVU596
 908:Drivers/STM32L0xx_HAL_Driver/Src/stm32l0xx_hal_rcc.c ****     {
 1965              		.loc 1 908 5 view .LVU597
 908:Drivers/STM32L0xx_HAL_Driver/Src/stm32l0xx_hal_rcc.c ****     {
 1966              		.loc 1 908 25 is_stmt 0 view .LVU598
 1967 0032 6B68     		ldr	r3, [r5, #4]
 908:Drivers/STM32L0xx_HAL_Driver/Src/stm32l0xx_hal_rcc.c ****     {
 1968              		.loc 1 908 7 view .LVU599
 1969 0034 022B     		cmp	r3, #2
 1970 0036 20D0     		beq	.L205
 917:Drivers/STM32L0xx_HAL_Driver/Src/stm32l0xx_hal_rcc.c ****     {
 1971              		.loc 1 917 10 is_stmt 1 view .LVU600
 917:Drivers/STM32L0xx_HAL_Driver/Src/stm32l0xx_hal_rcc.c ****     {
 1972              		.loc 1 917 12 is_stmt 0 view .LVU601
 1973 0038 032B     		cmp	r3, #3
 1974 003a 40D0     		beq	.L206
 926:Drivers/STM32L0xx_HAL_Driver/Src/stm32l0xx_hal_rcc.c ****     {
 1975              		.loc 1 926 10 is_stmt 1 view .LVU602
 926:Drivers/STM32L0xx_HAL_Driver/Src/stm32l0xx_hal_rcc.c ****     {
 1976              		.loc 1 926 12 is_stmt 0 view .LVU603
 1977 003c 012B     		cmp	r3, #1
 1978 003e 44D0     		beq	.L207
 938:Drivers/STM32L0xx_HAL_Driver/Src/stm32l0xx_hal_rcc.c ****       {
 1979              		.loc 1 938 7 is_stmt 1 view .LVU604
 938:Drivers/STM32L0xx_HAL_Driver/Src/stm32l0xx_hal_rcc.c ****       {
 1980              		.loc 1 938 10 is_stmt 0 view .LVU605
 1981 0040 5E4A     		ldr	r2, .L210+4
 1982 0042 1268     		ldr	r2, [r2]
 938:Drivers/STM32L0xx_HAL_Driver/Src/stm32l0xx_hal_rcc.c ****       {
 1983              		.loc 1 938 9 view .LVU606
 1984 0044 9205     		lsls	r2, r2, #22
 1985 0046 1DD4     		bmi	.L166
 940:Drivers/STM32L0xx_HAL_Driver/Src/stm32l0xx_hal_rcc.c ****       }
 1986              		.loc 1 940 16 view .LVU607
 1987 0048 0120     		movs	r0, #1
 1988 004a 99E0     		b	.L159
 1989              	.LVL147:
 1990              	.L204:
 880:Drivers/STM32L0xx_HAL_Driver/Src/stm32l0xx_hal_rcc.c **** 
 1991              		.loc 1 880 5 is_stmt 1 view .LVU608
 1992 004c 5A4A     		ldr	r2, .L210
 1993 004e 1368     		ldr	r3, [r2]
 1994 0050 0121     		movs	r1, #1
ARM GAS  C:\Users\Tilen\AppData\Local\Temp\ccC0CAdr.s 			page 67


 1995              	.LVL148:
 880:Drivers/STM32L0xx_HAL_Driver/Src/stm32l0xx_hal_rcc.c **** 
 1996              		.loc 1 880 5 is_stmt 0 view .LVU609
 1997 0052 8B43     		bics	r3, r1
 1998 0054 2343     		orrs	r3, r4
 1999 0056 1360     		str	r3, [r2]
 884:Drivers/STM32L0xx_HAL_Driver/Src/stm32l0xx_hal_rcc.c **** 
 2000              		.loc 1 884 5 is_stmt 1 view .LVU610
 884:Drivers/STM32L0xx_HAL_Driver/Src/stm32l0xx_hal_rcc.c **** 
 2001              		.loc 1 884 17 is_stmt 0 view .LVU611
 2002 0058 FFF7FEFF 		bl	HAL_GetTick
 2003              	.LVL149:
 884:Drivers/STM32L0xx_HAL_Driver/Src/stm32l0xx_hal_rcc.c **** 
 2004              		.loc 1 884 17 view .LVU612
 2005 005c 0600     		movs	r6, r0
 2006              	.LVL150:
 886:Drivers/STM32L0xx_HAL_Driver/Src/stm32l0xx_hal_rcc.c ****     {
 2007              		.loc 1 886 5 is_stmt 1 view .LVU613
 2008              	.L161:
