ARM GAS  C:\Users\Tilen\AppData\Local\Temp\ccvNaC6x.s 			page 1


   1              		.cpu cortex-m0plus
   2              		.arch armv6s-m
   3              		.fpu softvfp
   4              		.eabi_attribute 20, 1
   5              		.eabi_attribute 21, 1
   6              		.eabi_attribute 23, 3
   7              		.eabi_attribute 24, 1
   8              		.eabi_attribute 25, 1
   9              		.eabi_attribute 26, 1
  10              		.eabi_attribute 30, 1
  11              		.eabi_attribute 34, 0
  12              		.eabi_attribute 18, 4
  13              		.file	"stm32l0xx_hal_rtc_ex.c"
  14              		.text
  15              	.Ltext0:
  16              		.cfi_sections	.debug_frame
  17              		.file 1 "Drivers/STM32L0xx_HAL_Driver/Src/stm32l0xx_hal_rtc_ex.c"
  18              		.section	.text.HAL_RTCEx_SetTimeStamp,"ax",%progbits
  19              		.align	1
  20              		.global	HAL_RTCEx_SetTimeStamp
  21              		.syntax unified
  22              		.code	16
  23              		.thumb_func
  25              	HAL_RTCEx_SetTimeStamp:
  26              	.LVL0:
  27              	.LFB47:
   1:Drivers/STM32L0xx_HAL_Driver/Src/stm32l0xx_hal_rtc_ex.c **** /**
   2:Drivers/STM32L0xx_HAL_Driver/Src/stm32l0xx_hal_rtc_ex.c ****   ******************************************************************************
   3:Drivers/STM32L0xx_HAL_Driver/Src/stm32l0xx_hal_rtc_ex.c ****   * @file    stm32l0xx_hal_rtc_ex.c
   4:Drivers/STM32L0xx_HAL_Driver/Src/stm32l0xx_hal_rtc_ex.c ****   * @author  MCD Application Team
   5:Drivers/STM32L0xx_HAL_Driver/Src/stm32l0xx_hal_rtc_ex.c ****   * @brief   Extended RTC HAL module driver.
   6:Drivers/STM32L0xx_HAL_Driver/Src/stm32l0xx_hal_rtc_ex.c ****   *          This file provides firmware functions to manage the following
   7:Drivers/STM32L0xx_HAL_Driver/Src/stm32l0xx_hal_rtc_ex.c ****   *          functionalities of the Real-Time Clock (RTC) Extended peripheral:
   8:Drivers/STM32L0xx_HAL_Driver/Src/stm32l0xx_hal_rtc_ex.c ****   *           + RTC Timestamp functions
   9:Drivers/STM32L0xx_HAL_Driver/Src/stm32l0xx_hal_rtc_ex.c ****   *           + RTC Tamper functions
  10:Drivers/STM32L0xx_HAL_Driver/Src/stm32l0xx_hal_rtc_ex.c ****   *           + RTC Wakeup functions
  11:Drivers/STM32L0xx_HAL_Driver/Src/stm32l0xx_hal_rtc_ex.c ****   *           + Extended Control functions
  12:Drivers/STM32L0xx_HAL_Driver/Src/stm32l0xx_hal_rtc_ex.c ****   *           + Extended RTC features functions
  13:Drivers/STM32L0xx_HAL_Driver/Src/stm32l0xx_hal_rtc_ex.c ****   *
  14:Drivers/STM32L0xx_HAL_Driver/Src/stm32l0xx_hal_rtc_ex.c ****   ******************************************************************************
  15:Drivers/STM32L0xx_HAL_Driver/Src/stm32l0xx_hal_rtc_ex.c ****   * @attention
  16:Drivers/STM32L0xx_HAL_Driver/Src/stm32l0xx_hal_rtc_ex.c ****   *
  17:Drivers/STM32L0xx_HAL_Driver/Src/stm32l0xx_hal_rtc_ex.c ****   * Copyright (c) 2016 STMicroelectronics.
  18:Drivers/STM32L0xx_HAL_Driver/Src/stm32l0xx_hal_rtc_ex.c ****   * All rights reserved.
  19:Drivers/STM32L0xx_HAL_Driver/Src/stm32l0xx_hal_rtc_ex.c ****   *
  20:Drivers/STM32L0xx_HAL_Driver/Src/stm32l0xx_hal_rtc_ex.c ****   * This software is licensed under terms that can be found in the LICENSE file
  21:Drivers/STM32L0xx_HAL_Driver/Src/stm32l0xx_hal_rtc_ex.c ****   * in the root directory of this software component.
  22:Drivers/STM32L0xx_HAL_Driver/Src/stm32l0xx_hal_rtc_ex.c ****   * If no LICENSE file comes with this software, it is provided AS-IS.
  23:Drivers/STM32L0xx_HAL_Driver/Src/stm32l0xx_hal_rtc_ex.c ****   *
  24:Drivers/STM32L0xx_HAL_Driver/Src/stm32l0xx_hal_rtc_ex.c ****   ******************************************************************************
  25:Drivers/STM32L0xx_HAL_Driver/Src/stm32l0xx_hal_rtc_ex.c ****   @verbatim
  26:Drivers/STM32L0xx_HAL_Driver/Src/stm32l0xx_hal_rtc_ex.c ****   ==============================================================================
  27:Drivers/STM32L0xx_HAL_Driver/Src/stm32l0xx_hal_rtc_ex.c ****                         ##### How to use this driver #####
  28:Drivers/STM32L0xx_HAL_Driver/Src/stm32l0xx_hal_rtc_ex.c ****   ==============================================================================
  29:Drivers/STM32L0xx_HAL_Driver/Src/stm32l0xx_hal_rtc_ex.c ****   [..]
  30:Drivers/STM32L0xx_HAL_Driver/Src/stm32l0xx_hal_rtc_ex.c ****     (+) Enable the RTC domain access.
  31:Drivers/STM32L0xx_HAL_Driver/Src/stm32l0xx_hal_rtc_ex.c ****     (+) Configure the RTC Prescaler (Asynchronous and Synchronous) and RTC hour
ARM GAS  C:\Users\Tilen\AppData\Local\Temp\ccvNaC6x.s 			page 2


  32:Drivers/STM32L0xx_HAL_Driver/Src/stm32l0xx_hal_rtc_ex.c ****         format using the HAL_RTC_Init() function.
  33:Drivers/STM32L0xx_HAL_Driver/Src/stm32l0xx_hal_rtc_ex.c **** 
  34:Drivers/STM32L0xx_HAL_Driver/Src/stm32l0xx_hal_rtc_ex.c ****   *** RTC Wakeup configuration ***
  35:Drivers/STM32L0xx_HAL_Driver/Src/stm32l0xx_hal_rtc_ex.c ****   ================================
  36:Drivers/STM32L0xx_HAL_Driver/Src/stm32l0xx_hal_rtc_ex.c ****   [..]
  37:Drivers/STM32L0xx_HAL_Driver/Src/stm32l0xx_hal_rtc_ex.c ****     (+) To configure the RTC Wakeup Clock source and Counter use the
  38:Drivers/STM32L0xx_HAL_Driver/Src/stm32l0xx_hal_rtc_ex.c ****         HAL_RTCEx_SetWakeUpTimer() function.
  39:Drivers/STM32L0xx_HAL_Driver/Src/stm32l0xx_hal_rtc_ex.c ****         You can also configure the RTC Wakeup timer in interrupt mode using the
  40:Drivers/STM32L0xx_HAL_Driver/Src/stm32l0xx_hal_rtc_ex.c ****         HAL_RTCEx_SetWakeUpTimer_IT() function.
  41:Drivers/STM32L0xx_HAL_Driver/Src/stm32l0xx_hal_rtc_ex.c ****     (+) To read the RTC Wakeup Counter register, use the HAL_RTCEx_GetWakeUpTimer()
  42:Drivers/STM32L0xx_HAL_Driver/Src/stm32l0xx_hal_rtc_ex.c ****         function.
  43:Drivers/STM32L0xx_HAL_Driver/Src/stm32l0xx_hal_rtc_ex.c **** 
  44:Drivers/STM32L0xx_HAL_Driver/Src/stm32l0xx_hal_rtc_ex.c ****   *** Timestamp configuration ***
  45:Drivers/STM32L0xx_HAL_Driver/Src/stm32l0xx_hal_rtc_ex.c ****   ===============================
  46:Drivers/STM32L0xx_HAL_Driver/Src/stm32l0xx_hal_rtc_ex.c ****   [..]
  47:Drivers/STM32L0xx_HAL_Driver/Src/stm32l0xx_hal_rtc_ex.c ****     (+) To configure the RTC Timestamp use the HAL_RTCEx_SetTimeStamp() function.
  48:Drivers/STM32L0xx_HAL_Driver/Src/stm32l0xx_hal_rtc_ex.c ****         You can also configure the RTC Timestamp with interrupt mode using the
  49:Drivers/STM32L0xx_HAL_Driver/Src/stm32l0xx_hal_rtc_ex.c ****         HAL_RTCEx_SetTimeStamp_IT() function.
  50:Drivers/STM32L0xx_HAL_Driver/Src/stm32l0xx_hal_rtc_ex.c ****     (+) To read the RTC Timestamp Time and Date register, use the
  51:Drivers/STM32L0xx_HAL_Driver/Src/stm32l0xx_hal_rtc_ex.c ****         HAL_RTCEx_GetTimeStamp() function.
  52:Drivers/STM32L0xx_HAL_Driver/Src/stm32l0xx_hal_rtc_ex.c ****     (+) The Timestamp alternate function is mapped to RTC_AF1 (PC13).
  53:Drivers/STM32L0xx_HAL_Driver/Src/stm32l0xx_hal_rtc_ex.c **** 
  54:Drivers/STM32L0xx_HAL_Driver/Src/stm32l0xx_hal_rtc_ex.c ****   *** Tamper configuration ***
  55:Drivers/STM32L0xx_HAL_Driver/Src/stm32l0xx_hal_rtc_ex.c ****   ============================
  56:Drivers/STM32L0xx_HAL_Driver/Src/stm32l0xx_hal_rtc_ex.c ****   [..]
  57:Drivers/STM32L0xx_HAL_Driver/Src/stm32l0xx_hal_rtc_ex.c ****     (+) To enable the RTC Tamper and configure the Tamper filter count, trigger
  58:Drivers/STM32L0xx_HAL_Driver/Src/stm32l0xx_hal_rtc_ex.c ****         Edge or Level according to the Tamper filter value (if equal to 0 Edge
  59:Drivers/STM32L0xx_HAL_Driver/Src/stm32l0xx_hal_rtc_ex.c ****         else Level), sampling frequency, NoErase, MaskFlag, precharge or
  60:Drivers/STM32L0xx_HAL_Driver/Src/stm32l0xx_hal_rtc_ex.c ****         discharge and Pull-UP use the HAL_RTCEx_SetTamper() function.
  61:Drivers/STM32L0xx_HAL_Driver/Src/stm32l0xx_hal_rtc_ex.c ****         You can configure RTC Tamper in interrupt mode using HAL_RTCEx_SetTamper_IT()
  62:Drivers/STM32L0xx_HAL_Driver/Src/stm32l0xx_hal_rtc_ex.c ****         function.
  63:Drivers/STM32L0xx_HAL_Driver/Src/stm32l0xx_hal_rtc_ex.c ****     (+) The default configuration of the Tamper erases the backup registers.
  64:Drivers/STM32L0xx_HAL_Driver/Src/stm32l0xx_hal_rtc_ex.c ****         To avoid this, enable the NoErase field on the RTC_TAMPCR register.
  65:Drivers/STM32L0xx_HAL_Driver/Src/stm32l0xx_hal_rtc_ex.c ****     (+) The TAMPER1 alternate function is mapped to RTC_AF1 (PC13).
  66:Drivers/STM32L0xx_HAL_Driver/Src/stm32l0xx_hal_rtc_ex.c ****     (+) The TAMPER2 alternate function is mapped to RTC_AF2 (PA0).
  67:Drivers/STM32L0xx_HAL_Driver/Src/stm32l0xx_hal_rtc_ex.c ****     (+) The TAMPER3 alternate function is mapped to RTC_AF3 (PE6).
  68:Drivers/STM32L0xx_HAL_Driver/Src/stm32l0xx_hal_rtc_ex.c **** 
  69:Drivers/STM32L0xx_HAL_Driver/Src/stm32l0xx_hal_rtc_ex.c ****   *** Backup Data Registers configuration ***
  70:Drivers/STM32L0xx_HAL_Driver/Src/stm32l0xx_hal_rtc_ex.c ****   ===========================================
  71:Drivers/STM32L0xx_HAL_Driver/Src/stm32l0xx_hal_rtc_ex.c ****   [..]
  72:Drivers/STM32L0xx_HAL_Driver/Src/stm32l0xx_hal_rtc_ex.c ****     (+) To write to the RTC Backup Data registers, use the HAL_RTCEx_BKUPWrite()
  73:Drivers/STM32L0xx_HAL_Driver/Src/stm32l0xx_hal_rtc_ex.c ****         function.
  74:Drivers/STM32L0xx_HAL_Driver/Src/stm32l0xx_hal_rtc_ex.c ****     (+) To read the RTC Backup Data registers, use the HAL_RTCEx_BKUPRead()
  75:Drivers/STM32L0xx_HAL_Driver/Src/stm32l0xx_hal_rtc_ex.c ****         function.
  76:Drivers/STM32L0xx_HAL_Driver/Src/stm32l0xx_hal_rtc_ex.c **** 
  77:Drivers/STM32L0xx_HAL_Driver/Src/stm32l0xx_hal_rtc_ex.c ****   *** Smooth Digital Calibration configuration ***
  78:Drivers/STM32L0xx_HAL_Driver/Src/stm32l0xx_hal_rtc_ex.c ****   ================================================
  79:Drivers/STM32L0xx_HAL_Driver/Src/stm32l0xx_hal_rtc_ex.c ****   [..]
  80:Drivers/STM32L0xx_HAL_Driver/Src/stm32l0xx_hal_rtc_ex.c ****     (+) RTC frequency can be digitally calibrated with a resolution of about
  81:Drivers/STM32L0xx_HAL_Driver/Src/stm32l0xx_hal_rtc_ex.c ****         0.954 ppm with a range from -487.1 ppm to +488.5 ppm.
  82:Drivers/STM32L0xx_HAL_Driver/Src/stm32l0xx_hal_rtc_ex.c ****         The correction of the frequency is performed using a series of small
  83:Drivers/STM32L0xx_HAL_Driver/Src/stm32l0xx_hal_rtc_ex.c ****         adjustments (adding and/or subtracting individual RTCCLK pulses).
  84:Drivers/STM32L0xx_HAL_Driver/Src/stm32l0xx_hal_rtc_ex.c ****     (+) The smooth digital calibration is performed during a cycle of about 2^20
  85:Drivers/STM32L0xx_HAL_Driver/Src/stm32l0xx_hal_rtc_ex.c ****         RTCCLK pulses (or 32 seconds) when the input frequency is 32,768 Hz.
  86:Drivers/STM32L0xx_HAL_Driver/Src/stm32l0xx_hal_rtc_ex.c ****         This cycle is maintained by a 20-bit counter clocked by RTCCLK.
  87:Drivers/STM32L0xx_HAL_Driver/Src/stm32l0xx_hal_rtc_ex.c ****     (+) The smooth calibration register (RTC_CALR) specifies the number of RTCCLK
  88:Drivers/STM32L0xx_HAL_Driver/Src/stm32l0xx_hal_rtc_ex.c ****         clock cycles to be masked during the 32-second cycle.
ARM GAS  C:\Users\Tilen\AppData\Local\Temp\ccvNaC6x.s 			page 3


  89:Drivers/STM32L0xx_HAL_Driver/Src/stm32l0xx_hal_rtc_ex.c ****     (+) To configure the RTC Smooth Digital Calibration value and the corresponding
  90:Drivers/STM32L0xx_HAL_Driver/Src/stm32l0xx_hal_rtc_ex.c ****         calibration cycle period (32s,16s and 8s) use the HAL_RTCEx_SetSmoothCalib()
  91:Drivers/STM32L0xx_HAL_Driver/Src/stm32l0xx_hal_rtc_ex.c ****         function.
  92:Drivers/STM32L0xx_HAL_Driver/Src/stm32l0xx_hal_rtc_ex.c **** 
  93:Drivers/STM32L0xx_HAL_Driver/Src/stm32l0xx_hal_rtc_ex.c ****   *** Outputs configuration ***
  94:Drivers/STM32L0xx_HAL_Driver/Src/stm32l0xx_hal_rtc_ex.c ****   =============================
  95:Drivers/STM32L0xx_HAL_Driver/Src/stm32l0xx_hal_rtc_ex.c ****   [..] The RTC has 2 different outputs:
  96:Drivers/STM32L0xx_HAL_Driver/Src/stm32l0xx_hal_rtc_ex.c ****     (+) RTC_ALARM: this output is used to manage the RTC alarms (Alarm A and Alarm B)
  97:Drivers/STM32L0xx_HAL_Driver/Src/stm32l0xx_hal_rtc_ex.c ****         and WaKeUp signals.
  98:Drivers/STM32L0xx_HAL_Driver/Src/stm32l0xx_hal_rtc_ex.c ****         To output the selected RTC signal, use the HAL_RTC_Init() function.
  99:Drivers/STM32L0xx_HAL_Driver/Src/stm32l0xx_hal_rtc_ex.c ****     (+) RTC_CALIB: this output is 512Hz signal or 1Hz.
 100:Drivers/STM32L0xx_HAL_Driver/Src/stm32l0xx_hal_rtc_ex.c ****         To enable the RTC_CALIB, use the HAL_RTCEx_SetCalibrationOutPut() function.
 101:Drivers/STM32L0xx_HAL_Driver/Src/stm32l0xx_hal_rtc_ex.c ****     (+) Two pins can be used as RTC_ALARM or RTC_CALIB output, selected through
 102:Drivers/STM32L0xx_HAL_Driver/Src/stm32l0xx_hal_rtc_ex.c ****         bit OUT_RMP of the RTC_OR register:
 103:Drivers/STM32L0xx_HAL_Driver/Src/stm32l0xx_hal_rtc_ex.c ****         - (PC13, PB14) for STM32L05x/6x/7x/8x
 104:Drivers/STM32L0xx_HAL_Driver/Src/stm32l0xx_hal_rtc_ex.c ****         - (PA2, PB14) for STM32L03x/4x
 105:Drivers/STM32L0xx_HAL_Driver/Src/stm32l0xx_hal_rtc_ex.c ****     (+) When the RTC_CALIB or RTC_ALARM output is selected, the RTC_OUT pin is
 106:Drivers/STM32L0xx_HAL_Driver/Src/stm32l0xx_hal_rtc_ex.c ****         automatically configured in output alternate function.
 107:Drivers/STM32L0xx_HAL_Driver/Src/stm32l0xx_hal_rtc_ex.c **** 
 108:Drivers/STM32L0xx_HAL_Driver/Src/stm32l0xx_hal_rtc_ex.c ****   @endverbatim
 109:Drivers/STM32L0xx_HAL_Driver/Src/stm32l0xx_hal_rtc_ex.c ****   ******************************************************************************
 110:Drivers/STM32L0xx_HAL_Driver/Src/stm32l0xx_hal_rtc_ex.c ****   */
 111:Drivers/STM32L0xx_HAL_Driver/Src/stm32l0xx_hal_rtc_ex.c **** 
 112:Drivers/STM32L0xx_HAL_Driver/Src/stm32l0xx_hal_rtc_ex.c **** /* Includes ------------------------------------------------------------------*/
 113:Drivers/STM32L0xx_HAL_Driver/Src/stm32l0xx_hal_rtc_ex.c **** #include "stm32l0xx_hal.h"
 114:Drivers/STM32L0xx_HAL_Driver/Src/stm32l0xx_hal_rtc_ex.c **** 
 115:Drivers/STM32L0xx_HAL_Driver/Src/stm32l0xx_hal_rtc_ex.c **** /** @addtogroup STM32L0xx_HAL_Driver
 116:Drivers/STM32L0xx_HAL_Driver/Src/stm32l0xx_hal_rtc_ex.c ****   * @{
 117:Drivers/STM32L0xx_HAL_Driver/Src/stm32l0xx_hal_rtc_ex.c ****   */
 118:Drivers/STM32L0xx_HAL_Driver/Src/stm32l0xx_hal_rtc_ex.c **** 
 119:Drivers/STM32L0xx_HAL_Driver/Src/stm32l0xx_hal_rtc_ex.c **** /** @defgroup RTCEx RTCEx
 120:Drivers/STM32L0xx_HAL_Driver/Src/stm32l0xx_hal_rtc_ex.c ****   * @brief    RTC Extended HAL module driver
 121:Drivers/STM32L0xx_HAL_Driver/Src/stm32l0xx_hal_rtc_ex.c ****   * @{
 122:Drivers/STM32L0xx_HAL_Driver/Src/stm32l0xx_hal_rtc_ex.c ****   */
 123:Drivers/STM32L0xx_HAL_Driver/Src/stm32l0xx_hal_rtc_ex.c **** 
 124:Drivers/STM32L0xx_HAL_Driver/Src/stm32l0xx_hal_rtc_ex.c **** #ifdef HAL_RTC_MODULE_ENABLED
 125:Drivers/STM32L0xx_HAL_Driver/Src/stm32l0xx_hal_rtc_ex.c **** 
 126:Drivers/STM32L0xx_HAL_Driver/Src/stm32l0xx_hal_rtc_ex.c **** /* Private typedef -----------------------------------------------------------*/
 127:Drivers/STM32L0xx_HAL_Driver/Src/stm32l0xx_hal_rtc_ex.c **** /* Private define ------------------------------------------------------------*/
 128:Drivers/STM32L0xx_HAL_Driver/Src/stm32l0xx_hal_rtc_ex.c **** /* Private macro -------------------------------------------------------------*/
 129:Drivers/STM32L0xx_HAL_Driver/Src/stm32l0xx_hal_rtc_ex.c **** /* Private variables ---------------------------------------------------------*/
 130:Drivers/STM32L0xx_HAL_Driver/Src/stm32l0xx_hal_rtc_ex.c **** /* Private function prototypes -----------------------------------------------*/
 131:Drivers/STM32L0xx_HAL_Driver/Src/stm32l0xx_hal_rtc_ex.c **** /* Exported functions --------------------------------------------------------*/
 132:Drivers/STM32L0xx_HAL_Driver/Src/stm32l0xx_hal_rtc_ex.c **** 
 133:Drivers/STM32L0xx_HAL_Driver/Src/stm32l0xx_hal_rtc_ex.c **** /** @defgroup RTCEx_Exported_Functions RTCEx Exported Functions
 134:Drivers/STM32L0xx_HAL_Driver/Src/stm32l0xx_hal_rtc_ex.c ****   * @{
 135:Drivers/STM32L0xx_HAL_Driver/Src/stm32l0xx_hal_rtc_ex.c ****   */
 136:Drivers/STM32L0xx_HAL_Driver/Src/stm32l0xx_hal_rtc_ex.c **** 
 137:Drivers/STM32L0xx_HAL_Driver/Src/stm32l0xx_hal_rtc_ex.c **** /** @defgroup RTCEx_Exported_Functions_Group1 RTC Timestamp and Tamper functions
 138:Drivers/STM32L0xx_HAL_Driver/Src/stm32l0xx_hal_rtc_ex.c ****   * @brief    RTC Timestamp and Tamper functions
 139:Drivers/STM32L0xx_HAL_Driver/Src/stm32l0xx_hal_rtc_ex.c ****   *
 140:Drivers/STM32L0xx_HAL_Driver/Src/stm32l0xx_hal_rtc_ex.c **** @verbatim
 141:Drivers/STM32L0xx_HAL_Driver/Src/stm32l0xx_hal_rtc_ex.c ****  ===============================================================================
 142:Drivers/STM32L0xx_HAL_Driver/Src/stm32l0xx_hal_rtc_ex.c ****                  ##### RTC Timestamp and Tamper functions #####
 143:Drivers/STM32L0xx_HAL_Driver/Src/stm32l0xx_hal_rtc_ex.c ****  ===============================================================================
 144:Drivers/STM32L0xx_HAL_Driver/Src/stm32l0xx_hal_rtc_ex.c **** 
 145:Drivers/STM32L0xx_HAL_Driver/Src/stm32l0xx_hal_rtc_ex.c ****  [..] This section provides functions allowing to configure Timestamp feature
ARM GAS  C:\Users\Tilen\AppData\Local\Temp\ccvNaC6x.s 			page 4


 146:Drivers/STM32L0xx_HAL_Driver/Src/stm32l0xx_hal_rtc_ex.c **** 
 147:Drivers/STM32L0xx_HAL_Driver/Src/stm32l0xx_hal_rtc_ex.c **** @endverbatim
 148:Drivers/STM32L0xx_HAL_Driver/Src/stm32l0xx_hal_rtc_ex.c ****   * @{
 149:Drivers/STM32L0xx_HAL_Driver/Src/stm32l0xx_hal_rtc_ex.c ****   */
 150:Drivers/STM32L0xx_HAL_Driver/Src/stm32l0xx_hal_rtc_ex.c **** 
 151:Drivers/STM32L0xx_HAL_Driver/Src/stm32l0xx_hal_rtc_ex.c **** /**
 152:Drivers/STM32L0xx_HAL_Driver/Src/stm32l0xx_hal_rtc_ex.c ****   * @brief  Sets Timestamp.
 153:Drivers/STM32L0xx_HAL_Driver/Src/stm32l0xx_hal_rtc_ex.c ****   * @note   This API must be called before enabling the Timestamp feature.
 154:Drivers/STM32L0xx_HAL_Driver/Src/stm32l0xx_hal_rtc_ex.c ****   * @param  hrtc pointer to a RTC_HandleTypeDef structure that contains
 155:Drivers/STM32L0xx_HAL_Driver/Src/stm32l0xx_hal_rtc_ex.c ****   *                the configuration information for RTC.
 156:Drivers/STM32L0xx_HAL_Driver/Src/stm32l0xx_hal_rtc_ex.c ****   * @param  RTC_TimeStampEdge Specifies the pin edge on which the Timestamp is
 157:Drivers/STM32L0xx_HAL_Driver/Src/stm32l0xx_hal_rtc_ex.c ****   *         activated.
 158:Drivers/STM32L0xx_HAL_Driver/Src/stm32l0xx_hal_rtc_ex.c ****   *          This parameter can be one of the following values:
 159:Drivers/STM32L0xx_HAL_Driver/Src/stm32l0xx_hal_rtc_ex.c ****   *             @arg RTC_TIMESTAMPEDGE_RISING: the Timestamp event occurs on
 160:Drivers/STM32L0xx_HAL_Driver/Src/stm32l0xx_hal_rtc_ex.c ****   *                                        the rising edge of the related pin.
 161:Drivers/STM32L0xx_HAL_Driver/Src/stm32l0xx_hal_rtc_ex.c ****   *             @arg RTC_TIMESTAMPEDGE_FALLING: the Timestamp event occurs on
 162:Drivers/STM32L0xx_HAL_Driver/Src/stm32l0xx_hal_rtc_ex.c ****   *                                        the falling edge of the related pin.
 163:Drivers/STM32L0xx_HAL_Driver/Src/stm32l0xx_hal_rtc_ex.c ****   * @param  RTC_TimeStampPin Specifies the RTC Timestamp Pin.
 164:Drivers/STM32L0xx_HAL_Driver/Src/stm32l0xx_hal_rtc_ex.c ****   *          This parameter can be one of the following values:
 165:Drivers/STM32L0xx_HAL_Driver/Src/stm32l0xx_hal_rtc_ex.c ****   *             @arg RTC_TIMESTAMPPIN_DEFAULT: PC13 is selected as RTC Timestamp Pin.
 166:Drivers/STM32L0xx_HAL_Driver/Src/stm32l0xx_hal_rtc_ex.c ****   * @note RTC_TIMESTAMPPIN_DEFAULT corresponds to pin:
 167:Drivers/STM32L0xx_HAL_Driver/Src/stm32l0xx_hal_rtc_ex.c ****   *       - PC13 in the case of STM32L05x/6x/7x/8x devices
 168:Drivers/STM32L0xx_HAL_Driver/Src/stm32l0xx_hal_rtc_ex.c ****   *       - PA2 in the case of STM32L01x/2x/3x/4x devices
 169:Drivers/STM32L0xx_HAL_Driver/Src/stm32l0xx_hal_rtc_ex.c ****   * @note Although unused, parameter RTC_TimeStampPin has been kept for portability
 170:Drivers/STM32L0xx_HAL_Driver/Src/stm32l0xx_hal_rtc_ex.c ****   *       reasons.
 171:Drivers/STM32L0xx_HAL_Driver/Src/stm32l0xx_hal_rtc_ex.c ****   * @retval HAL status
 172:Drivers/STM32L0xx_HAL_Driver/Src/stm32l0xx_hal_rtc_ex.c ****   */
 173:Drivers/STM32L0xx_HAL_Driver/Src/stm32l0xx_hal_rtc_ex.c **** HAL_StatusTypeDef HAL_RTCEx_SetTimeStamp(RTC_HandleTypeDef *hrtc, uint32_t RTC_TimeStampEdge, uint3
 174:Drivers/STM32L0xx_HAL_Driver/Src/stm32l0xx_hal_rtc_ex.c **** {
  28              		.loc 1 174 1 view -0
  29              		.cfi_startproc
  30              		@ args = 0, pretend = 0, frame = 0
  31              		@ frame_needed = 0, uses_anonymous_args = 0
  32              		.loc 1 174 1 is_stmt 0 view .LVU1
  33 0000 70B5     		push	{r4, r5, r6, lr}
  34              	.LCFI0:
  35              		.cfi_def_cfa_offset 16
  36              		.cfi_offset 4, -16
  37              		.cfi_offset 5, -12
  38              		.cfi_offset 6, -8
  39              		.cfi_offset 14, -4
  40 0002 0B00     		movs	r3, r1
 175:Drivers/STM32L0xx_HAL_Driver/Src/stm32l0xx_hal_rtc_ex.c ****   uint32_t tmpreg = 0U;
  41              		.loc 1 175 3 is_stmt 1 view .LVU2
  42              	.LVL1:
 176:Drivers/STM32L0xx_HAL_Driver/Src/stm32l0xx_hal_rtc_ex.c **** 
 177:Drivers/STM32L0xx_HAL_Driver/Src/stm32l0xx_hal_rtc_ex.c ****   /* Check the parameters */
 178:Drivers/STM32L0xx_HAL_Driver/Src/stm32l0xx_hal_rtc_ex.c ****   assert_param(IS_TIMESTAMP_EDGE(RTC_TimeStampEdge));
  43              		.loc 1 178 3 view .LVU3
 179:Drivers/STM32L0xx_HAL_Driver/Src/stm32l0xx_hal_rtc_ex.c ****   assert_param(IS_RTC_TIMESTAMP_PIN(RTC_TimeStampPin));
  44              		.loc 1 179 3 view .LVU4
 180:Drivers/STM32L0xx_HAL_Driver/Src/stm32l0xx_hal_rtc_ex.c **** 
 181:Drivers/STM32L0xx_HAL_Driver/Src/stm32l0xx_hal_rtc_ex.c ****   /* Prevent compilation warning due to unused argument(s) if assert_param check
 182:Drivers/STM32L0xx_HAL_Driver/Src/stm32l0xx_hal_rtc_ex.c ****      is disabled */
 183:Drivers/STM32L0xx_HAL_Driver/Src/stm32l0xx_hal_rtc_ex.c ****   UNUSED(RTC_TimeStampPin);
  45              		.loc 1 183 3 view .LVU5
 184:Drivers/STM32L0xx_HAL_Driver/Src/stm32l0xx_hal_rtc_ex.c **** 
ARM GAS  C:\Users\Tilen\AppData\Local\Temp\ccvNaC6x.s 			page 5


 185:Drivers/STM32L0xx_HAL_Driver/Src/stm32l0xx_hal_rtc_ex.c ****   /* Process Locked */
 186:Drivers/STM32L0xx_HAL_Driver/Src/stm32l0xx_hal_rtc_ex.c ****   __HAL_LOCK(hrtc);
  46              		.loc 1 186 3 view .LVU6
  47              		.loc 1 186 3 view .LVU7
  48 0004 2022     		movs	r2, #32
  49              	.LVL2:
  50              		.loc 1 186 3 is_stmt 0 view .LVU8
  51 0006 825C     		ldrb	r2, [r0, r2]
  52 0008 012A     		cmp	r2, #1
  53 000a 2DD0     		beq	.L3
  54              		.loc 1 186 3 is_stmt 1 discriminator 2 view .LVU9
  55 000c 2022     		movs	r2, #32
  56 000e 9446     		mov	ip, r2
  57 0010 0125     		movs	r5, #1
  58 0012 8554     		strb	r5, [r0, r2]
  59              		.loc 1 186 3 view .LVU10
 187:Drivers/STM32L0xx_HAL_Driver/Src/stm32l0xx_hal_rtc_ex.c **** 
 188:Drivers/STM32L0xx_HAL_Driver/Src/stm32l0xx_hal_rtc_ex.c ****   /* Change RTC state to BUSY */
 189:Drivers/STM32L0xx_HAL_Driver/Src/stm32l0xx_hal_rtc_ex.c ****   hrtc->State = HAL_RTC_STATE_BUSY;
  60              		.loc 1 189 3 view .LVU11
  61              		.loc 1 189 15 is_stmt 0 view .LVU12
  62 0014 2124     		movs	r4, #33
  63 0016 1E3A     		subs	r2, r2, #30
  64 0018 0255     		strb	r2, [r0, r4]
 190:Drivers/STM32L0xx_HAL_Driver/Src/stm32l0xx_hal_rtc_ex.c **** 
 191:Drivers/STM32L0xx_HAL_Driver/Src/stm32l0xx_hal_rtc_ex.c ****   /* Get the RTC_CR register and clear the bits to be configured */
 192:Drivers/STM32L0xx_HAL_Driver/Src/stm32l0xx_hal_rtc_ex.c ****   tmpreg = (uint32_t)(hrtc->Instance->CR & (uint32_t)~(RTC_CR_TSEDGE | RTC_CR_TSE));
  65              		.loc 1 192 3 is_stmt 1 view .LVU13
  66              		.loc 1 192 27 is_stmt 0 view .LVU14
  67 001a 0268     		ldr	r2, [r0]
  68              		.loc 1 192 37 view .LVU15
  69 001c 9168     		ldr	r1, [r2, #8]
  70              	.LVL3:
  71              		.loc 1 192 10 view .LVU16
  72 001e 134E     		ldr	r6, .L4
  73 0020 3140     		ands	r1, r6
  74              	.LVL4:
 193:Drivers/STM32L0xx_HAL_Driver/Src/stm32l0xx_hal_rtc_ex.c **** 
 194:Drivers/STM32L0xx_HAL_Driver/Src/stm32l0xx_hal_rtc_ex.c ****   /* Configure the Timestamp TSEDGE bit */
 195:Drivers/STM32L0xx_HAL_Driver/Src/stm32l0xx_hal_rtc_ex.c ****   tmpreg |= RTC_TimeStampEdge;
  75              		.loc 1 195 3 is_stmt 1 view .LVU17
  76              		.loc 1 195 10 is_stmt 0 view .LVU18
  77 0022 1943     		orrs	r1, r3
  78              	.LVL5:
 196:Drivers/STM32L0xx_HAL_Driver/Src/stm32l0xx_hal_rtc_ex.c **** 
 197:Drivers/STM32L0xx_HAL_Driver/Src/stm32l0xx_hal_rtc_ex.c ****   /* Disable the write protection for RTC registers */
 198:Drivers/STM32L0xx_HAL_Driver/Src/stm32l0xx_hal_rtc_ex.c ****   __HAL_RTC_WRITEPROTECTION_DISABLE(hrtc);
  79              		.loc 1 198 3 is_stmt 1 view .LVU19
  80              		.loc 1 198 3 view .LVU20
  81 0024 CA23     		movs	r3, #202
  82              	.LVL6:
  83              		.loc 1 198 3 is_stmt 0 view .LVU21
  84 0026 5362     		str	r3, [r2, #36]
  85              		.loc 1 198 3 is_stmt 1 view .LVU22
  86 0028 0368     		ldr	r3, [r0]
  87 002a 5322     		movs	r2, #83
  88 002c 5A62     		str	r2, [r3, #36]
ARM GAS  C:\Users\Tilen\AppData\Local\Temp\ccvNaC6x.s 			page 6


  89              		.loc 1 198 3 view .LVU23
 199:Drivers/STM32L0xx_HAL_Driver/Src/stm32l0xx_hal_rtc_ex.c **** 
 200:Drivers/STM32L0xx_HAL_Driver/Src/stm32l0xx_hal_rtc_ex.c ****   /* Copy the desired configuration into the CR register */
 201:Drivers/STM32L0xx_HAL_Driver/Src/stm32l0xx_hal_rtc_ex.c ****   hrtc->Instance->CR = (uint32_t)tmpreg;
  90              		.loc 1 201 3 view .LVU24
  91              		.loc 1 201 7 is_stmt 0 view .LVU25
  92 002e 0368     		ldr	r3, [r0]
  93              		.loc 1 201 22 view .LVU26
  94 0030 9960     		str	r1, [r3, #8]
 202:Drivers/STM32L0xx_HAL_Driver/Src/stm32l0xx_hal_rtc_ex.c **** 
 203:Drivers/STM32L0xx_HAL_Driver/Src/stm32l0xx_hal_rtc_ex.c ****   /* Clear RTC Timestamp flag */
 204:Drivers/STM32L0xx_HAL_Driver/Src/stm32l0xx_hal_rtc_ex.c ****   __HAL_RTC_TIMESTAMP_CLEAR_FLAG(hrtc, RTC_FLAG_TSF);
  95              		.loc 1 204 3 is_stmt 1 view .LVU27
  96 0032 0668     		ldr	r6, [r0]
  97 0034 F168     		ldr	r1, [r6, #12]
  98              	.LVL7:
  99              		.loc 1 204 3 is_stmt 0 view .LVU28
 100 0036 FF23     		movs	r3, #255
 101              	.LVL8:
 102              		.loc 1 204 3 view .LVU29
 103 0038 1940     		ands	r1, r3
 104 003a 0D4A     		ldr	r2, .L4+4
 105 003c 0A43     		orrs	r2, r1
 106 003e F260     		str	r2, [r6, #12]
 205:Drivers/STM32L0xx_HAL_Driver/Src/stm32l0xx_hal_rtc_ex.c **** 
 206:Drivers/STM32L0xx_HAL_Driver/Src/stm32l0xx_hal_rtc_ex.c ****   /* Clear RTC Timestamp overrun Flag */
 207:Drivers/STM32L0xx_HAL_Driver/Src/stm32l0xx_hal_rtc_ex.c ****   __HAL_RTC_TIMESTAMP_CLEAR_FLAG(hrtc, RTC_FLAG_TSOVF);
 107              		.loc 1 207 3 is_stmt 1 view .LVU30
 108 0040 0668     		ldr	r6, [r0]
 109 0042 F168     		ldr	r1, [r6, #12]
 110 0044 1940     		ands	r1, r3
 111 0046 0B4A     		ldr	r2, .L4+8
 112 0048 0A43     		orrs	r2, r1
 113 004a F260     		str	r2, [r6, #12]
 208:Drivers/STM32L0xx_HAL_Driver/Src/stm32l0xx_hal_rtc_ex.c **** 
 209:Drivers/STM32L0xx_HAL_Driver/Src/stm32l0xx_hal_rtc_ex.c ****   /* Enable the Timestamp saving */
 210:Drivers/STM32L0xx_HAL_Driver/Src/stm32l0xx_hal_rtc_ex.c ****   __HAL_RTC_TIMESTAMP_ENABLE(hrtc);
 114              		.loc 1 210 3 view .LVU31
 115 004c 0168     		ldr	r1, [r0]
 116 004e 8E68     		ldr	r6, [r1, #8]
 117 0050 8022     		movs	r2, #128
 118 0052 1201     		lsls	r2, r2, #4
 119 0054 3243     		orrs	r2, r6
 120 0056 8A60     		str	r2, [r1, #8]
 211:Drivers/STM32L0xx_HAL_Driver/Src/stm32l0xx_hal_rtc_ex.c **** 
 212:Drivers/STM32L0xx_HAL_Driver/Src/stm32l0xx_hal_rtc_ex.c ****   /* Enable the write protection for RTC registers */
 213:Drivers/STM32L0xx_HAL_Driver/Src/stm32l0xx_hal_rtc_ex.c ****   __HAL_RTC_WRITEPROTECTION_ENABLE(hrtc);
 121              		.loc 1 213 3 view .LVU32
 122              		.loc 1 213 3 view .LVU33
 123 0058 0268     		ldr	r2, [r0]
 124 005a 5362     		str	r3, [r2, #36]
 125              		.loc 1 213 3 view .LVU34
 214:Drivers/STM32L0xx_HAL_Driver/Src/stm32l0xx_hal_rtc_ex.c **** 
 215:Drivers/STM32L0xx_HAL_Driver/Src/stm32l0xx_hal_rtc_ex.c ****   /* Change RTC state back to READY */
 216:Drivers/STM32L0xx_HAL_Driver/Src/stm32l0xx_hal_rtc_ex.c ****   hrtc->State = HAL_RTC_STATE_READY;
 126              		.loc 1 216 3 view .LVU35
 127              		.loc 1 216 15 is_stmt 0 view .LVU36
ARM GAS  C:\Users\Tilen\AppData\Local\Temp\ccvNaC6x.s 			page 7


 128 005c 0555     		strb	r5, [r0, r4]
 217:Drivers/STM32L0xx_HAL_Driver/Src/stm32l0xx_hal_rtc_ex.c **** 
 218:Drivers/STM32L0xx_HAL_Driver/Src/stm32l0xx_hal_rtc_ex.c ****   /* Process Unlocked */
 219:Drivers/STM32L0xx_HAL_Driver/Src/stm32l0xx_hal_rtc_ex.c ****   __HAL_UNLOCK(hrtc);
 129              		.loc 1 219 3 is_stmt 1 view .LVU37
 130              		.loc 1 219 3 view .LVU38
 131 005e 0023     		movs	r3, #0
 132 0060 6246     		mov	r2, ip
 133 0062 8354     		strb	r3, [r0, r2]
 134              		.loc 1 219 3 view .LVU39
 220:Drivers/STM32L0xx_HAL_Driver/Src/stm32l0xx_hal_rtc_ex.c **** 
 221:Drivers/STM32L0xx_HAL_Driver/Src/stm32l0xx_hal_rtc_ex.c ****   return HAL_OK;
 135              		.loc 1 221 3 view .LVU40
 136              		.loc 1 221 10 is_stmt 0 view .LVU41
 137 0064 0020     		movs	r0, #0
 138              	.LVL9:
 139              	.L2:
 222:Drivers/STM32L0xx_HAL_Driver/Src/stm32l0xx_hal_rtc_ex.c **** }
 140              		.loc 1 222 1 view .LVU42
 141              		@ sp needed
 142 0066 70BD     		pop	{r4, r5, r6, pc}
 143              	.LVL10:
 144              	.L3:
 186:Drivers/STM32L0xx_HAL_Driver/Src/stm32l0xx_hal_rtc_ex.c **** 
 145              		.loc 1 186 3 discriminator 1 view .LVU43
 146 0068 0220     		movs	r0, #2
 147              	.LVL11:
 186:Drivers/STM32L0xx_HAL_Driver/Src/stm32l0xx_hal_rtc_ex.c **** 
 148              		.loc 1 186 3 discriminator 1 view .LVU44
 149 006a FCE7     		b	.L2
 150              	.L5:
 151              		.align	2
 152              	.L4:
 153 006c F7F7FFFF 		.word	-2057
 154 0070 7FF7FFFF 		.word	-2177
 155 0074 7FEFFFFF 		.word	-4225
 156              		.cfi_endproc
 157              	.LFE47:
 159              		.section	.text.HAL_RTCEx_SetTimeStamp_IT,"ax",%progbits
 160              		.align	1
 161              		.global	HAL_RTCEx_SetTimeStamp_IT
 162              		.syntax unified
 163              		.code	16
 164              		.thumb_func
 166              	HAL_RTCEx_SetTimeStamp_IT:
 167              	.LVL12:
 168              	.LFB48:
 223:Drivers/STM32L0xx_HAL_Driver/Src/stm32l0xx_hal_rtc_ex.c **** 
 224:Drivers/STM32L0xx_HAL_Driver/Src/stm32l0xx_hal_rtc_ex.c **** /**
 225:Drivers/STM32L0xx_HAL_Driver/Src/stm32l0xx_hal_rtc_ex.c ****   * @brief  Sets Timestamp with Interrupt.
 226:Drivers/STM32L0xx_HAL_Driver/Src/stm32l0xx_hal_rtc_ex.c ****   * @param  hrtc pointer to a RTC_HandleTypeDef structure that contains
 227:Drivers/STM32L0xx_HAL_Driver/Src/stm32l0xx_hal_rtc_ex.c ****   *                the configuration information for RTC.
 228:Drivers/STM32L0xx_HAL_Driver/Src/stm32l0xx_hal_rtc_ex.c ****   * @note   This API must be called before enabling the Timestamp feature.
 229:Drivers/STM32L0xx_HAL_Driver/Src/stm32l0xx_hal_rtc_ex.c ****   * @param  RTC_TimeStampEdge Specifies the pin edge on which the Timestamp is
 230:Drivers/STM32L0xx_HAL_Driver/Src/stm32l0xx_hal_rtc_ex.c ****   *         activated.
 231:Drivers/STM32L0xx_HAL_Driver/Src/stm32l0xx_hal_rtc_ex.c ****   *          This parameter can be one of the following values:
 232:Drivers/STM32L0xx_HAL_Driver/Src/stm32l0xx_hal_rtc_ex.c ****   *             @arg RTC_TIMESTAMPEDGE_RISING: the Timestamp event occurs on
ARM GAS  C:\Users\Tilen\AppData\Local\Temp\ccvNaC6x.s 			page 8


 233:Drivers/STM32L0xx_HAL_Driver/Src/stm32l0xx_hal_rtc_ex.c ****   *                                        the rising edge of the related pin.
 234:Drivers/STM32L0xx_HAL_Driver/Src/stm32l0xx_hal_rtc_ex.c ****   *             @arg RTC_TIMESTAMPEDGE_FALLING: the Timestamp event occurs on
 235:Drivers/STM32L0xx_HAL_Driver/Src/stm32l0xx_hal_rtc_ex.c ****   *                                        the falling edge of the related pin.
 236:Drivers/STM32L0xx_HAL_Driver/Src/stm32l0xx_hal_rtc_ex.c ****   * @param  RTC_TimeStampPin Specifies the RTC Timestamp Pin.
 237:Drivers/STM32L0xx_HAL_Driver/Src/stm32l0xx_hal_rtc_ex.c ****   *          This parameter can be one of the following values:
 238:Drivers/STM32L0xx_HAL_Driver/Src/stm32l0xx_hal_rtc_ex.c ****   *             @arg RTC_TIMESTAMPPIN_DEFAULT: PC13 is selected as RTC Timestamp Pin.
 239:Drivers/STM32L0xx_HAL_Driver/Src/stm32l0xx_hal_rtc_ex.c ****   * @note RTC_TIMESTAMPPIN_DEFAULT corresponds to pin:
 240:Drivers/STM32L0xx_HAL_Driver/Src/stm32l0xx_hal_rtc_ex.c ****   *       - PC13 in the case of STM32L05x/6x/7x/8x devices
 241:Drivers/STM32L0xx_HAL_Driver/Src/stm32l0xx_hal_rtc_ex.c ****   *       - PA2 in the case of STM32L01x/2x/3x/4x devices
 242:Drivers/STM32L0xx_HAL_Driver/Src/stm32l0xx_hal_rtc_ex.c ****   * @note Although unused, parameter RTC_TimeStampPin has been kept for portability
 243:Drivers/STM32L0xx_HAL_Driver/Src/stm32l0xx_hal_rtc_ex.c ****   *       reasons.
 244:Drivers/STM32L0xx_HAL_Driver/Src/stm32l0xx_hal_rtc_ex.c ****   * @retval HAL status
 245:Drivers/STM32L0xx_HAL_Driver/Src/stm32l0xx_hal_rtc_ex.c ****   */
 246:Drivers/STM32L0xx_HAL_Driver/Src/stm32l0xx_hal_rtc_ex.c **** HAL_StatusTypeDef HAL_RTCEx_SetTimeStamp_IT(RTC_HandleTypeDef *hrtc, uint32_t RTC_TimeStampEdge, ui
 247:Drivers/STM32L0xx_HAL_Driver/Src/stm32l0xx_hal_rtc_ex.c **** {
 169              		.loc 1 247 1 is_stmt 1 view -0
 170              		.cfi_startproc
 171              		@ args = 0, pretend = 0, frame = 0
 172              		@ frame_needed = 0, uses_anonymous_args = 0
 173              		.loc 1 247 1 is_stmt 0 view .LVU46
 174 0000 70B5     		push	{r4, r5, r6, lr}
 175              	.LCFI1:
 176              		.cfi_def_cfa_offset 16
 177              		.cfi_offset 4, -16
 178              		.cfi_offset 5, -12
 179              		.cfi_offset 6, -8
 180              		.cfi_offset 14, -4
 181 0002 0B00     		movs	r3, r1
 248:Drivers/STM32L0xx_HAL_Driver/Src/stm32l0xx_hal_rtc_ex.c ****   uint32_t tmpreg = 0U;
 182              		.loc 1 248 3 is_stmt 1 view .LVU47
 183              	.LVL13:
 249:Drivers/STM32L0xx_HAL_Driver/Src/stm32l0xx_hal_rtc_ex.c **** 
 250:Drivers/STM32L0xx_HAL_Driver/Src/stm32l0xx_hal_rtc_ex.c ****   /* Check the parameters */
 251:Drivers/STM32L0xx_HAL_Driver/Src/stm32l0xx_hal_rtc_ex.c ****   assert_param(IS_TIMESTAMP_EDGE(RTC_TimeStampEdge));
 184              		.loc 1 251 3 view .LVU48
 252:Drivers/STM32L0xx_HAL_Driver/Src/stm32l0xx_hal_rtc_ex.c ****   assert_param(IS_RTC_TIMESTAMP_PIN(RTC_TimeStampPin));
 185              		.loc 1 252 3 view .LVU49
 253:Drivers/STM32L0xx_HAL_Driver/Src/stm32l0xx_hal_rtc_ex.c **** 
 254:Drivers/STM32L0xx_HAL_Driver/Src/stm32l0xx_hal_rtc_ex.c ****   /* Prevent compilation warning due to unused argument(s) if assert_param check
 255:Drivers/STM32L0xx_HAL_Driver/Src/stm32l0xx_hal_rtc_ex.c ****      is disabled */
 256:Drivers/STM32L0xx_HAL_Driver/Src/stm32l0xx_hal_rtc_ex.c ****   UNUSED(RTC_TimeStampPin);
 186              		.loc 1 256 3 view .LVU50
 257:Drivers/STM32L0xx_HAL_Driver/Src/stm32l0xx_hal_rtc_ex.c **** 
 258:Drivers/STM32L0xx_HAL_Driver/Src/stm32l0xx_hal_rtc_ex.c ****   /* Process Locked */
 259:Drivers/STM32L0xx_HAL_Driver/Src/stm32l0xx_hal_rtc_ex.c ****   __HAL_LOCK(hrtc);
 187              		.loc 1 259 3 view .LVU51
 188              		.loc 1 259 3 view .LVU52
 189 0004 2022     		movs	r2, #32
 190              	.LVL14:
 191              		.loc 1 259 3 is_stmt 0 view .LVU53
 192 0006 825C     		ldrb	r2, [r0, r2]
 193 0008 012A     		cmp	r2, #1
 194 000a 3CD0     		beq	.L8
 195              		.loc 1 259 3 is_stmt 1 discriminator 2 view .LVU54
 196 000c 2022     		movs	r2, #32
 197 000e 9446     		mov	ip, r2
 198 0010 0125     		movs	r5, #1
ARM GAS  C:\Users\Tilen\AppData\Local\Temp\ccvNaC6x.s 			page 9


 199 0012 8554     		strb	r5, [r0, r2]
 200              		.loc 1 259 3 view .LVU55
 260:Drivers/STM32L0xx_HAL_Driver/Src/stm32l0xx_hal_rtc_ex.c **** 
 261:Drivers/STM32L0xx_HAL_Driver/Src/stm32l0xx_hal_rtc_ex.c ****   /* Change RTC state to BUSY */
 262:Drivers/STM32L0xx_HAL_Driver/Src/stm32l0xx_hal_rtc_ex.c ****   hrtc->State = HAL_RTC_STATE_BUSY;
 201              		.loc 1 262 3 view .LVU56
 202              		.loc 1 262 15 is_stmt 0 view .LVU57
 203 0014 2124     		movs	r4, #33
 204 0016 1E3A     		subs	r2, r2, #30
 205 0018 0255     		strb	r2, [r0, r4]
 263:Drivers/STM32L0xx_HAL_Driver/Src/stm32l0xx_hal_rtc_ex.c **** 
 264:Drivers/STM32L0xx_HAL_Driver/Src/stm32l0xx_hal_rtc_ex.c ****   /* Get the RTC_CR register and clear the bits to be configured */
 265:Drivers/STM32L0xx_HAL_Driver/Src/stm32l0xx_hal_rtc_ex.c ****   tmpreg = (uint32_t)(hrtc->Instance->CR & (uint32_t)~(RTC_CR_TSEDGE | RTC_CR_TSE));
 206              		.loc 1 265 3 is_stmt 1 view .LVU58
 207              		.loc 1 265 27 is_stmt 0 view .LVU59
 208 001a 0268     		ldr	r2, [r0]
 209              		.loc 1 265 37 view .LVU60
 210 001c 9168     		ldr	r1, [r2, #8]
 211              	.LVL15:
 212              		.loc 1 265 10 view .LVU61
 213 001e 1B4E     		ldr	r6, .L9
 214 0020 3140     		ands	r1, r6
 215              	.LVL16:
 266:Drivers/STM32L0xx_HAL_Driver/Src/stm32l0xx_hal_rtc_ex.c **** 
 267:Drivers/STM32L0xx_HAL_Driver/Src/stm32l0xx_hal_rtc_ex.c ****   /* Configure the Timestamp TSEDGE bit */
 268:Drivers/STM32L0xx_HAL_Driver/Src/stm32l0xx_hal_rtc_ex.c ****   tmpreg |= RTC_TimeStampEdge;
 216              		.loc 1 268 3 is_stmt 1 view .LVU62
 217              		.loc 1 268 10 is_stmt 0 view .LVU63
 218 0022 1943     		orrs	r1, r3
 219              	.LVL17:
 269:Drivers/STM32L0xx_HAL_Driver/Src/stm32l0xx_hal_rtc_ex.c **** 
 270:Drivers/STM32L0xx_HAL_Driver/Src/stm32l0xx_hal_rtc_ex.c ****   /* Disable the write protection for RTC registers */
 271:Drivers/STM32L0xx_HAL_Driver/Src/stm32l0xx_hal_rtc_ex.c ****   __HAL_RTC_WRITEPROTECTION_DISABLE(hrtc);
 220              		.loc 1 271 3 is_stmt 1 view .LVU64
 221              		.loc 1 271 3 view .LVU65
 222 0024 CA23     		movs	r3, #202
 223              	.LVL18:
 224              		.loc 1 271 3 is_stmt 0 view .LVU66
 225 0026 5362     		str	r3, [r2, #36]
 226              		.loc 1 271 3 is_stmt 1 view .LVU67
 227 0028 0368     		ldr	r3, [r0]
 228 002a 5322     		movs	r2, #83
 229 002c 5A62     		str	r2, [r3, #36]
 230              		.loc 1 271 3 view .LVU68
 272:Drivers/STM32L0xx_HAL_Driver/Src/stm32l0xx_hal_rtc_ex.c **** 
 273:Drivers/STM32L0xx_HAL_Driver/Src/stm32l0xx_hal_rtc_ex.c ****   /* Copy the desired configuration into the CR register */
 274:Drivers/STM32L0xx_HAL_Driver/Src/stm32l0xx_hal_rtc_ex.c ****   hrtc->Instance->CR = (uint32_t)tmpreg;
 231              		.loc 1 274 3 view .LVU69
 232              		.loc 1 274 7 is_stmt 0 view .LVU70
 233 002e 0368     		ldr	r3, [r0]
 234              		.loc 1 274 22 view .LVU71
 235 0030 9960     		str	r1, [r3, #8]
 275:Drivers/STM32L0xx_HAL_Driver/Src/stm32l0xx_hal_rtc_ex.c **** 
 276:Drivers/STM32L0xx_HAL_Driver/Src/stm32l0xx_hal_rtc_ex.c ****   /* Clear RTC Timestamp flag */
 277:Drivers/STM32L0xx_HAL_Driver/Src/stm32l0xx_hal_rtc_ex.c ****   __HAL_RTC_TIMESTAMP_CLEAR_FLAG(hrtc, RTC_FLAG_TSF);
 236              		.loc 1 277 3 is_stmt 1 view .LVU72
 237 0032 0668     		ldr	r6, [r0]
ARM GAS  C:\Users\Tilen\AppData\Local\Temp\ccvNaC6x.s 			page 10


 238 0034 F168     		ldr	r1, [r6, #12]
 239              	.LVL19:
 240              		.loc 1 277 3 is_stmt 0 view .LVU73
 241 0036 FF23     		movs	r3, #255
 242              	.LVL20:
 243              		.loc 1 277 3 view .LVU74
 244 0038 1940     		ands	r1, r3
 245 003a 154A     		ldr	r2, .L9+4
 246 003c 0A43     		orrs	r2, r1
 247 003e F260     		str	r2, [r6, #12]
 278:Drivers/STM32L0xx_HAL_Driver/Src/stm32l0xx_hal_rtc_ex.c **** 
 279:Drivers/STM32L0xx_HAL_Driver/Src/stm32l0xx_hal_rtc_ex.c ****   /* Clear RTC Timestamp overrun Flag */
 280:Drivers/STM32L0xx_HAL_Driver/Src/stm32l0xx_hal_rtc_ex.c ****   __HAL_RTC_TIMESTAMP_CLEAR_FLAG(hrtc, RTC_FLAG_TSOVF);
 248              		.loc 1 280 3 is_stmt 1 view .LVU75
 249 0040 0668     		ldr	r6, [r0]
 250 0042 F168     		ldr	r1, [r6, #12]
 251 0044 1940     		ands	r1, r3
 252 0046 134A     		ldr	r2, .L9+8
 253 0048 0A43     		orrs	r2, r1
 254 004a F260     		str	r2, [r6, #12]
 281:Drivers/STM32L0xx_HAL_Driver/Src/stm32l0xx_hal_rtc_ex.c **** 
 282:Drivers/STM32L0xx_HAL_Driver/Src/stm32l0xx_hal_rtc_ex.c ****   /* Enable the Timestamp saving */
 283:Drivers/STM32L0xx_HAL_Driver/Src/stm32l0xx_hal_rtc_ex.c ****   __HAL_RTC_TIMESTAMP_ENABLE(hrtc);
 255              		.loc 1 283 3 view .LVU76
 256 004c 0168     		ldr	r1, [r0]
 257 004e 8E68     		ldr	r6, [r1, #8]
 258 0050 8022     		movs	r2, #128
 259 0052 1201     		lsls	r2, r2, #4
 260 0054 3243     		orrs	r2, r6
 261 0056 8A60     		str	r2, [r1, #8]
 284:Drivers/STM32L0xx_HAL_Driver/Src/stm32l0xx_hal_rtc_ex.c **** 
 285:Drivers/STM32L0xx_HAL_Driver/Src/stm32l0xx_hal_rtc_ex.c ****   /* Enable IT Timestamp */
 286:Drivers/STM32L0xx_HAL_Driver/Src/stm32l0xx_hal_rtc_ex.c ****   __HAL_RTC_TIMESTAMP_ENABLE_IT(hrtc, RTC_IT_TS);
 262              		.loc 1 286 3 view .LVU77
 263 0058 0168     		ldr	r1, [r0]
 264 005a 8E68     		ldr	r6, [r1, #8]
 265 005c 8022     		movs	r2, #128
 266 005e 1202     		lsls	r2, r2, #8
 267 0060 3243     		orrs	r2, r6
 268 0062 8A60     		str	r2, [r1, #8]
 287:Drivers/STM32L0xx_HAL_Driver/Src/stm32l0xx_hal_rtc_ex.c **** 
 288:Drivers/STM32L0xx_HAL_Driver/Src/stm32l0xx_hal_rtc_ex.c ****   /* Enable the write protection for RTC registers */
 289:Drivers/STM32L0xx_HAL_Driver/Src/stm32l0xx_hal_rtc_ex.c ****   __HAL_RTC_WRITEPROTECTION_ENABLE(hrtc);
 269              		.loc 1 289 3 view .LVU78
 270              		.loc 1 289 3 view .LVU79
 271 0064 0268     		ldr	r2, [r0]
 272 0066 5362     		str	r3, [r2, #36]
 273              		.loc 1 289 3 view .LVU80
 290:Drivers/STM32L0xx_HAL_Driver/Src/stm32l0xx_hal_rtc_ex.c **** 
 291:Drivers/STM32L0xx_HAL_Driver/Src/stm32l0xx_hal_rtc_ex.c ****   /* Enable and configure the EXTI line associated to the RTC Timestamp and Tamper interrupts */
 292:Drivers/STM32L0xx_HAL_Driver/Src/stm32l0xx_hal_rtc_ex.c ****   __HAL_RTC_TAMPER_TIMESTAMP_EXTI_ENABLE_IT();
 274              		.loc 1 292 3 view .LVU81
 275 0068 0B4B     		ldr	r3, .L9+12
 276 006a 1968     		ldr	r1, [r3]
 277 006c 8022     		movs	r2, #128
 278 006e 1203     		lsls	r2, r2, #12
 279 0070 1143     		orrs	r1, r2
ARM GAS  C:\Users\Tilen\AppData\Local\Temp\ccvNaC6x.s 			page 11


 280 0072 1960     		str	r1, [r3]
 293:Drivers/STM32L0xx_HAL_Driver/Src/stm32l0xx_hal_rtc_ex.c ****   __HAL_RTC_TAMPER_TIMESTAMP_EXTI_ENABLE_RISING_EDGE();
 281              		.loc 1 293 3 view .LVU82
 282 0074 9968     		ldr	r1, [r3, #8]
 283 0076 0A43     		orrs	r2, r1
 284 0078 9A60     		str	r2, [r3, #8]
 294:Drivers/STM32L0xx_HAL_Driver/Src/stm32l0xx_hal_rtc_ex.c **** 
 295:Drivers/STM32L0xx_HAL_Driver/Src/stm32l0xx_hal_rtc_ex.c ****   /* Change RTC state back to READY */
 296:Drivers/STM32L0xx_HAL_Driver/Src/stm32l0xx_hal_rtc_ex.c ****   hrtc->State = HAL_RTC_STATE_READY;
 285              		.loc 1 296 3 view .LVU83
 286              		.loc 1 296 15 is_stmt 0 view .LVU84
 287 007a 0555     		strb	r5, [r0, r4]
 297:Drivers/STM32L0xx_HAL_Driver/Src/stm32l0xx_hal_rtc_ex.c **** 
 298:Drivers/STM32L0xx_HAL_Driver/Src/stm32l0xx_hal_rtc_ex.c ****   /* Process Unlocked */
 299:Drivers/STM32L0xx_HAL_Driver/Src/stm32l0xx_hal_rtc_ex.c ****   __HAL_UNLOCK(hrtc);
 288              		.loc 1 299 3 is_stmt 1 view .LVU85
 289              		.loc 1 299 3 view .LVU86
 290 007c 0023     		movs	r3, #0
 291 007e 6246     		mov	r2, ip
 292 0080 8354     		strb	r3, [r0, r2]
 293              		.loc 1 299 3 view .LVU87
 300:Drivers/STM32L0xx_HAL_Driver/Src/stm32l0xx_hal_rtc_ex.c **** 
 301:Drivers/STM32L0xx_HAL_Driver/Src/stm32l0xx_hal_rtc_ex.c ****   return HAL_OK;
 294              		.loc 1 301 3 view .LVU88
 295              		.loc 1 301 10 is_stmt 0 view .LVU89
 296 0082 0020     		movs	r0, #0
 297              	.LVL21:
 298              	.L7:
 302:Drivers/STM32L0xx_HAL_Driver/Src/stm32l0xx_hal_rtc_ex.c **** }
 299              		.loc 1 302 1 view .LVU90
 300              		@ sp needed
 301 0084 70BD     		pop	{r4, r5, r6, pc}
 302              	.LVL22:
 303              	.L8:
 259:Drivers/STM32L0xx_HAL_Driver/Src/stm32l0xx_hal_rtc_ex.c **** 
 304              		.loc 1 259 3 discriminator 1 view .LVU91
 305 0086 0220     		movs	r0, #2
 306              	.LVL23:
 259:Drivers/STM32L0xx_HAL_Driver/Src/stm32l0xx_hal_rtc_ex.c **** 
 307              		.loc 1 259 3 discriminator 1 view .LVU92
 308 0088 FCE7     		b	.L7
 309              	.L10:
 310 008a C046     		.align	2
 311              	.L9:
 312 008c F7F7FFFF 		.word	-2057
 313 0090 7FF7FFFF 		.word	-2177
 314 0094 7FEFFFFF 		.word	-4225
 315 0098 00040140 		.word	1073808384
 316              		.cfi_endproc
 317              	.LFE48:
 319              		.section	.text.HAL_RTCEx_DeactivateTimeStamp,"ax",%progbits
 320              		.align	1
 321              		.global	HAL_RTCEx_DeactivateTimeStamp
 322              		.syntax unified
 323              		.code	16
 324              		.thumb_func
 326              	HAL_RTCEx_DeactivateTimeStamp:
ARM GAS  C:\Users\Tilen\AppData\Local\Temp\ccvNaC6x.s 			page 12


 327              	.LVL24:
 328              	.LFB49:
 303:Drivers/STM32L0xx_HAL_Driver/Src/stm32l0xx_hal_rtc_ex.c **** 
 304:Drivers/STM32L0xx_HAL_Driver/Src/stm32l0xx_hal_rtc_ex.c **** /**
 305:Drivers/STM32L0xx_HAL_Driver/Src/stm32l0xx_hal_rtc_ex.c ****   * @brief  Deactivates Timestamp.
 306:Drivers/STM32L0xx_HAL_Driver/Src/stm32l0xx_hal_rtc_ex.c ****   * @param  hrtc pointer to a RTC_HandleTypeDef structure that contains
 307:Drivers/STM32L0xx_HAL_Driver/Src/stm32l0xx_hal_rtc_ex.c ****   *                the configuration information for RTC.
 308:Drivers/STM32L0xx_HAL_Driver/Src/stm32l0xx_hal_rtc_ex.c ****   * @retval HAL status
 309:Drivers/STM32L0xx_HAL_Driver/Src/stm32l0xx_hal_rtc_ex.c ****   */
 310:Drivers/STM32L0xx_HAL_Driver/Src/stm32l0xx_hal_rtc_ex.c **** HAL_StatusTypeDef HAL_RTCEx_DeactivateTimeStamp(RTC_HandleTypeDef *hrtc)
 311:Drivers/STM32L0xx_HAL_Driver/Src/stm32l0xx_hal_rtc_ex.c **** {
 329              		.loc 1 311 1 is_stmt 1 view -0
 330              		.cfi_startproc
 331              		@ args = 0, pretend = 0, frame = 0
 332              		@ frame_needed = 0, uses_anonymous_args = 0
 333              		.loc 1 311 1 is_stmt 0 view .LVU94
 334 0000 30B5     		push	{r4, r5, lr}
 335              	.LCFI2:
 336              		.cfi_def_cfa_offset 12
 337              		.cfi_offset 4, -12
 338              		.cfi_offset 5, -8
 339              		.cfi_offset 14, -4
 312:Drivers/STM32L0xx_HAL_Driver/Src/stm32l0xx_hal_rtc_ex.c ****   uint32_t tmpreg = 0U;
 340              		.loc 1 312 3 is_stmt 1 view .LVU95
 341              	.LVL25:
 313:Drivers/STM32L0xx_HAL_Driver/Src/stm32l0xx_hal_rtc_ex.c **** 
 314:Drivers/STM32L0xx_HAL_Driver/Src/stm32l0xx_hal_rtc_ex.c ****   /* Process Locked */
 315:Drivers/STM32L0xx_HAL_Driver/Src/stm32l0xx_hal_rtc_ex.c ****   __HAL_LOCK(hrtc);
 342              		.loc 1 315 3 view .LVU96
 343              		.loc 1 315 3 view .LVU97
 344 0002 2023     		movs	r3, #32
 345 0004 C35C     		ldrb	r3, [r0, r3]
 346 0006 012B     		cmp	r3, #1
 347 0008 1FD0     		beq	.L13
 348              		.loc 1 315 3 discriminator 2 view .LVU98
 349 000a 2022     		movs	r2, #32
 350 000c 0123     		movs	r3, #1
 351 000e 9C46     		mov	ip, r3
 352 0010 8354     		strb	r3, [r0, r2]
 353              		.loc 1 315 3 view .LVU99
 316:Drivers/STM32L0xx_HAL_Driver/Src/stm32l0xx_hal_rtc_ex.c **** 
 317:Drivers/STM32L0xx_HAL_Driver/Src/stm32l0xx_hal_rtc_ex.c ****   hrtc->State = HAL_RTC_STATE_BUSY;
 354              		.loc 1 317 3 view .LVU100
 355              		.loc 1 317 15 is_stmt 0 view .LVU101
 356 0012 2121     		movs	r1, #33
 357 0014 0133     		adds	r3, r3, #1
 358 0016 4354     		strb	r3, [r0, r1]
 318:Drivers/STM32L0xx_HAL_Driver/Src/stm32l0xx_hal_rtc_ex.c **** 
 319:Drivers/STM32L0xx_HAL_Driver/Src/stm32l0xx_hal_rtc_ex.c ****   /* Disable the write protection for RTC registers */
 320:Drivers/STM32L0xx_HAL_Driver/Src/stm32l0xx_hal_rtc_ex.c ****   __HAL_RTC_WRITEPROTECTION_DISABLE(hrtc);
 359              		.loc 1 320 3 is_stmt 1 view .LVU102
 360              		.loc 1 320 3 view .LVU103
 361 0018 0368     		ldr	r3, [r0]
 362 001a CA24     		movs	r4, #202
 363 001c 5C62     		str	r4, [r3, #36]
 364              		.loc 1 320 3 view .LVU104
 365 001e 0368     		ldr	r3, [r0]
ARM GAS  C:\Users\Tilen\AppData\Local\Temp\ccvNaC6x.s 			page 13


 366 0020 773C     		subs	r4, r4, #119
 367 0022 5C62     		str	r4, [r3, #36]
 368              		.loc 1 320 3 view .LVU105
 321:Drivers/STM32L0xx_HAL_Driver/Src/stm32l0xx_hal_rtc_ex.c **** 
 322:Drivers/STM32L0xx_HAL_Driver/Src/stm32l0xx_hal_rtc_ex.c ****   /* In case interrupt mode is used, the interrupt source must disabled */
 323:Drivers/STM32L0xx_HAL_Driver/Src/stm32l0xx_hal_rtc_ex.c ****   __HAL_RTC_TIMESTAMP_DISABLE_IT(hrtc, RTC_IT_TS);
 369              		.loc 1 323 3 view .LVU106
 370 0024 0468     		ldr	r4, [r0]
 371 0026 A368     		ldr	r3, [r4, #8]
 372 0028 094D     		ldr	r5, .L14
 373 002a 2B40     		ands	r3, r5
 374 002c A360     		str	r3, [r4, #8]
 324:Drivers/STM32L0xx_HAL_Driver/Src/stm32l0xx_hal_rtc_ex.c **** 
 325:Drivers/STM32L0xx_HAL_Driver/Src/stm32l0xx_hal_rtc_ex.c ****   /* Get the RTC_CR register and clear the bits to be configured */
 326:Drivers/STM32L0xx_HAL_Driver/Src/stm32l0xx_hal_rtc_ex.c ****   tmpreg = (uint32_t)(hrtc->Instance->CR & (uint32_t)~(RTC_CR_TSEDGE | RTC_CR_TSE));
 375              		.loc 1 326 3 view .LVU107
 376              		.loc 1 326 27 is_stmt 0 view .LVU108
 377 002e 0468     		ldr	r4, [r0]
 378              		.loc 1 326 37 view .LVU109
 379 0030 A368     		ldr	r3, [r4, #8]
 380              		.loc 1 326 10 view .LVU110
 381 0032 084D     		ldr	r5, .L14+4
 382 0034 2B40     		ands	r3, r5
 383              	.LVL26:
 327:Drivers/STM32L0xx_HAL_Driver/Src/stm32l0xx_hal_rtc_ex.c **** 
 328:Drivers/STM32L0xx_HAL_Driver/Src/stm32l0xx_hal_rtc_ex.c ****   /* Configure the Timestamp TSEDGE and Enable bits */
 329:Drivers/STM32L0xx_HAL_Driver/Src/stm32l0xx_hal_rtc_ex.c ****   hrtc->Instance->CR = (uint32_t)tmpreg;
 384              		.loc 1 329 3 is_stmt 1 view .LVU111
 385              		.loc 1 329 22 is_stmt 0 view .LVU112
 386 0036 A360     		str	r3, [r4, #8]
 330:Drivers/STM32L0xx_HAL_Driver/Src/stm32l0xx_hal_rtc_ex.c **** 
 331:Drivers/STM32L0xx_HAL_Driver/Src/stm32l0xx_hal_rtc_ex.c ****   /* Enable the write protection for RTC registers */
 332:Drivers/STM32L0xx_HAL_Driver/Src/stm32l0xx_hal_rtc_ex.c ****   __HAL_RTC_WRITEPROTECTION_ENABLE(hrtc);
 387              		.loc 1 332 3 is_stmt 1 view .LVU113
 388              		.loc 1 332 3 view .LVU114
 389 0038 0368     		ldr	r3, [r0]
 390              	.LVL27:
 391              		.loc 1 332 3 is_stmt 0 view .LVU115
 392 003a FF24     		movs	r4, #255
 393              	.LVL28:
 394              		.loc 1 332 3 view .LVU116
 395 003c 5C62     		str	r4, [r3, #36]
 396              		.loc 1 332 3 is_stmt 1 view .LVU117
 333:Drivers/STM32L0xx_HAL_Driver/Src/stm32l0xx_hal_rtc_ex.c **** 
 334:Drivers/STM32L0xx_HAL_Driver/Src/stm32l0xx_hal_rtc_ex.c ****   hrtc->State = HAL_RTC_STATE_READY;
 397              		.loc 1 334 3 view .LVU118
 398              		.loc 1 334 15 is_stmt 0 view .LVU119
 399 003e 6346     		mov	r3, ip
 400 0040 4354     		strb	r3, [r0, r1]
 335:Drivers/STM32L0xx_HAL_Driver/Src/stm32l0xx_hal_rtc_ex.c **** 
 336:Drivers/STM32L0xx_HAL_Driver/Src/stm32l0xx_hal_rtc_ex.c ****   /* Process Unlocked */
 337:Drivers/STM32L0xx_HAL_Driver/Src/stm32l0xx_hal_rtc_ex.c ****   __HAL_UNLOCK(hrtc);
 401              		.loc 1 337 3 is_stmt 1 view .LVU120
 402              		.loc 1 337 3 view .LVU121
 403 0042 0023     		movs	r3, #0
 404 0044 8354     		strb	r3, [r0, r2]
 405              		.loc 1 337 3 view .LVU122
ARM GAS  C:\Users\Tilen\AppData\Local\Temp\ccvNaC6x.s 			page 14


 338:Drivers/STM32L0xx_HAL_Driver/Src/stm32l0xx_hal_rtc_ex.c **** 
 339:Drivers/STM32L0xx_HAL_Driver/Src/stm32l0xx_hal_rtc_ex.c ****   return HAL_OK;
 406              		.loc 1 339 3 view .LVU123
 407              		.loc 1 339 10 is_stmt 0 view .LVU124
 408 0046 0020     		movs	r0, #0
 409              	.LVL29:
 410              	.L12:
 340:Drivers/STM32L0xx_HAL_Driver/Src/stm32l0xx_hal_rtc_ex.c **** }
 411              		.loc 1 340 1 view .LVU125
 412              		@ sp needed
 413 0048 30BD     		pop	{r4, r5, pc}
 414              	.LVL30:
 415              	.L13:
 315:Drivers/STM32L0xx_HAL_Driver/Src/stm32l0xx_hal_rtc_ex.c **** 
 416              		.loc 1 315 3 discriminator 1 view .LVU126
 417 004a 0220     		movs	r0, #2
 418              	.LVL31:
 315:Drivers/STM32L0xx_HAL_Driver/Src/stm32l0xx_hal_rtc_ex.c **** 
 419              		.loc 1 315 3 discriminator 1 view .LVU127
 420 004c FCE7     		b	.L12
 421              	.L15:
 422 004e C046     		.align	2
 423              	.L14:
 424 0050 FF7FFFFF 		.word	-32769
 425 0054 F7F7FFFF 		.word	-2057
 426              		.cfi_endproc
 427              	.LFE49:
 429              		.section	.text.HAL_RTCEx_GetTimeStamp,"ax",%progbits
 430              		.align	1
 431              		.global	HAL_RTCEx_GetTimeStamp
 432              		.syntax unified
 433              		.code	16
 434              		.thumb_func
 436              	HAL_RTCEx_GetTimeStamp:
 437              	.LVL32:
 438              	.LFB50:
 341:Drivers/STM32L0xx_HAL_Driver/Src/stm32l0xx_hal_rtc_ex.c **** 
 342:Drivers/STM32L0xx_HAL_Driver/Src/stm32l0xx_hal_rtc_ex.c **** /**
 343:Drivers/STM32L0xx_HAL_Driver/Src/stm32l0xx_hal_rtc_ex.c ****   * @brief  Gets the RTC Timestamp value.
 344:Drivers/STM32L0xx_HAL_Driver/Src/stm32l0xx_hal_rtc_ex.c ****   * @param  hrtc pointer to a RTC_HandleTypeDef structure that contains
 345:Drivers/STM32L0xx_HAL_Driver/Src/stm32l0xx_hal_rtc_ex.c ****   *                the configuration information for RTC.
 346:Drivers/STM32L0xx_HAL_Driver/Src/stm32l0xx_hal_rtc_ex.c ****   * @param  sTimeStamp Pointer to Time structure
 347:Drivers/STM32L0xx_HAL_Driver/Src/stm32l0xx_hal_rtc_ex.c ****   * @param  sTimeStampDate Pointer to Date structure
 348:Drivers/STM32L0xx_HAL_Driver/Src/stm32l0xx_hal_rtc_ex.c ****   * @param  Format specifies the format of the entered parameters.
 349:Drivers/STM32L0xx_HAL_Driver/Src/stm32l0xx_hal_rtc_ex.c ****   *          This parameter can be one of the following values:
 350:Drivers/STM32L0xx_HAL_Driver/Src/stm32l0xx_hal_rtc_ex.c ****   *             @arg RTC_FORMAT_BIN: Binary data format
 351:Drivers/STM32L0xx_HAL_Driver/Src/stm32l0xx_hal_rtc_ex.c ****   *             @arg RTC_FORMAT_BCD: BCD data format
 352:Drivers/STM32L0xx_HAL_Driver/Src/stm32l0xx_hal_rtc_ex.c ****   * @retval HAL status
 353:Drivers/STM32L0xx_HAL_Driver/Src/stm32l0xx_hal_rtc_ex.c ****   */
 354:Drivers/STM32L0xx_HAL_Driver/Src/stm32l0xx_hal_rtc_ex.c **** HAL_StatusTypeDef HAL_RTCEx_GetTimeStamp(RTC_HandleTypeDef *hrtc, RTC_TimeTypeDef *sTimeStamp, RTC_
 355:Drivers/STM32L0xx_HAL_Driver/Src/stm32l0xx_hal_rtc_ex.c **** {
 439              		.loc 1 355 1 is_stmt 1 view -0
 440              		.cfi_startproc
 441              		@ args = 0, pretend = 0, frame = 0
 442              		@ frame_needed = 0, uses_anonymous_args = 0
 443              		.loc 1 355 1 is_stmt 0 view .LVU129
 444 0000 F8B5     		push	{r3, r4, r5, r6, r7, lr}
ARM GAS  C:\Users\Tilen\AppData\Local\Temp\ccvNaC6x.s 			page 15


 445              	.LCFI3:
 446              		.cfi_def_cfa_offset 24
 447              		.cfi_offset 3, -24
 448              		.cfi_offset 4, -20
 449              		.cfi_offset 5, -16
 450              		.cfi_offset 6, -12
 451              		.cfi_offset 7, -8
 452              		.cfi_offset 14, -4
 453 0002 0600     		movs	r6, r0
 454 0004 0C00     		movs	r4, r1
 455 0006 1500     		movs	r5, r2
 456 0008 9C46     		mov	ip, r3
 356:Drivers/STM32L0xx_HAL_Driver/Src/stm32l0xx_hal_rtc_ex.c ****   uint32_t tmptime = 0U;
 457              		.loc 1 356 3 is_stmt 1 view .LVU130
 458              	.LVL33:
 357:Drivers/STM32L0xx_HAL_Driver/Src/stm32l0xx_hal_rtc_ex.c ****   uint32_t tmpdate = 0U;
 459              		.loc 1 357 3 view .LVU131
 358:Drivers/STM32L0xx_HAL_Driver/Src/stm32l0xx_hal_rtc_ex.c **** 
 359:Drivers/STM32L0xx_HAL_Driver/Src/stm32l0xx_hal_rtc_ex.c ****   /* Check the parameters */
 360:Drivers/STM32L0xx_HAL_Driver/Src/stm32l0xx_hal_rtc_ex.c ****   assert_param(IS_RTC_FORMAT(Format));
 460              		.loc 1 360 3 view .LVU132
 361:Drivers/STM32L0xx_HAL_Driver/Src/stm32l0xx_hal_rtc_ex.c **** 
 362:Drivers/STM32L0xx_HAL_Driver/Src/stm32l0xx_hal_rtc_ex.c ****   /* Get the Timestamp time and date registers values */
 363:Drivers/STM32L0xx_HAL_Driver/Src/stm32l0xx_hal_rtc_ex.c ****   tmptime = (uint32_t)(hrtc->Instance->TSTR & RTC_TR_RESERVED_MASK);
 461              		.loc 1 363 3 view .LVU133
 462              		.loc 1 363 28 is_stmt 0 view .LVU134
 463 000a 0368     		ldr	r3, [r0]
 464              	.LVL34:
 465              		.loc 1 363 38 view .LVU135
 466 000c 196B     		ldr	r1, [r3, #48]
 467              	.LVL35:
 468              		.loc 1 363 11 view .LVU136
 469 000e 224A     		ldr	r2, .L19
 470              	.LVL36:
 471              		.loc 1 363 11 view .LVU137
 472 0010 1140     		ands	r1, r2
 473              	.LVL37:
 364:Drivers/STM32L0xx_HAL_Driver/Src/stm32l0xx_hal_rtc_ex.c ****   tmpdate = (uint32_t)(hrtc->Instance->TSDR & RTC_DR_RESERVED_MASK);
 474              		.loc 1 364 3 is_stmt 1 view .LVU138
 475              		.loc 1 364 38 is_stmt 0 view .LVU139
 476 0012 5A6B     		ldr	r2, [r3, #52]
 477              		.loc 1 364 11 view .LVU140
 478 0014 214B     		ldr	r3, .L19+4
 479 0016 1A40     		ands	r2, r3
 480              	.LVL38:
 365:Drivers/STM32L0xx_HAL_Driver/Src/stm32l0xx_hal_rtc_ex.c **** 
 366:Drivers/STM32L0xx_HAL_Driver/Src/stm32l0xx_hal_rtc_ex.c ****   /* Fill the Time structure fields with the read parameters */
 367:Drivers/STM32L0xx_HAL_Driver/Src/stm32l0xx_hal_rtc_ex.c ****   sTimeStamp->Hours      = (uint8_t)((tmptime & (RTC_TSTR_HT  | RTC_TSTR_HU))  >> RTC_TSTR_HU_Pos);
 481              		.loc 1 367 3 is_stmt 1 view .LVU141
 482              		.loc 1 367 80 is_stmt 0 view .LVU142
 483 0018 0B0C     		lsrs	r3, r1, #16
 484              		.loc 1 367 28 view .LVU143
 485 001a 3F20     		movs	r0, #63
 486              	.LVL39:
 487              		.loc 1 367 28 view .LVU144
 488 001c 0340     		ands	r3, r0
 489              		.loc 1 367 26 view .LVU145
ARM GAS  C:\Users\Tilen\AppData\Local\Temp\ccvNaC6x.s 			page 16


 490 001e 2370     		strb	r3, [r4]
 368:Drivers/STM32L0xx_HAL_Driver/Src/stm32l0xx_hal_rtc_ex.c ****   sTimeStamp->Minutes    = (uint8_t)((tmptime & (RTC_TSTR_MNT | RTC_TSTR_MNU)) >> RTC_TSTR_MNU_Pos)
 491              		.loc 1 368 3 is_stmt 1 view .LVU146
 492              		.loc 1 368 80 is_stmt 0 view .LVU147
 493 0020 0F0A     		lsrs	r7, r1, #8
 494              		.loc 1 368 28 view .LVU148
 495 0022 7F23     		movs	r3, #127
 496 0024 1F40     		ands	r7, r3
 497              		.loc 1 368 26 view .LVU149
 498 0026 6770     		strb	r7, [r4, #1]
 369:Drivers/STM32L0xx_HAL_Driver/Src/stm32l0xx_hal_rtc_ex.c ****   sTimeStamp->Seconds    = (uint8_t)((tmptime & (RTC_TSTR_ST  | RTC_TSTR_SU))  >> RTC_TSTR_SU_Pos);
 499              		.loc 1 369 3 is_stmt 1 view .LVU150
 500              		.loc 1 369 28 is_stmt 0 view .LVU151
 501 0028 0B40     		ands	r3, r1
 502              		.loc 1 369 26 view .LVU152
 503 002a A370     		strb	r3, [r4, #2]
 370:Drivers/STM32L0xx_HAL_Driver/Src/stm32l0xx_hal_rtc_ex.c ****   sTimeStamp->TimeFormat = (uint8_t)((tmptime & (RTC_TSTR_PM))                 >> RTC_TSTR_PM_Pos);
 504              		.loc 1 370 3 is_stmt 1 view .LVU153
 505              		.loc 1 370 28 is_stmt 0 view .LVU154
 506 002c 890D     		lsrs	r1, r1, #22
 507              	.LVL40:
 508              		.loc 1 370 26 view .LVU155
 509 002e E170     		strb	r1, [r4, #3]
 371:Drivers/STM32L0xx_HAL_Driver/Src/stm32l0xx_hal_rtc_ex.c ****   sTimeStamp->SubSeconds = (uint32_t) hrtc->Instance->TSSSR;
 510              		.loc 1 371 3 is_stmt 1 view .LVU156
 511              		.loc 1 371 43 is_stmt 0 view .LVU157
 512 0030 3368     		ldr	r3, [r6]
 513              		.loc 1 371 53 view .LVU158
 514 0032 9B6B     		ldr	r3, [r3, #56]
 515              		.loc 1 371 26 view .LVU159
 516 0034 6360     		str	r3, [r4, #4]
 372:Drivers/STM32L0xx_HAL_Driver/Src/stm32l0xx_hal_rtc_ex.c **** 
 373:Drivers/STM32L0xx_HAL_Driver/Src/stm32l0xx_hal_rtc_ex.c ****   /* Fill the Date structure fields with the read parameters */
 374:Drivers/STM32L0xx_HAL_Driver/Src/stm32l0xx_hal_rtc_ex.c ****   sTimeStampDate->Year    = 0U;
 517              		.loc 1 374 3 is_stmt 1 view .LVU160
 518              		.loc 1 374 27 is_stmt 0 view .LVU161
 519 0036 0023     		movs	r3, #0
 520 0038 EB70     		strb	r3, [r5, #3]
 375:Drivers/STM32L0xx_HAL_Driver/Src/stm32l0xx_hal_rtc_ex.c ****   sTimeStampDate->Month   = (uint8_t)((tmpdate & (RTC_TSDR_MT | RTC_TSDR_MU)) >> RTC_TSDR_MU_Pos);
 521              		.loc 1 375 3 is_stmt 1 view .LVU162
 522              		.loc 1 375 79 is_stmt 0 view .LVU163
 523 003a 110A     		lsrs	r1, r2, #8
 524              		.loc 1 375 29 view .LVU164
 525 003c 1F33     		adds	r3, r3, #31
 526 003e 0B40     		ands	r3, r1
 527              		.loc 1 375 27 view .LVU165
 528 0040 6B70     		strb	r3, [r5, #1]
 376:Drivers/STM32L0xx_HAL_Driver/Src/stm32l0xx_hal_rtc_ex.c ****   sTimeStampDate->Date    = (uint8_t)((tmpdate & (RTC_TSDR_DT | RTC_TSDR_DU)) >> RTC_TSDR_DU_Pos);
 529              		.loc 1 376 3 is_stmt 1 view .LVU166
 530              		.loc 1 376 29 is_stmt 0 view .LVU167
 531 0042 1040     		ands	r0, r2
 532              		.loc 1 376 27 view .LVU168
 533 0044 A870     		strb	r0, [r5, #2]
 377:Drivers/STM32L0xx_HAL_Driver/Src/stm32l0xx_hal_rtc_ex.c ****   sTimeStampDate->WeekDay = (uint8_t)((tmpdate & (RTC_TSDR_WDU))              >> RTC_TSDR_WDU_Pos);
 534              		.loc 1 377 3 is_stmt 1 view .LVU169
 535              		.loc 1 377 79 is_stmt 0 view .LVU170
 536 0046 520B     		lsrs	r2, r2, #13
ARM GAS  C:\Users\Tilen\AppData\Local\Temp\ccvNaC6x.s 			page 17


 537              	.LVL41:
 538              		.loc 1 377 29 view .LVU171
 539 0048 0723     		movs	r3, #7
 540 004a 1A40     		ands	r2, r3
 541              		.loc 1 377 27 view .LVU172
 542 004c 2A70     		strb	r2, [r5]
 378:Drivers/STM32L0xx_HAL_Driver/Src/stm32l0xx_hal_rtc_ex.c **** 
 379:Drivers/STM32L0xx_HAL_Driver/Src/stm32l0xx_hal_rtc_ex.c ****   /* Check the input parameters format */
 380:Drivers/STM32L0xx_HAL_Driver/Src/stm32l0xx_hal_rtc_ex.c ****   if (Format == RTC_FORMAT_BIN)
 543              		.loc 1 380 3 is_stmt 1 view .LVU173
 544              		.loc 1 380 6 is_stmt 0 view .LVU174
 545 004e 6346     		mov	r3, ip
 546 0050 002B     		cmp	r3, #0
 547 0052 08D0     		beq	.L18
 548              	.LVL42:
 549              	.L17:
 381:Drivers/STM32L0xx_HAL_Driver/Src/stm32l0xx_hal_rtc_ex.c ****   {
 382:Drivers/STM32L0xx_HAL_Driver/Src/stm32l0xx_hal_rtc_ex.c ****     /* Convert the Timestamp structure parameters to Binary format */
 383:Drivers/STM32L0xx_HAL_Driver/Src/stm32l0xx_hal_rtc_ex.c ****     sTimeStamp->Hours   = (uint8_t)RTC_Bcd2ToByte(sTimeStamp->Hours);
 384:Drivers/STM32L0xx_HAL_Driver/Src/stm32l0xx_hal_rtc_ex.c ****     sTimeStamp->Minutes = (uint8_t)RTC_Bcd2ToByte(sTimeStamp->Minutes);
 385:Drivers/STM32L0xx_HAL_Driver/Src/stm32l0xx_hal_rtc_ex.c ****     sTimeStamp->Seconds = (uint8_t)RTC_Bcd2ToByte(sTimeStamp->Seconds);
 386:Drivers/STM32L0xx_HAL_Driver/Src/stm32l0xx_hal_rtc_ex.c **** 
 387:Drivers/STM32L0xx_HAL_Driver/Src/stm32l0xx_hal_rtc_ex.c ****     /* Convert the DateTimeStamp structure parameters to Binary format */
 388:Drivers/STM32L0xx_HAL_Driver/Src/stm32l0xx_hal_rtc_ex.c ****     sTimeStampDate->Month   = (uint8_t)RTC_Bcd2ToByte(sTimeStampDate->Month);
 389:Drivers/STM32L0xx_HAL_Driver/Src/stm32l0xx_hal_rtc_ex.c ****     sTimeStampDate->Date    = (uint8_t)RTC_Bcd2ToByte(sTimeStampDate->Date);
 390:Drivers/STM32L0xx_HAL_Driver/Src/stm32l0xx_hal_rtc_ex.c ****     sTimeStampDate->WeekDay = (uint8_t)RTC_Bcd2ToByte(sTimeStampDate->WeekDay);
 391:Drivers/STM32L0xx_HAL_Driver/Src/stm32l0xx_hal_rtc_ex.c ****   }
 392:Drivers/STM32L0xx_HAL_Driver/Src/stm32l0xx_hal_rtc_ex.c **** 
 393:Drivers/STM32L0xx_HAL_Driver/Src/stm32l0xx_hal_rtc_ex.c ****   /* Clear the Timestamp Flag */
 394:Drivers/STM32L0xx_HAL_Driver/Src/stm32l0xx_hal_rtc_ex.c ****   __HAL_RTC_TIMESTAMP_CLEAR_FLAG(hrtc, RTC_FLAG_TSF);
 550              		.loc 1 394 3 is_stmt 1 view .LVU175
 551 0054 3168     		ldr	r1, [r6]
 552 0056 CB68     		ldr	r3, [r1, #12]
 553 0058 FF22     		movs	r2, #255
 554 005a 1A40     		ands	r2, r3
 555 005c 104B     		ldr	r3, .L19+8
 556 005e 1343     		orrs	r3, r2
 557 0060 CB60     		str	r3, [r1, #12]
 395:Drivers/STM32L0xx_HAL_Driver/Src/stm32l0xx_hal_rtc_ex.c **** 
 396:Drivers/STM32L0xx_HAL_Driver/Src/stm32l0xx_hal_rtc_ex.c ****   return HAL_OK;
 558              		.loc 1 396 3 view .LVU176
 397:Drivers/STM32L0xx_HAL_Driver/Src/stm32l0xx_hal_rtc_ex.c **** }
 559              		.loc 1 397 1 is_stmt 0 view .LVU177
 560 0062 0020     		movs	r0, #0
 561              		@ sp needed
 562              	.LVL43:
 563              	.LVL44:
 564              	.LVL45:
 565              		.loc 1 397 1 view .LVU178
 566 0064 F8BD     		pop	{r3, r4, r5, r6, r7, pc}
 567              	.LVL46:
 568              	.L18:
 383:Drivers/STM32L0xx_HAL_Driver/Src/stm32l0xx_hal_rtc_ex.c ****     sTimeStamp->Minutes = (uint8_t)RTC_Bcd2ToByte(sTimeStamp->Minutes);
 569              		.loc 1 383 5 is_stmt 1 view .LVU179
 383:Drivers/STM32L0xx_HAL_Driver/Src/stm32l0xx_hal_rtc_ex.c ****     sTimeStamp->Minutes = (uint8_t)RTC_Bcd2ToByte(sTimeStamp->Minutes);
 570              		.loc 1 383 36 is_stmt 0 view .LVU180
 571 0066 2078     		ldrb	r0, [r4]
ARM GAS  C:\Users\Tilen\AppData\Local\Temp\ccvNaC6x.s 			page 18


 572 0068 FFF7FEFF 		bl	RTC_Bcd2ToByte
 573              	.LVL47:
 383:Drivers/STM32L0xx_HAL_Driver/Src/stm32l0xx_hal_rtc_ex.c ****     sTimeStamp->Minutes = (uint8_t)RTC_Bcd2ToByte(sTimeStamp->Minutes);
 574              		.loc 1 383 25 discriminator 1 view .LVU181
 575 006c 2070     		strb	r0, [r4]
 384:Drivers/STM32L0xx_HAL_Driver/Src/stm32l0xx_hal_rtc_ex.c ****     sTimeStamp->Seconds = (uint8_t)RTC_Bcd2ToByte(sTimeStamp->Seconds);
 576              		.loc 1 384 5 is_stmt 1 view .LVU182
 384:Drivers/STM32L0xx_HAL_Driver/Src/stm32l0xx_hal_rtc_ex.c ****     sTimeStamp->Seconds = (uint8_t)RTC_Bcd2ToByte(sTimeStamp->Seconds);
 577              		.loc 1 384 36 is_stmt 0 view .LVU183
 578 006e 6078     		ldrb	r0, [r4, #1]
 579 0070 FFF7FEFF 		bl	RTC_Bcd2ToByte
 580              	.LVL48:
 384:Drivers/STM32L0xx_HAL_Driver/Src/stm32l0xx_hal_rtc_ex.c ****     sTimeStamp->Seconds = (uint8_t)RTC_Bcd2ToByte(sTimeStamp->Seconds);
 581              		.loc 1 384 25 discriminator 1 view .LVU184
 582 0074 6070     		strb	r0, [r4, #1]
 385:Drivers/STM32L0xx_HAL_Driver/Src/stm32l0xx_hal_rtc_ex.c **** 
 583              		.loc 1 385 5 is_stmt 1 view .LVU185
 385:Drivers/STM32L0xx_HAL_Driver/Src/stm32l0xx_hal_rtc_ex.c **** 
 584              		.loc 1 385 36 is_stmt 0 view .LVU186
 585 0076 A078     		ldrb	r0, [r4, #2]
 586 0078 FFF7FEFF 		bl	RTC_Bcd2ToByte
 587              	.LVL49:
 385:Drivers/STM32L0xx_HAL_Driver/Src/stm32l0xx_hal_rtc_ex.c **** 
 588              		.loc 1 385 25 discriminator 1 view .LVU187
 589 007c A070     		strb	r0, [r4, #2]
 388:Drivers/STM32L0xx_HAL_Driver/Src/stm32l0xx_hal_rtc_ex.c ****     sTimeStampDate->Date    = (uint8_t)RTC_Bcd2ToByte(sTimeStampDate->Date);
 590              		.loc 1 388 5 is_stmt 1 view .LVU188
 388:Drivers/STM32L0xx_HAL_Driver/Src/stm32l0xx_hal_rtc_ex.c ****     sTimeStampDate->Date    = (uint8_t)RTC_Bcd2ToByte(sTimeStampDate->Date);
 591              		.loc 1 388 40 is_stmt 0 view .LVU189
 592 007e 6878     		ldrb	r0, [r5, #1]
 593 0080 FFF7FEFF 		bl	RTC_Bcd2ToByte
 594              	.LVL50:
 388:Drivers/STM32L0xx_HAL_Driver/Src/stm32l0xx_hal_rtc_ex.c ****     sTimeStampDate->Date    = (uint8_t)RTC_Bcd2ToByte(sTimeStampDate->Date);
 595              		.loc 1 388 29 discriminator 1 view .LVU190
 596 0084 6870     		strb	r0, [r5, #1]
 389:Drivers/STM32L0xx_HAL_Driver/Src/stm32l0xx_hal_rtc_ex.c ****     sTimeStampDate->WeekDay = (uint8_t)RTC_Bcd2ToByte(sTimeStampDate->WeekDay);
 597              		.loc 1 389 5 is_stmt 1 view .LVU191
 389:Drivers/STM32L0xx_HAL_Driver/Src/stm32l0xx_hal_rtc_ex.c ****     sTimeStampDate->WeekDay = (uint8_t)RTC_Bcd2ToByte(sTimeStampDate->WeekDay);
 598              		.loc 1 389 40 is_stmt 0 view .LVU192
 599 0086 A878     		ldrb	r0, [r5, #2]
 600 0088 FFF7FEFF 		bl	RTC_Bcd2ToByte
 601              	.LVL51:
 389:Drivers/STM32L0xx_HAL_Driver/Src/stm32l0xx_hal_rtc_ex.c ****     sTimeStampDate->WeekDay = (uint8_t)RTC_Bcd2ToByte(sTimeStampDate->WeekDay);
 602              		.loc 1 389 29 discriminator 1 view .LVU193
 603 008c A870     		strb	r0, [r5, #2]
 390:Drivers/STM32L0xx_HAL_Driver/Src/stm32l0xx_hal_rtc_ex.c ****   }
 604              		.loc 1 390 5 is_stmt 1 view .LVU194
 390:Drivers/STM32L0xx_HAL_Driver/Src/stm32l0xx_hal_rtc_ex.c ****   }
 605              		.loc 1 390 40 is_stmt 0 view .LVU195
 606 008e 2878     		ldrb	r0, [r5]
 607 0090 FFF7FEFF 		bl	RTC_Bcd2ToByte
 608              	.LVL52:
 390:Drivers/STM32L0xx_HAL_Driver/Src/stm32l0xx_hal_rtc_ex.c ****   }
 609              		.loc 1 390 29 discriminator 1 view .LVU196
 610 0094 2870     		strb	r0, [r5]
 611 0096 DDE7     		b	.L17
 612              	.L20:
ARM GAS  C:\Users\Tilen\AppData\Local\Temp\ccvNaC6x.s 			page 19


 613              		.align	2
 614              	.L19:
 615 0098 7F7F7F00 		.word	8355711
 616 009c 3FFFFF00 		.word	16777023
 617 00a0 7FF7FFFF 		.word	-2177
 618              		.cfi_endproc
 619              	.LFE50:
 621              		.section	.text.HAL_RTCEx_SetTamper,"ax",%progbits
 622              		.align	1
 623              		.global	HAL_RTCEx_SetTamper
 624              		.syntax unified
 625              		.code	16
 626              		.thumb_func
 628              	HAL_RTCEx_SetTamper:
 629              	.LVL53:
 630              	.LFB51:
 398:Drivers/STM32L0xx_HAL_Driver/Src/stm32l0xx_hal_rtc_ex.c **** 
 399:Drivers/STM32L0xx_HAL_Driver/Src/stm32l0xx_hal_rtc_ex.c **** /**
 400:Drivers/STM32L0xx_HAL_Driver/Src/stm32l0xx_hal_rtc_ex.c ****   * @brief  Sets Tamper.
 401:Drivers/STM32L0xx_HAL_Driver/Src/stm32l0xx_hal_rtc_ex.c ****   * @note   By calling this API the tamper global interrupt will be disabled and
 402:Drivers/STM32L0xx_HAL_Driver/Src/stm32l0xx_hal_rtc_ex.c ****   *         the selected tamper's interrupt as well.
 403:Drivers/STM32L0xx_HAL_Driver/Src/stm32l0xx_hal_rtc_ex.c ****   * @param  hrtc pointer to a RTC_HandleTypeDef structure that contains
 404:Drivers/STM32L0xx_HAL_Driver/Src/stm32l0xx_hal_rtc_ex.c ****   *                the configuration information for RTC.
 405:Drivers/STM32L0xx_HAL_Driver/Src/stm32l0xx_hal_rtc_ex.c ****   * @param  sTamper Pointer to Tamper Structure.
 406:Drivers/STM32L0xx_HAL_Driver/Src/stm32l0xx_hal_rtc_ex.c ****   * @retval HAL status
 407:Drivers/STM32L0xx_HAL_Driver/Src/stm32l0xx_hal_rtc_ex.c ****   */
 408:Drivers/STM32L0xx_HAL_Driver/Src/stm32l0xx_hal_rtc_ex.c **** HAL_StatusTypeDef HAL_RTCEx_SetTamper(RTC_HandleTypeDef *hrtc, RTC_TamperTypeDef *sTamper)
 409:Drivers/STM32L0xx_HAL_Driver/Src/stm32l0xx_hal_rtc_ex.c **** {
 631              		.loc 1 409 1 is_stmt 1 view -0
 632              		.cfi_startproc
 633              		@ args = 0, pretend = 0, frame = 0
 634              		@ frame_needed = 0, uses_anonymous_args = 0
 635              		.loc 1 409 1 is_stmt 0 view .LVU198
 636 0000 30B5     		push	{r4, r5, lr}
 637              	.LCFI4:
 638              		.cfi_def_cfa_offset 12
 639              		.cfi_offset 4, -12
 640              		.cfi_offset 5, -8
 641              		.cfi_offset 14, -4
 410:Drivers/STM32L0xx_HAL_Driver/Src/stm32l0xx_hal_rtc_ex.c ****   uint32_t tmpreg = 0U;
 642              		.loc 1 410 3 is_stmt 1 view .LVU199
 643              	.LVL54:
 411:Drivers/STM32L0xx_HAL_Driver/Src/stm32l0xx_hal_rtc_ex.c **** 
 412:Drivers/STM32L0xx_HAL_Driver/Src/stm32l0xx_hal_rtc_ex.c ****   /* Check the parameters */
 413:Drivers/STM32L0xx_HAL_Driver/Src/stm32l0xx_hal_rtc_ex.c ****   assert_param(IS_RTC_TAMPER(sTamper->Tamper));
 644              		.loc 1 413 3 view .LVU200
 414:Drivers/STM32L0xx_HAL_Driver/Src/stm32l0xx_hal_rtc_ex.c ****   assert_param(IS_RTC_TAMPER_TRIGGER(sTamper->Trigger));
 645              		.loc 1 414 3 view .LVU201
 415:Drivers/STM32L0xx_HAL_Driver/Src/stm32l0xx_hal_rtc_ex.c ****   assert_param(IS_RTC_TAMPER_ERASE_MODE(sTamper->NoErase));
 646              		.loc 1 415 3 view .LVU202
 416:Drivers/STM32L0xx_HAL_Driver/Src/stm32l0xx_hal_rtc_ex.c ****   assert_param(IS_RTC_TAMPER_MASKFLAG_STATE(sTamper->MaskFlag));
 647              		.loc 1 416 3 view .LVU203
 417:Drivers/STM32L0xx_HAL_Driver/Src/stm32l0xx_hal_rtc_ex.c ****   assert_param(IS_RTC_TAMPER_FILTER(sTamper->Filter));
 648              		.loc 1 417 3 view .LVU204
 418:Drivers/STM32L0xx_HAL_Driver/Src/stm32l0xx_hal_rtc_ex.c ****   assert_param(IS_RTC_TAMPER_FILTER_CONFIG_CORRECT(sTamper->Filter, sTamper->Trigger));
 649              		.loc 1 418 3 view .LVU205
 419:Drivers/STM32L0xx_HAL_Driver/Src/stm32l0xx_hal_rtc_ex.c ****   assert_param(IS_RTC_TAMPER_SAMPLING_FREQ(sTamper->SamplingFrequency));
ARM GAS  C:\Users\Tilen\AppData\Local\Temp\ccvNaC6x.s 			page 20


 650              		.loc 1 419 3 view .LVU206
 420:Drivers/STM32L0xx_HAL_Driver/Src/stm32l0xx_hal_rtc_ex.c ****   assert_param(IS_RTC_TAMPER_PRECHARGE_DURATION(sTamper->PrechargeDuration));
 651              		.loc 1 420 3 view .LVU207
 421:Drivers/STM32L0xx_HAL_Driver/Src/stm32l0xx_hal_rtc_ex.c ****   assert_param(IS_RTC_TAMPER_PULLUP_STATE(sTamper->TamperPullUp));
 652              		.loc 1 421 3 view .LVU208
 422:Drivers/STM32L0xx_HAL_Driver/Src/stm32l0xx_hal_rtc_ex.c ****   assert_param(IS_RTC_TAMPER_TIMESTAMPONTAMPER_DETECTION(sTamper->TimeStampOnTamperDetection));
 653              		.loc 1 422 3 view .LVU209
 423:Drivers/STM32L0xx_HAL_Driver/Src/stm32l0xx_hal_rtc_ex.c **** 
 424:Drivers/STM32L0xx_HAL_Driver/Src/stm32l0xx_hal_rtc_ex.c ****   /* Process Locked */
 425:Drivers/STM32L0xx_HAL_Driver/Src/stm32l0xx_hal_rtc_ex.c ****   __HAL_LOCK(hrtc);
 654              		.loc 1 425 3 view .LVU210
 655              		.loc 1 425 3 view .LVU211
 656 0002 2023     		movs	r3, #32
 657 0004 C35C     		ldrb	r3, [r0, r3]
 658 0006 012B     		cmp	r3, #1
 659 0008 5ED0     		beq	.L35
 660              		.loc 1 425 3 discriminator 2 view .LVU212
 661 000a 2023     		movs	r3, #32
 662 000c 0122     		movs	r2, #1
 663 000e C254     		strb	r2, [r0, r3]
 664              		.loc 1 425 3 view .LVU213
 426:Drivers/STM32L0xx_HAL_Driver/Src/stm32l0xx_hal_rtc_ex.c **** 
 427:Drivers/STM32L0xx_HAL_Driver/Src/stm32l0xx_hal_rtc_ex.c ****   hrtc->State = HAL_RTC_STATE_BUSY;
 665              		.loc 1 427 3 view .LVU214
 666              		.loc 1 427 15 is_stmt 0 view .LVU215
 667 0010 0133     		adds	r3, r3, #1
 668 0012 0132     		adds	r2, r2, #1
 669 0014 C254     		strb	r2, [r0, r3]
 428:Drivers/STM32L0xx_HAL_Driver/Src/stm32l0xx_hal_rtc_ex.c **** 
 429:Drivers/STM32L0xx_HAL_Driver/Src/stm32l0xx_hal_rtc_ex.c ****   /* Copy control register into temporary variable */
 430:Drivers/STM32L0xx_HAL_Driver/Src/stm32l0xx_hal_rtc_ex.c ****   tmpreg = hrtc->Instance->TAMPCR;
 670              		.loc 1 430 3 is_stmt 1 view .LVU216
 671              		.loc 1 430 16 is_stmt 0 view .LVU217
 672 0016 0368     		ldr	r3, [r0]
 673 0018 9C46     		mov	ip, r3
 674              		.loc 1 430 10 view .LVU218
 675 001a 1B6C     		ldr	r3, [r3, #64]
 676              	.LVL55:
 431:Drivers/STM32L0xx_HAL_Driver/Src/stm32l0xx_hal_rtc_ex.c **** 
 432:Drivers/STM32L0xx_HAL_Driver/Src/stm32l0xx_hal_rtc_ex.c ****   /* Enable selected tamper */
 433:Drivers/STM32L0xx_HAL_Driver/Src/stm32l0xx_hal_rtc_ex.c ****   tmpreg |= (sTamper->Tamper);
 677              		.loc 1 433 3 is_stmt 1 view .LVU219
 678              		.loc 1 433 21 is_stmt 0 view .LVU220
 679 001c 0C68     		ldr	r4, [r1]
 680              		.loc 1 433 10 view .LVU221
 681 001e 2343     		orrs	r3, r4
 682              	.LVL56:
 434:Drivers/STM32L0xx_HAL_Driver/Src/stm32l0xx_hal_rtc_ex.c **** 
 435:Drivers/STM32L0xx_HAL_Driver/Src/stm32l0xx_hal_rtc_ex.c ****   /* Configure the tamper trigger bit (this bit is just on the right of the
 436:Drivers/STM32L0xx_HAL_Driver/Src/stm32l0xx_hal_rtc_ex.c ****        tamper enable bit, hence the one-time right shift before updating it) */
 437:Drivers/STM32L0xx_HAL_Driver/Src/stm32l0xx_hal_rtc_ex.c ****   if (sTamper->Trigger == RTC_TAMPERTRIGGER_FALLINGEDGE)
 683              		.loc 1 437 3 is_stmt 1 view .LVU222
 684              		.loc 1 437 14 is_stmt 0 view .LVU223
 685 0020 8A68     		ldr	r2, [r1, #8]
 686              		.loc 1 437 6 view .LVU224
 687 0022 022A     		cmp	r2, #2
 688 0024 3BD0     		beq	.L46
ARM GAS  C:\Users\Tilen\AppData\Local\Temp\ccvNaC6x.s 			page 21


 438:Drivers/STM32L0xx_HAL_Driver/Src/stm32l0xx_hal_rtc_ex.c ****   {
 439:Drivers/STM32L0xx_HAL_Driver/Src/stm32l0xx_hal_rtc_ex.c ****     /* Set the tamper trigger bit (case of falling edge or high level) */
 440:Drivers/STM32L0xx_HAL_Driver/Src/stm32l0xx_hal_rtc_ex.c ****     tmpreg |= (uint32_t)(sTamper->Tamper << 1U);
 441:Drivers/STM32L0xx_HAL_Driver/Src/stm32l0xx_hal_rtc_ex.c ****   }
 442:Drivers/STM32L0xx_HAL_Driver/Src/stm32l0xx_hal_rtc_ex.c ****   else
 443:Drivers/STM32L0xx_HAL_Driver/Src/stm32l0xx_hal_rtc_ex.c ****   {
 444:Drivers/STM32L0xx_HAL_Driver/Src/stm32l0xx_hal_rtc_ex.c ****     /* Clear the tamper trigger bit (case of rising edge or low level) */
 445:Drivers/STM32L0xx_HAL_Driver/Src/stm32l0xx_hal_rtc_ex.c ****     tmpreg &= (uint32_t)~(sTamper->Tamper << 1U);
 689              		.loc 1 445 5 is_stmt 1 view .LVU225
 690              		.loc 1 445 43 is_stmt 0 view .LVU226
 691 0026 6200     		lsls	r2, r4, #1
 692              		.loc 1 445 12 view .LVU227
 693 0028 9343     		bics	r3, r2
 694              	.LVL57:
 695              	.L24:
 446:Drivers/STM32L0xx_HAL_Driver/Src/stm32l0xx_hal_rtc_ex.c ****   }
 447:Drivers/STM32L0xx_HAL_Driver/Src/stm32l0xx_hal_rtc_ex.c **** 
 448:Drivers/STM32L0xx_HAL_Driver/Src/stm32l0xx_hal_rtc_ex.c ****   /* Configure the backup registers erasure enabling bits */
 449:Drivers/STM32L0xx_HAL_Driver/Src/stm32l0xx_hal_rtc_ex.c ****   if (sTamper->NoErase != RTC_TAMPER_ERASE_BACKUP_ENABLE)
 696              		.loc 1 449 3 is_stmt 1 view .LVU228
 697              		.loc 1 449 14 is_stmt 0 view .LVU229
 698 002a CA68     		ldr	r2, [r1, #12]
 699              		.loc 1 449 6 view .LVU230
 700 002c 002A     		cmp	r2, #0
 701 002e 39D0     		beq	.L25
 450:Drivers/STM32L0xx_HAL_Driver/Src/stm32l0xx_hal_rtc_ex.c ****   {
 451:Drivers/STM32L0xx_HAL_Driver/Src/stm32l0xx_hal_rtc_ex.c **** #if defined(RTC_TAMPER1_SUPPORT)
 452:Drivers/STM32L0xx_HAL_Driver/Src/stm32l0xx_hal_rtc_ex.c ****     if ((sTamper->Tamper & RTC_TAMPER_1) != 0U)
 702              		.loc 1 452 5 is_stmt 1 view .LVU231
 703              		.loc 1 452 8 is_stmt 0 view .LVU232
 704 0030 E207     		lsls	r2, r4, #31
 705 0032 02D5     		bpl	.L26
 453:Drivers/STM32L0xx_HAL_Driver/Src/stm32l0xx_hal_rtc_ex.c ****     {
 454:Drivers/STM32L0xx_HAL_Driver/Src/stm32l0xx_hal_rtc_ex.c ****       tmpreg |= (uint32_t)(RTC_TAMPCR_TAMP1NOERASE);
 706              		.loc 1 454 7 is_stmt 1 view .LVU233
 707              		.loc 1 454 14 is_stmt 0 view .LVU234
 708 0034 8022     		movs	r2, #128
 709 0036 9202     		lsls	r2, r2, #10
 710 0038 1343     		orrs	r3, r2
 711              	.LVL58:
 712              	.L26:
 455:Drivers/STM32L0xx_HAL_Driver/Src/stm32l0xx_hal_rtc_ex.c ****     }
 456:Drivers/STM32L0xx_HAL_Driver/Src/stm32l0xx_hal_rtc_ex.c **** #endif /* RTC_TAMPER1_SUPPORT */
 457:Drivers/STM32L0xx_HAL_Driver/Src/stm32l0xx_hal_rtc_ex.c ****     if ((sTamper->Tamper & RTC_TAMPER_2) != 0U)
 713              		.loc 1 457 5 is_stmt 1 view .LVU235
 714              		.loc 1 457 8 is_stmt 0 view .LVU236
 715 003a 2207     		lsls	r2, r4, #28
 716 003c 02D5     		bpl	.L27
 458:Drivers/STM32L0xx_HAL_Driver/Src/stm32l0xx_hal_rtc_ex.c ****     {
 459:Drivers/STM32L0xx_HAL_Driver/Src/stm32l0xx_hal_rtc_ex.c ****       tmpreg |= (uint32_t)(RTC_TAMPCR_TAMP2NOERASE);
 717              		.loc 1 459 7 is_stmt 1 view .LVU237
 718              		.loc 1 459 14 is_stmt 0 view .LVU238
 719 003e 8022     		movs	r2, #128
 720 0040 5203     		lsls	r2, r2, #13
 721 0042 1343     		orrs	r3, r2
 722              	.LVL59:
 723              	.L27:
ARM GAS  C:\Users\Tilen\AppData\Local\Temp\ccvNaC6x.s 			page 22


 460:Drivers/STM32L0xx_HAL_Driver/Src/stm32l0xx_hal_rtc_ex.c ****     }
 461:Drivers/STM32L0xx_HAL_Driver/Src/stm32l0xx_hal_rtc_ex.c **** #if defined(RTC_TAMPER3_SUPPORT)
 462:Drivers/STM32L0xx_HAL_Driver/Src/stm32l0xx_hal_rtc_ex.c ****     if ((sTamper->Tamper & RTC_TAMPER_3) != 0U)
 463:Drivers/STM32L0xx_HAL_Driver/Src/stm32l0xx_hal_rtc_ex.c ****     {
 464:Drivers/STM32L0xx_HAL_Driver/Src/stm32l0xx_hal_rtc_ex.c ****       tmpreg |= (uint32_t)(RTC_TAMPCR_TAMP3NOERASE);
 465:Drivers/STM32L0xx_HAL_Driver/Src/stm32l0xx_hal_rtc_ex.c ****     }
 466:Drivers/STM32L0xx_HAL_Driver/Src/stm32l0xx_hal_rtc_ex.c **** #endif /* RTC_TAMPER3_SUPPORT */
 467:Drivers/STM32L0xx_HAL_Driver/Src/stm32l0xx_hal_rtc_ex.c ****   }
 468:Drivers/STM32L0xx_HAL_Driver/Src/stm32l0xx_hal_rtc_ex.c ****   else
 469:Drivers/STM32L0xx_HAL_Driver/Src/stm32l0xx_hal_rtc_ex.c ****   {
 470:Drivers/STM32L0xx_HAL_Driver/Src/stm32l0xx_hal_rtc_ex.c **** #if defined(RTC_TAMPER1_SUPPORT)
 471:Drivers/STM32L0xx_HAL_Driver/Src/stm32l0xx_hal_rtc_ex.c ****     if ((sTamper->Tamper & RTC_TAMPER_1) != 0U)
 472:Drivers/STM32L0xx_HAL_Driver/Src/stm32l0xx_hal_rtc_ex.c ****     {
 473:Drivers/STM32L0xx_HAL_Driver/Src/stm32l0xx_hal_rtc_ex.c ****       tmpreg &= (uint32_t)~(RTC_TAMPCR_TAMP1NOERASE);
 474:Drivers/STM32L0xx_HAL_Driver/Src/stm32l0xx_hal_rtc_ex.c ****     }
 475:Drivers/STM32L0xx_HAL_Driver/Src/stm32l0xx_hal_rtc_ex.c **** #endif /* RTC_TAMPER1_SUPPORT */
 476:Drivers/STM32L0xx_HAL_Driver/Src/stm32l0xx_hal_rtc_ex.c ****     if ((sTamper->Tamper & RTC_TAMPER_2) != 0U)
 477:Drivers/STM32L0xx_HAL_Driver/Src/stm32l0xx_hal_rtc_ex.c ****     {
 478:Drivers/STM32L0xx_HAL_Driver/Src/stm32l0xx_hal_rtc_ex.c ****       tmpreg &= (uint32_t)~(RTC_TAMPCR_TAMP2NOERASE);
 479:Drivers/STM32L0xx_HAL_Driver/Src/stm32l0xx_hal_rtc_ex.c ****     }
 480:Drivers/STM32L0xx_HAL_Driver/Src/stm32l0xx_hal_rtc_ex.c **** #if defined(RTC_TAMPER3_SUPPORT)
 481:Drivers/STM32L0xx_HAL_Driver/Src/stm32l0xx_hal_rtc_ex.c ****     if ((sTamper->Tamper & RTC_TAMPER_3) != 0U)
 482:Drivers/STM32L0xx_HAL_Driver/Src/stm32l0xx_hal_rtc_ex.c ****     {
 483:Drivers/STM32L0xx_HAL_Driver/Src/stm32l0xx_hal_rtc_ex.c ****       tmpreg &= (uint32_t)~(RTC_TAMPCR_TAMP3NOERASE);
 484:Drivers/STM32L0xx_HAL_Driver/Src/stm32l0xx_hal_rtc_ex.c ****     }
 485:Drivers/STM32L0xx_HAL_Driver/Src/stm32l0xx_hal_rtc_ex.c **** #endif /* RTC_TAMPER3_SUPPORT */
 486:Drivers/STM32L0xx_HAL_Driver/Src/stm32l0xx_hal_rtc_ex.c ****   }
 487:Drivers/STM32L0xx_HAL_Driver/Src/stm32l0xx_hal_rtc_ex.c **** 
 488:Drivers/STM32L0xx_HAL_Driver/Src/stm32l0xx_hal_rtc_ex.c ****   /* Configure the tamper flags masking bits */
 489:Drivers/STM32L0xx_HAL_Driver/Src/stm32l0xx_hal_rtc_ex.c ****   if (sTamper->MaskFlag != RTC_TAMPERMASK_FLAG_DISABLE)
 724              		.loc 1 489 3 is_stmt 1 view .LVU239
 725              		.loc 1 489 14 is_stmt 0 view .LVU240
 726 0044 0A69     		ldr	r2, [r1, #16]
 727              		.loc 1 489 6 view .LVU241
 728 0046 002A     		cmp	r2, #0
 729 0048 35D0     		beq	.L29
 490:Drivers/STM32L0xx_HAL_Driver/Src/stm32l0xx_hal_rtc_ex.c ****   {
 491:Drivers/STM32L0xx_HAL_Driver/Src/stm32l0xx_hal_rtc_ex.c **** #if defined(RTC_TAMPER1_SUPPORT)
 492:Drivers/STM32L0xx_HAL_Driver/Src/stm32l0xx_hal_rtc_ex.c ****     if ((sTamper->Tamper & RTC_TAMPER_1) != 0U)
 730              		.loc 1 492 5 is_stmt 1 view .LVU242
 731              		.loc 1 492 8 is_stmt 0 view .LVU243
 732 004a E207     		lsls	r2, r4, #31
 733 004c 02D5     		bpl	.L30
 493:Drivers/STM32L0xx_HAL_Driver/Src/stm32l0xx_hal_rtc_ex.c ****     {
 494:Drivers/STM32L0xx_HAL_Driver/Src/stm32l0xx_hal_rtc_ex.c ****       tmpreg |= (uint32_t)(RTC_TAMPCR_TAMP1MF);
 734              		.loc 1 494 7 is_stmt 1 view .LVU244
 735              		.loc 1 494 14 is_stmt 0 view .LVU245
 736 004e 8022     		movs	r2, #128
 737 0050 D202     		lsls	r2, r2, #11
 738 0052 1343     		orrs	r3, r2
 739              	.LVL60:
 740              	.L30:
 495:Drivers/STM32L0xx_HAL_Driver/Src/stm32l0xx_hal_rtc_ex.c ****     }
 496:Drivers/STM32L0xx_HAL_Driver/Src/stm32l0xx_hal_rtc_ex.c **** #endif /* RTC_TAMPER1_SUPPORT */
 497:Drivers/STM32L0xx_HAL_Driver/Src/stm32l0xx_hal_rtc_ex.c ****     if ((sTamper->Tamper & RTC_TAMPER_2) != 0U)
 741              		.loc 1 497 5 is_stmt 1 view .LVU246
 742              		.loc 1 497 8 is_stmt 0 view .LVU247
ARM GAS  C:\Users\Tilen\AppData\Local\Temp\ccvNaC6x.s 			page 23


 743 0054 2207     		lsls	r2, r4, #28
 744 0056 02D5     		bpl	.L31
 498:Drivers/STM32L0xx_HAL_Driver/Src/stm32l0xx_hal_rtc_ex.c ****     {
 499:Drivers/STM32L0xx_HAL_Driver/Src/stm32l0xx_hal_rtc_ex.c ****       tmpreg |= (uint32_t)(RTC_TAMPCR_TAMP2MF);
 745              		.loc 1 499 7 is_stmt 1 view .LVU248
 746              		.loc 1 499 14 is_stmt 0 view .LVU249
 747 0058 8022     		movs	r2, #128
 748 005a 9203     		lsls	r2, r2, #14
 749 005c 1343     		orrs	r3, r2
 750              	.LVL61:
 751              	.L31:
 500:Drivers/STM32L0xx_HAL_Driver/Src/stm32l0xx_hal_rtc_ex.c ****     }
 501:Drivers/STM32L0xx_HAL_Driver/Src/stm32l0xx_hal_rtc_ex.c **** #if defined(RTC_TAMPER3_SUPPORT)
 502:Drivers/STM32L0xx_HAL_Driver/Src/stm32l0xx_hal_rtc_ex.c ****     if ((sTamper->Tamper & RTC_TAMPER_3) != 0U)
 503:Drivers/STM32L0xx_HAL_Driver/Src/stm32l0xx_hal_rtc_ex.c ****     {
 504:Drivers/STM32L0xx_HAL_Driver/Src/stm32l0xx_hal_rtc_ex.c ****       tmpreg |= (uint32_t)(RTC_TAMPCR_TAMP3MF);
 505:Drivers/STM32L0xx_HAL_Driver/Src/stm32l0xx_hal_rtc_ex.c ****     }
 506:Drivers/STM32L0xx_HAL_Driver/Src/stm32l0xx_hal_rtc_ex.c **** #endif /* RTC_TAMPER3_SUPPORT */
 507:Drivers/STM32L0xx_HAL_Driver/Src/stm32l0xx_hal_rtc_ex.c ****   }
 508:Drivers/STM32L0xx_HAL_Driver/Src/stm32l0xx_hal_rtc_ex.c ****   else
 509:Drivers/STM32L0xx_HAL_Driver/Src/stm32l0xx_hal_rtc_ex.c ****   {
 510:Drivers/STM32L0xx_HAL_Driver/Src/stm32l0xx_hal_rtc_ex.c **** #if defined(RTC_TAMPER1_SUPPORT)
 511:Drivers/STM32L0xx_HAL_Driver/Src/stm32l0xx_hal_rtc_ex.c ****     if ((sTamper->Tamper & RTC_TAMPER_1) != 0U)
 512:Drivers/STM32L0xx_HAL_Driver/Src/stm32l0xx_hal_rtc_ex.c ****     {
 513:Drivers/STM32L0xx_HAL_Driver/Src/stm32l0xx_hal_rtc_ex.c ****       tmpreg &= (uint32_t)~(RTC_TAMPCR_TAMP1MF);
 514:Drivers/STM32L0xx_HAL_Driver/Src/stm32l0xx_hal_rtc_ex.c ****     }
 515:Drivers/STM32L0xx_HAL_Driver/Src/stm32l0xx_hal_rtc_ex.c **** #endif /* RTC_TAMPER1_SUPPORT */
 516:Drivers/STM32L0xx_HAL_Driver/Src/stm32l0xx_hal_rtc_ex.c ****     if ((sTamper->Tamper & RTC_TAMPER_2) != 0U)
 517:Drivers/STM32L0xx_HAL_Driver/Src/stm32l0xx_hal_rtc_ex.c ****     {
 518:Drivers/STM32L0xx_HAL_Driver/Src/stm32l0xx_hal_rtc_ex.c ****       tmpreg &= (uint32_t)~(RTC_TAMPCR_TAMP2MF);
 519:Drivers/STM32L0xx_HAL_Driver/Src/stm32l0xx_hal_rtc_ex.c ****     }
 520:Drivers/STM32L0xx_HAL_Driver/Src/stm32l0xx_hal_rtc_ex.c **** #if defined(RTC_TAMPER3_SUPPORT)
 521:Drivers/STM32L0xx_HAL_Driver/Src/stm32l0xx_hal_rtc_ex.c ****     if ((sTamper->Tamper & RTC_TAMPER_3) != 0U)
 522:Drivers/STM32L0xx_HAL_Driver/Src/stm32l0xx_hal_rtc_ex.c ****     {
 523:Drivers/STM32L0xx_HAL_Driver/Src/stm32l0xx_hal_rtc_ex.c ****       tmpreg &= (uint32_t)~(RTC_TAMPCR_TAMP3MF);
 524:Drivers/STM32L0xx_HAL_Driver/Src/stm32l0xx_hal_rtc_ex.c ****     }
 525:Drivers/STM32L0xx_HAL_Driver/Src/stm32l0xx_hal_rtc_ex.c **** #endif /* RTC_TAMPER3_SUPPORT */
 526:Drivers/STM32L0xx_HAL_Driver/Src/stm32l0xx_hal_rtc_ex.c ****   }
 527:Drivers/STM32L0xx_HAL_Driver/Src/stm32l0xx_hal_rtc_ex.c **** 
 528:Drivers/STM32L0xx_HAL_Driver/Src/stm32l0xx_hal_rtc_ex.c ****   /* Clear remaining fields before setting them */
 529:Drivers/STM32L0xx_HAL_Driver/Src/stm32l0xx_hal_rtc_ex.c ****   tmpreg &= ~(RTC_TAMPERFILTER_MASK              | \
 752              		.loc 1 529 3 is_stmt 1 view .LVU250
 753              		.loc 1 529 10 is_stmt 0 view .LVU251
 754 005e 1B4A     		ldr	r2, .L47
 755 0060 1A40     		ands	r2, r3
 756              	.LVL62:
 530:Drivers/STM32L0xx_HAL_Driver/Src/stm32l0xx_hal_rtc_ex.c ****               RTC_TAMPERSAMPLINGFREQ_RTCCLK_MASK | \
 531:Drivers/STM32L0xx_HAL_Driver/Src/stm32l0xx_hal_rtc_ex.c ****               RTC_TAMPERPRECHARGEDURATION_MASK   | \
 532:Drivers/STM32L0xx_HAL_Driver/Src/stm32l0xx_hal_rtc_ex.c ****               RTC_TAMPER_PULLUP_MASK             | \
 533:Drivers/STM32L0xx_HAL_Driver/Src/stm32l0xx_hal_rtc_ex.c ****               RTC_TIMESTAMPONTAMPERDETECTION_MASK);
 534:Drivers/STM32L0xx_HAL_Driver/Src/stm32l0xx_hal_rtc_ex.c **** 
 535:Drivers/STM32L0xx_HAL_Driver/Src/stm32l0xx_hal_rtc_ex.c ****   /* Set remaining parameters of desired configuration into temporary variable */
 536:Drivers/STM32L0xx_HAL_Driver/Src/stm32l0xx_hal_rtc_ex.c ****   tmpreg |= ((uint32_t)sTamper->Filter            | \
 757              		.loc 1 536 3 is_stmt 1 view .LVU252
 758              		.loc 1 536 31 is_stmt 0 view .LVU253
 759 0062 4B69     		ldr	r3, [r1, #20]
 537:Drivers/STM32L0xx_HAL_Driver/Src/stm32l0xx_hal_rtc_ex.c ****              (uint32_t)sTamper->SamplingFrequency | \
ARM GAS  C:\Users\Tilen\AppData\Local\Temp\ccvNaC6x.s 			page 24


 760              		.loc 1 537 31 view .LVU254
 761 0064 8D69     		ldr	r5, [r1, #24]
 536:Drivers/STM32L0xx_HAL_Driver/Src/stm32l0xx_hal_rtc_ex.c ****              (uint32_t)sTamper->SamplingFrequency | \
 762              		.loc 1 536 51 view .LVU255
 763 0066 2B43     		orrs	r3, r5
 538:Drivers/STM32L0xx_HAL_Driver/Src/stm32l0xx_hal_rtc_ex.c ****              (uint32_t)sTamper->PrechargeDuration | \
 764              		.loc 1 538 31 view .LVU256
 765 0068 CD69     		ldr	r5, [r1, #28]
 537:Drivers/STM32L0xx_HAL_Driver/Src/stm32l0xx_hal_rtc_ex.c ****              (uint32_t)sTamper->SamplingFrequency | \
 766              		.loc 1 537 51 view .LVU257
 767 006a 2B43     		orrs	r3, r5
 539:Drivers/STM32L0xx_HAL_Driver/Src/stm32l0xx_hal_rtc_ex.c ****              (uint32_t)sTamper->TamperPullUp      | \
 768              		.loc 1 539 31 view .LVU258
 769 006c 0D6A     		ldr	r5, [r1, #32]
 538:Drivers/STM32L0xx_HAL_Driver/Src/stm32l0xx_hal_rtc_ex.c ****              (uint32_t)sTamper->PrechargeDuration | \
 770              		.loc 1 538 51 view .LVU259
 771 006e 2B43     		orrs	r3, r5
 540:Drivers/STM32L0xx_HAL_Driver/Src/stm32l0xx_hal_rtc_ex.c ****              (uint32_t)sTamper->TimeStampOnTamperDetection);
 772              		.loc 1 540 31 view .LVU260
 773 0070 496A     		ldr	r1, [r1, #36]
 774              	.LVL63:
 539:Drivers/STM32L0xx_HAL_Driver/Src/stm32l0xx_hal_rtc_ex.c ****              (uint32_t)sTamper->TamperPullUp      | \
 775              		.loc 1 539 51 view .LVU261
 776 0072 0B43     		orrs	r3, r1
 536:Drivers/STM32L0xx_HAL_Driver/Src/stm32l0xx_hal_rtc_ex.c ****              (uint32_t)sTamper->SamplingFrequency | \
 777              		.loc 1 536 10 view .LVU262
 778 0074 1343     		orrs	r3, r2
 779              	.LVL64:
 541:Drivers/STM32L0xx_HAL_Driver/Src/stm32l0xx_hal_rtc_ex.c **** 
 542:Drivers/STM32L0xx_HAL_Driver/Src/stm32l0xx_hal_rtc_ex.c ****   /* Disable interrupt on selected tamper in case it is enabled */
 543:Drivers/STM32L0xx_HAL_Driver/Src/stm32l0xx_hal_rtc_ex.c **** #if defined(RTC_TAMPER1_SUPPORT)
 544:Drivers/STM32L0xx_HAL_Driver/Src/stm32l0xx_hal_rtc_ex.c ****   if ((sTamper->Tamper & RTC_TAMPER_1) != 0U)
 780              		.loc 1 544 3 is_stmt 1 view .LVU263
 781              		.loc 1 544 6 is_stmt 0 view .LVU264
 782 0076 E207     		lsls	r2, r4, #31
 783 0078 01D5     		bpl	.L33
 545:Drivers/STM32L0xx_HAL_Driver/Src/stm32l0xx_hal_rtc_ex.c ****   {
 546:Drivers/STM32L0xx_HAL_Driver/Src/stm32l0xx_hal_rtc_ex.c ****     tmpreg &= (uint32_t)~RTC_IT_TAMP1;
 784              		.loc 1 546 5 is_stmt 1 view .LVU265
 785              		.loc 1 546 12 is_stmt 0 view .LVU266
 786 007a 154A     		ldr	r2, .L47+4
 787 007c 1340     		ands	r3, r2
 788              	.LVL65:
 789              	.L33:
 547:Drivers/STM32L0xx_HAL_Driver/Src/stm32l0xx_hal_rtc_ex.c ****   }
 548:Drivers/STM32L0xx_HAL_Driver/Src/stm32l0xx_hal_rtc_ex.c **** #endif /* RTC_TAMPER1_SUPPORT */
 549:Drivers/STM32L0xx_HAL_Driver/Src/stm32l0xx_hal_rtc_ex.c ****   if ((sTamper->Tamper & RTC_TAMPER_2) != 0U)
 790              		.loc 1 549 3 is_stmt 1 view .LVU267
 791              		.loc 1 549 6 is_stmt 0 view .LVU268
 792 007e 2407     		lsls	r4, r4, #28
 793 0080 01D5     		bpl	.L34
 550:Drivers/STM32L0xx_HAL_Driver/Src/stm32l0xx_hal_rtc_ex.c ****   {
 551:Drivers/STM32L0xx_HAL_Driver/Src/stm32l0xx_hal_rtc_ex.c ****     tmpreg &= (uint32_t)~RTC_IT_TAMP2;
 794              		.loc 1 551 5 is_stmt 1 view .LVU269
 795              		.loc 1 551 12 is_stmt 0 view .LVU270
 796 0082 144A     		ldr	r2, .L47+8
 797 0084 1340     		ands	r3, r2
ARM GAS  C:\Users\Tilen\AppData\Local\Temp\ccvNaC6x.s 			page 25


 798              	.LVL66:
 799              	.L34:
 552:Drivers/STM32L0xx_HAL_Driver/Src/stm32l0xx_hal_rtc_ex.c ****   }
 553:Drivers/STM32L0xx_HAL_Driver/Src/stm32l0xx_hal_rtc_ex.c **** #if defined(RTC_TAMPER3_SUPPORT)
 554:Drivers/STM32L0xx_HAL_Driver/Src/stm32l0xx_hal_rtc_ex.c ****   if ((sTamper->Tamper & RTC_TAMPER_3) != 0U)
 555:Drivers/STM32L0xx_HAL_Driver/Src/stm32l0xx_hal_rtc_ex.c ****   {
 556:Drivers/STM32L0xx_HAL_Driver/Src/stm32l0xx_hal_rtc_ex.c ****     tmpreg &= (uint32_t)~RTC_IT_TAMP3;
 557:Drivers/STM32L0xx_HAL_Driver/Src/stm32l0xx_hal_rtc_ex.c ****   }
 558:Drivers/STM32L0xx_HAL_Driver/Src/stm32l0xx_hal_rtc_ex.c **** #endif /* RTC_TAMPER3_SUPPORT */
 559:Drivers/STM32L0xx_HAL_Driver/Src/stm32l0xx_hal_rtc_ex.c **** 
 560:Drivers/STM32L0xx_HAL_Driver/Src/stm32l0xx_hal_rtc_ex.c ****   /* Disable tamper global interrupt in case it is enabled */
 561:Drivers/STM32L0xx_HAL_Driver/Src/stm32l0xx_hal_rtc_ex.c ****   tmpreg &= (uint32_t)~RTC_TAMPCR_TAMPIE;
 800              		.loc 1 561 3 is_stmt 1 view .LVU271
 801              		.loc 1 561 10 is_stmt 0 view .LVU272
 802 0086 0422     		movs	r2, #4
 803 0088 9343     		bics	r3, r2
 804              	.LVL67:
 562:Drivers/STM32L0xx_HAL_Driver/Src/stm32l0xx_hal_rtc_ex.c **** 
 563:Drivers/STM32L0xx_HAL_Driver/Src/stm32l0xx_hal_rtc_ex.c ****   /* Copy desired configuration into configuration register */
 564:Drivers/STM32L0xx_HAL_Driver/Src/stm32l0xx_hal_rtc_ex.c ****   hrtc->Instance->TAMPCR = tmpreg;
 805              		.loc 1 564 3 is_stmt 1 view .LVU273
 806              		.loc 1 564 26 is_stmt 0 view .LVU274
 807 008a 6246     		mov	r2, ip
 808 008c 1364     		str	r3, [r2, #64]
 565:Drivers/STM32L0xx_HAL_Driver/Src/stm32l0xx_hal_rtc_ex.c **** 
 566:Drivers/STM32L0xx_HAL_Driver/Src/stm32l0xx_hal_rtc_ex.c ****   hrtc->State = HAL_RTC_STATE_READY;
 809              		.loc 1 566 3 is_stmt 1 view .LVU275
 810              		.loc 1 566 15 is_stmt 0 view .LVU276
 811 008e 2123     		movs	r3, #33
 812              	.LVL68:
 813              		.loc 1 566 15 view .LVU277
 814 0090 0122     		movs	r2, #1
 815              	.LVL69:
 816              		.loc 1 566 15 view .LVU278
 817 0092 C254     		strb	r2, [r0, r3]
 818              	.LVL70:
 567:Drivers/STM32L0xx_HAL_Driver/Src/stm32l0xx_hal_rtc_ex.c **** 
 568:Drivers/STM32L0xx_HAL_Driver/Src/stm32l0xx_hal_rtc_ex.c ****   /* Process Unlocked */
 569:Drivers/STM32L0xx_HAL_Driver/Src/stm32l0xx_hal_rtc_ex.c ****   __HAL_UNLOCK(hrtc);
 819              		.loc 1 569 3 is_stmt 1 view .LVU279
 820              		.loc 1 569 3 view .LVU280
 821 0094 013B     		subs	r3, r3, #1
 822 0096 0022     		movs	r2, #0
 823 0098 C254     		strb	r2, [r0, r3]
 824              		.loc 1 569 3 view .LVU281
 570:Drivers/STM32L0xx_HAL_Driver/Src/stm32l0xx_hal_rtc_ex.c **** 
 571:Drivers/STM32L0xx_HAL_Driver/Src/stm32l0xx_hal_rtc_ex.c ****   return HAL_OK;
 825              		.loc 1 571 3 view .LVU282
 826              		.loc 1 571 10 is_stmt 0 view .LVU283
 827 009a 0020     		movs	r0, #0
 828              	.LVL71:
 829              	.L22:
 572:Drivers/STM32L0xx_HAL_Driver/Src/stm32l0xx_hal_rtc_ex.c **** }
 830              		.loc 1 572 1 view .LVU284
 831              		@ sp needed
 832 009c 30BD     		pop	{r4, r5, pc}
 833              	.LVL72:
ARM GAS  C:\Users\Tilen\AppData\Local\Temp\ccvNaC6x.s 			page 26


 834              	.L46:
 440:Drivers/STM32L0xx_HAL_Driver/Src/stm32l0xx_hal_rtc_ex.c ****   }
 835              		.loc 1 440 5 is_stmt 1 view .LVU285
 440:Drivers/STM32L0xx_HAL_Driver/Src/stm32l0xx_hal_rtc_ex.c ****   }
 836              		.loc 1 440 15 is_stmt 0 view .LVU286
 837 009e 6200     		lsls	r2, r4, #1
 440:Drivers/STM32L0xx_HAL_Driver/Src/stm32l0xx_hal_rtc_ex.c ****   }
 838              		.loc 1 440 12 view .LVU287
 839 00a0 1343     		orrs	r3, r2
 840              	.LVL73:
 440:Drivers/STM32L0xx_HAL_Driver/Src/stm32l0xx_hal_rtc_ex.c ****   }
 841              		.loc 1 440 12 view .LVU288
 842 00a2 C2E7     		b	.L24
 843              	.L25:
 471:Drivers/STM32L0xx_HAL_Driver/Src/stm32l0xx_hal_rtc_ex.c ****     {
 844              		.loc 1 471 5 is_stmt 1 view .LVU289
 471:Drivers/STM32L0xx_HAL_Driver/Src/stm32l0xx_hal_rtc_ex.c ****     {
 845              		.loc 1 471 8 is_stmt 0 view .LVU290
 846 00a4 E207     		lsls	r2, r4, #31
 847 00a6 01D5     		bpl	.L28
 473:Drivers/STM32L0xx_HAL_Driver/Src/stm32l0xx_hal_rtc_ex.c ****     }
 848              		.loc 1 473 7 is_stmt 1 view .LVU291
 473:Drivers/STM32L0xx_HAL_Driver/Src/stm32l0xx_hal_rtc_ex.c ****     }
 849              		.loc 1 473 14 is_stmt 0 view .LVU292
 850 00a8 0B4A     		ldr	r2, .L47+12
 851 00aa 1340     		ands	r3, r2
 852              	.LVL74:
 853              	.L28:
 476:Drivers/STM32L0xx_HAL_Driver/Src/stm32l0xx_hal_rtc_ex.c ****     {
 854              		.loc 1 476 5 is_stmt 1 view .LVU293
 476:Drivers/STM32L0xx_HAL_Driver/Src/stm32l0xx_hal_rtc_ex.c ****     {
 855              		.loc 1 476 8 is_stmt 0 view .LVU294
 856 00ac 2207     		lsls	r2, r4, #28
 857 00ae C9D5     		bpl	.L27
 478:Drivers/STM32L0xx_HAL_Driver/Src/stm32l0xx_hal_rtc_ex.c ****     }
 858              		.loc 1 478 7 is_stmt 1 view .LVU295
 478:Drivers/STM32L0xx_HAL_Driver/Src/stm32l0xx_hal_rtc_ex.c ****     }
 859              		.loc 1 478 14 is_stmt 0 view .LVU296
 860 00b0 0A4A     		ldr	r2, .L47+16
 861 00b2 1340     		ands	r3, r2
 862              	.LVL75:
 478:Drivers/STM32L0xx_HAL_Driver/Src/stm32l0xx_hal_rtc_ex.c ****     }
 863              		.loc 1 478 14 view .LVU297
 864 00b4 C6E7     		b	.L27
 865              	.LVL76:
 866              	.L29:
 511:Drivers/STM32L0xx_HAL_Driver/Src/stm32l0xx_hal_rtc_ex.c ****     {
 867              		.loc 1 511 5 is_stmt 1 view .LVU298
 511:Drivers/STM32L0xx_HAL_Driver/Src/stm32l0xx_hal_rtc_ex.c ****     {
 868              		.loc 1 511 8 is_stmt 0 view .LVU299
 869 00b6 E207     		lsls	r2, r4, #31
 870 00b8 01D5     		bpl	.L32
 513:Drivers/STM32L0xx_HAL_Driver/Src/stm32l0xx_hal_rtc_ex.c ****     }
 871              		.loc 1 513 7 is_stmt 1 view .LVU300
 513:Drivers/STM32L0xx_HAL_Driver/Src/stm32l0xx_hal_rtc_ex.c ****     }
 872              		.loc 1 513 14 is_stmt 0 view .LVU301
 873 00ba 094A     		ldr	r2, .L47+20
ARM GAS  C:\Users\Tilen\AppData\Local\Temp\ccvNaC6x.s 			page 27


 874 00bc 1340     		ands	r3, r2
 875              	.LVL77:
 876              	.L32:
 516:Drivers/STM32L0xx_HAL_Driver/Src/stm32l0xx_hal_rtc_ex.c ****     {
 877              		.loc 1 516 5 is_stmt 1 view .LVU302
 516:Drivers/STM32L0xx_HAL_Driver/Src/stm32l0xx_hal_rtc_ex.c ****     {
 878              		.loc 1 516 8 is_stmt 0 view .LVU303
 879 00be 2207     		lsls	r2, r4, #28
 880 00c0 CDD5     		bpl	.L31
 518:Drivers/STM32L0xx_HAL_Driver/Src/stm32l0xx_hal_rtc_ex.c ****     }
 881              		.loc 1 518 7 is_stmt 1 view .LVU304
 518:Drivers/STM32L0xx_HAL_Driver/Src/stm32l0xx_hal_rtc_ex.c ****     }
 882              		.loc 1 518 14 is_stmt 0 view .LVU305
 883 00c2 084A     		ldr	r2, .L47+24
 884 00c4 1340     		ands	r3, r2
 885              	.LVL78:
 518:Drivers/STM32L0xx_HAL_Driver/Src/stm32l0xx_hal_rtc_ex.c ****     }
 886              		.loc 1 518 14 view .LVU306
 887 00c6 CAE7     		b	.L31
 888              	.LVL79:
 889              	.L35:
 425:Drivers/STM32L0xx_HAL_Driver/Src/stm32l0xx_hal_rtc_ex.c **** 
 890              		.loc 1 425 3 discriminator 1 view .LVU307
 891 00c8 0220     		movs	r0, #2
 892              	.LVL80:
 425:Drivers/STM32L0xx_HAL_Driver/Src/stm32l0xx_hal_rtc_ex.c **** 
 893              		.loc 1 425 3 discriminator 1 view .LVU308
 894 00ca E7E7     		b	.L22
 895              	.L48:
 896              		.align	2
 897              	.L47:
 898 00cc 7F00FFFF 		.word	-65409
 899 00d0 FFFFFEFF 		.word	-65537
 900 00d4 FFFFF7FF 		.word	-524289
 901 00d8 FFFFFDFF 		.word	-131073
 902 00dc FFFFEFFF 		.word	-1048577
 903 00e0 FFFFFBFF 		.word	-262145
 904 00e4 FFFFDFFF 		.word	-2097153
 905              		.cfi_endproc
 906              	.LFE51:
 908              		.section	.text.HAL_RTCEx_SetTamper_IT,"ax",%progbits
 909              		.align	1
 910              		.global	HAL_RTCEx_SetTamper_IT
 911              		.syntax unified
 912              		.code	16
 913              		.thumb_func
 915              	HAL_RTCEx_SetTamper_IT:
 916              	.LVL81:
 917              	.LFB52:
 573:Drivers/STM32L0xx_HAL_Driver/Src/stm32l0xx_hal_rtc_ex.c **** 
 574:Drivers/STM32L0xx_HAL_Driver/Src/stm32l0xx_hal_rtc_ex.c **** /**
 575:Drivers/STM32L0xx_HAL_Driver/Src/stm32l0xx_hal_rtc_ex.c ****   * @brief  Sets Tamper with interrupt.
 576:Drivers/STM32L0xx_HAL_Driver/Src/stm32l0xx_hal_rtc_ex.c ****   * @note   By setting the tamper global interrupt bit, interrupts will be
 577:Drivers/STM32L0xx_HAL_Driver/Src/stm32l0xx_hal_rtc_ex.c ****   *         enabled for all tampers.
 578:Drivers/STM32L0xx_HAL_Driver/Src/stm32l0xx_hal_rtc_ex.c ****   * @param  hrtc pointer to a RTC_HandleTypeDef structure that contains
 579:Drivers/STM32L0xx_HAL_Driver/Src/stm32l0xx_hal_rtc_ex.c ****   *                the configuration information for RTC.
 580:Drivers/STM32L0xx_HAL_Driver/Src/stm32l0xx_hal_rtc_ex.c ****   * @param  sTamper Pointer to RTC Tamper.
ARM GAS  C:\Users\Tilen\AppData\Local\Temp\ccvNaC6x.s 			page 28


 581:Drivers/STM32L0xx_HAL_Driver/Src/stm32l0xx_hal_rtc_ex.c ****   * @retval HAL status
 582:Drivers/STM32L0xx_HAL_Driver/Src/stm32l0xx_hal_rtc_ex.c ****   */
 583:Drivers/STM32L0xx_HAL_Driver/Src/stm32l0xx_hal_rtc_ex.c **** HAL_StatusTypeDef HAL_RTCEx_SetTamper_IT(RTC_HandleTypeDef *hrtc, RTC_TamperTypeDef *sTamper)
 584:Drivers/STM32L0xx_HAL_Driver/Src/stm32l0xx_hal_rtc_ex.c **** {
 918              		.loc 1 584 1 is_stmt 1 view -0
 919              		.cfi_startproc
 920              		@ args = 0, pretend = 0, frame = 0
 921              		@ frame_needed = 0, uses_anonymous_args = 0
 922              		.loc 1 584 1 is_stmt 0 view .LVU310
 923 0000 10B5     		push	{r4, lr}
 924              	.LCFI5:
 925              		.cfi_def_cfa_offset 8
 926              		.cfi_offset 4, -8
 927              		.cfi_offset 14, -4
 585:Drivers/STM32L0xx_HAL_Driver/Src/stm32l0xx_hal_rtc_ex.c ****   uint32_t tmpreg = 0U;
 928              		.loc 1 585 3 is_stmt 1 view .LVU311
 929              	.LVL82:
 586:Drivers/STM32L0xx_HAL_Driver/Src/stm32l0xx_hal_rtc_ex.c **** 
 587:Drivers/STM32L0xx_HAL_Driver/Src/stm32l0xx_hal_rtc_ex.c ****   /* Check the parameters */
 588:Drivers/STM32L0xx_HAL_Driver/Src/stm32l0xx_hal_rtc_ex.c ****   assert_param(IS_RTC_TAMPER(sTamper->Tamper));
 930              		.loc 1 588 3 view .LVU312
 589:Drivers/STM32L0xx_HAL_Driver/Src/stm32l0xx_hal_rtc_ex.c ****   assert_param(IS_RTC_TAMPER_INTERRUPT(sTamper->Interrupt));
 931              		.loc 1 589 3 view .LVU313
 590:Drivers/STM32L0xx_HAL_Driver/Src/stm32l0xx_hal_rtc_ex.c ****   assert_param(IS_RTC_TAMPER_TRIGGER(sTamper->Trigger));
 932              		.loc 1 590 3 view .LVU314
 591:Drivers/STM32L0xx_HAL_Driver/Src/stm32l0xx_hal_rtc_ex.c ****   assert_param(IS_RTC_TAMPER_ERASE_MODE(sTamper->NoErase));
 933              		.loc 1 591 3 view .LVU315
 592:Drivers/STM32L0xx_HAL_Driver/Src/stm32l0xx_hal_rtc_ex.c ****   assert_param(IS_RTC_TAMPER_MASKFLAG_STATE(sTamper->MaskFlag));
 934              		.loc 1 592 3 view .LVU316
 593:Drivers/STM32L0xx_HAL_Driver/Src/stm32l0xx_hal_rtc_ex.c ****   assert_param(IS_RTC_TAMPER_FILTER(sTamper->Filter));
 935              		.loc 1 593 3 view .LVU317
 594:Drivers/STM32L0xx_HAL_Driver/Src/stm32l0xx_hal_rtc_ex.c ****   assert_param(IS_RTC_TAMPER_FILTER_CONFIG_CORRECT(sTamper->Filter, sTamper->Trigger));
 936              		.loc 1 594 3 view .LVU318
 595:Drivers/STM32L0xx_HAL_Driver/Src/stm32l0xx_hal_rtc_ex.c ****   assert_param(IS_RTC_TAMPER_SAMPLING_FREQ(sTamper->SamplingFrequency));
 937              		.loc 1 595 3 view .LVU319
 596:Drivers/STM32L0xx_HAL_Driver/Src/stm32l0xx_hal_rtc_ex.c ****   assert_param(IS_RTC_TAMPER_PRECHARGE_DURATION(sTamper->PrechargeDuration));
 938              		.loc 1 596 3 view .LVU320
 597:Drivers/STM32L0xx_HAL_Driver/Src/stm32l0xx_hal_rtc_ex.c ****   assert_param(IS_RTC_TAMPER_PULLUP_STATE(sTamper->TamperPullUp));
 939              		.loc 1 597 3 view .LVU321
 598:Drivers/STM32L0xx_HAL_Driver/Src/stm32l0xx_hal_rtc_ex.c ****   assert_param(IS_RTC_TAMPER_TIMESTAMPONTAMPER_DETECTION(sTamper->TimeStampOnTamperDetection));
 940              		.loc 1 598 3 view .LVU322
 599:Drivers/STM32L0xx_HAL_Driver/Src/stm32l0xx_hal_rtc_ex.c **** 
 600:Drivers/STM32L0xx_HAL_Driver/Src/stm32l0xx_hal_rtc_ex.c ****   /* Process Locked */
 601:Drivers/STM32L0xx_HAL_Driver/Src/stm32l0xx_hal_rtc_ex.c ****   __HAL_LOCK(hrtc);
 941              		.loc 1 601 3 view .LVU323
 942              		.loc 1 601 3 view .LVU324
 943 0002 2023     		movs	r3, #32
 944 0004 C35C     		ldrb	r3, [r0, r3]
 945 0006 012B     		cmp	r3, #1
 946 0008 5FD0     		beq	.L61
 947              		.loc 1 601 3 discriminator 2 view .LVU325
 948 000a 2023     		movs	r3, #32
 949 000c 0122     		movs	r2, #1
 950 000e C254     		strb	r2, [r0, r3]
 951              		.loc 1 601 3 view .LVU326
 602:Drivers/STM32L0xx_HAL_Driver/Src/stm32l0xx_hal_rtc_ex.c **** 
 603:Drivers/STM32L0xx_HAL_Driver/Src/stm32l0xx_hal_rtc_ex.c ****   hrtc->State = HAL_RTC_STATE_BUSY;
ARM GAS  C:\Users\Tilen\AppData\Local\Temp\ccvNaC6x.s 			page 29


 952              		.loc 1 603 3 view .LVU327
 953              		.loc 1 603 15 is_stmt 0 view .LVU328
 954 0010 0133     		adds	r3, r3, #1
 955 0012 0132     		adds	r2, r2, #1
 956 0014 C254     		strb	r2, [r0, r3]
 604:Drivers/STM32L0xx_HAL_Driver/Src/stm32l0xx_hal_rtc_ex.c **** 
 605:Drivers/STM32L0xx_HAL_Driver/Src/stm32l0xx_hal_rtc_ex.c ****   /* Copy control register into temporary variable */
 606:Drivers/STM32L0xx_HAL_Driver/Src/stm32l0xx_hal_rtc_ex.c ****   tmpreg = hrtc->Instance->TAMPCR;
 957              		.loc 1 606 3 is_stmt 1 view .LVU329
 958              		.loc 1 606 16 is_stmt 0 view .LVU330
 959 0016 0368     		ldr	r3, [r0]
 960 0018 9C46     		mov	ip, r3
 961              		.loc 1 606 10 view .LVU331
 962 001a 1B6C     		ldr	r3, [r3, #64]
 963              	.LVL83:
 607:Drivers/STM32L0xx_HAL_Driver/Src/stm32l0xx_hal_rtc_ex.c **** 
 608:Drivers/STM32L0xx_HAL_Driver/Src/stm32l0xx_hal_rtc_ex.c ****   /* Enable selected tamper */
 609:Drivers/STM32L0xx_HAL_Driver/Src/stm32l0xx_hal_rtc_ex.c ****   tmpreg |= (sTamper->Tamper);
 964              		.loc 1 609 3 is_stmt 1 view .LVU332
 965              		.loc 1 609 21 is_stmt 0 view .LVU333
 966 001c 0A68     		ldr	r2, [r1]
 967              		.loc 1 609 10 view .LVU334
 968 001e 1343     		orrs	r3, r2
 969              	.LVL84:
 610:Drivers/STM32L0xx_HAL_Driver/Src/stm32l0xx_hal_rtc_ex.c **** 
 611:Drivers/STM32L0xx_HAL_Driver/Src/stm32l0xx_hal_rtc_ex.c ****   /* Configure the tamper trigger bit (this bit is just on the right of the
 612:Drivers/STM32L0xx_HAL_Driver/Src/stm32l0xx_hal_rtc_ex.c ****        tamper enable bit, hence the one-time right shift before updating it) */
 613:Drivers/STM32L0xx_HAL_Driver/Src/stm32l0xx_hal_rtc_ex.c ****   if (sTamper->Trigger == RTC_TAMPERTRIGGER_FALLINGEDGE)
 970              		.loc 1 613 3 is_stmt 1 view .LVU335
 971              		.loc 1 613 14 is_stmt 0 view .LVU336
 972 0020 8C68     		ldr	r4, [r1, #8]
 973              		.loc 1 613 6 view .LVU337
 974 0022 022C     		cmp	r4, #2
 975 0024 3CD0     		beq	.L70
 614:Drivers/STM32L0xx_HAL_Driver/Src/stm32l0xx_hal_rtc_ex.c ****   {
 615:Drivers/STM32L0xx_HAL_Driver/Src/stm32l0xx_hal_rtc_ex.c ****     /* Set the tamper trigger bit (case of falling edge or high level) */
 616:Drivers/STM32L0xx_HAL_Driver/Src/stm32l0xx_hal_rtc_ex.c ****     tmpreg |= (uint32_t)(sTamper->Tamper << 1U);
 617:Drivers/STM32L0xx_HAL_Driver/Src/stm32l0xx_hal_rtc_ex.c ****   }
 618:Drivers/STM32L0xx_HAL_Driver/Src/stm32l0xx_hal_rtc_ex.c ****   else
 619:Drivers/STM32L0xx_HAL_Driver/Src/stm32l0xx_hal_rtc_ex.c ****   {
 620:Drivers/STM32L0xx_HAL_Driver/Src/stm32l0xx_hal_rtc_ex.c ****     /* Clear the tamper trigger bit (case of rising edge or low level) */
 621:Drivers/STM32L0xx_HAL_Driver/Src/stm32l0xx_hal_rtc_ex.c ****     tmpreg &= (uint32_t)~(sTamper->Tamper << 1U);
 976              		.loc 1 621 5 is_stmt 1 view .LVU338
 977              		.loc 1 621 43 is_stmt 0 view .LVU339
 978 0026 5400     		lsls	r4, r2, #1
 979              		.loc 1 621 12 view .LVU340
 980 0028 A343     		bics	r3, r4
 981              	.LVL85:
 982              	.L52:
 622:Drivers/STM32L0xx_HAL_Driver/Src/stm32l0xx_hal_rtc_ex.c ****   }
 623:Drivers/STM32L0xx_HAL_Driver/Src/stm32l0xx_hal_rtc_ex.c **** 
 624:Drivers/STM32L0xx_HAL_Driver/Src/stm32l0xx_hal_rtc_ex.c ****   /* Configure the backup registers erasure enabling bits */
 625:Drivers/STM32L0xx_HAL_Driver/Src/stm32l0xx_hal_rtc_ex.c ****   if (sTamper->NoErase != RTC_TAMPER_ERASE_BACKUP_ENABLE)
 983              		.loc 1 625 3 is_stmt 1 view .LVU341
 984              		.loc 1 625 14 is_stmt 0 view .LVU342
 985 002a CC68     		ldr	r4, [r1, #12]
 986              		.loc 1 625 6 view .LVU343
ARM GAS  C:\Users\Tilen\AppData\Local\Temp\ccvNaC6x.s 			page 30


 987 002c 002C     		cmp	r4, #0
 988 002e 3AD0     		beq	.L53
 626:Drivers/STM32L0xx_HAL_Driver/Src/stm32l0xx_hal_rtc_ex.c ****   {
 627:Drivers/STM32L0xx_HAL_Driver/Src/stm32l0xx_hal_rtc_ex.c **** #if defined(RTC_TAMPER1_SUPPORT)
 628:Drivers/STM32L0xx_HAL_Driver/Src/stm32l0xx_hal_rtc_ex.c ****     if ((sTamper->Tamper & RTC_TAMPER_1) != 0U)
 989              		.loc 1 628 5 is_stmt 1 view .LVU344
 990              		.loc 1 628 8 is_stmt 0 view .LVU345
 991 0030 D407     		lsls	r4, r2, #31
 992 0032 02D5     		bpl	.L54
 629:Drivers/STM32L0xx_HAL_Driver/Src/stm32l0xx_hal_rtc_ex.c ****     {
 630:Drivers/STM32L0xx_HAL_Driver/Src/stm32l0xx_hal_rtc_ex.c ****       tmpreg |= (uint32_t)(RTC_TAMPCR_TAMP1NOERASE);
 993              		.loc 1 630 7 is_stmt 1 view .LVU346
 994              		.loc 1 630 14 is_stmt 0 view .LVU347
 995 0034 8024     		movs	r4, #128
 996 0036 A402     		lsls	r4, r4, #10
 997 0038 2343     		orrs	r3, r4
 998              	.LVL86:
 999              	.L54:
 631:Drivers/STM32L0xx_HAL_Driver/Src/stm32l0xx_hal_rtc_ex.c ****     }
 632:Drivers/STM32L0xx_HAL_Driver/Src/stm32l0xx_hal_rtc_ex.c **** #endif /* RTC_TAMPER1_SUPPORT */
 633:Drivers/STM32L0xx_HAL_Driver/Src/stm32l0xx_hal_rtc_ex.c ****     if ((sTamper->Tamper & RTC_TAMPER_2) != 0U)
 1000              		.loc 1 633 5 is_stmt 1 view .LVU348
 1001              		.loc 1 633 8 is_stmt 0 view .LVU349
 1002 003a 1407     		lsls	r4, r2, #28
 1003 003c 02D5     		bpl	.L55
 634:Drivers/STM32L0xx_HAL_Driver/Src/stm32l0xx_hal_rtc_ex.c ****     {
 635:Drivers/STM32L0xx_HAL_Driver/Src/stm32l0xx_hal_rtc_ex.c ****       tmpreg |= (uint32_t)(RTC_TAMPCR_TAMP2NOERASE);
 1004              		.loc 1 635 7 is_stmt 1 view .LVU350
 1005              		.loc 1 635 14 is_stmt 0 view .LVU351
 1006 003e 8024     		movs	r4, #128
 1007 0040 6403     		lsls	r4, r4, #13
 1008 0042 2343     		orrs	r3, r4
 1009              	.LVL87:
 1010              	.L55:
 636:Drivers/STM32L0xx_HAL_Driver/Src/stm32l0xx_hal_rtc_ex.c ****     }
 637:Drivers/STM32L0xx_HAL_Driver/Src/stm32l0xx_hal_rtc_ex.c **** #if defined(RTC_TAMPER3_SUPPORT)
 638:Drivers/STM32L0xx_HAL_Driver/Src/stm32l0xx_hal_rtc_ex.c ****     if ((sTamper->Tamper & RTC_TAMPER_3) != 0U)
 639:Drivers/STM32L0xx_HAL_Driver/Src/stm32l0xx_hal_rtc_ex.c ****     {
 640:Drivers/STM32L0xx_HAL_Driver/Src/stm32l0xx_hal_rtc_ex.c ****       tmpreg |= (uint32_t)(RTC_TAMPCR_TAMP3NOERASE);
 641:Drivers/STM32L0xx_HAL_Driver/Src/stm32l0xx_hal_rtc_ex.c ****     }
 642:Drivers/STM32L0xx_HAL_Driver/Src/stm32l0xx_hal_rtc_ex.c **** #endif /* RTC_TAMPER3_SUPPORT */
 643:Drivers/STM32L0xx_HAL_Driver/Src/stm32l0xx_hal_rtc_ex.c ****   }
 644:Drivers/STM32L0xx_HAL_Driver/Src/stm32l0xx_hal_rtc_ex.c ****   else
 645:Drivers/STM32L0xx_HAL_Driver/Src/stm32l0xx_hal_rtc_ex.c ****   {
 646:Drivers/STM32L0xx_HAL_Driver/Src/stm32l0xx_hal_rtc_ex.c **** #if defined(RTC_TAMPER1_SUPPORT)
 647:Drivers/STM32L0xx_HAL_Driver/Src/stm32l0xx_hal_rtc_ex.c ****     if ((sTamper->Tamper & RTC_TAMPER_1) != 0U)
 648:Drivers/STM32L0xx_HAL_Driver/Src/stm32l0xx_hal_rtc_ex.c ****     {
 649:Drivers/STM32L0xx_HAL_Driver/Src/stm32l0xx_hal_rtc_ex.c ****       tmpreg &= (uint32_t)~(RTC_TAMPCR_TAMP1NOERASE);
 650:Drivers/STM32L0xx_HAL_Driver/Src/stm32l0xx_hal_rtc_ex.c ****     }
 651:Drivers/STM32L0xx_HAL_Driver/Src/stm32l0xx_hal_rtc_ex.c **** #endif /* RTC_TAMPER1_SUPPORT */
 652:Drivers/STM32L0xx_HAL_Driver/Src/stm32l0xx_hal_rtc_ex.c ****     if ((sTamper->Tamper & RTC_TAMPER_2) != 0U)
 653:Drivers/STM32L0xx_HAL_Driver/Src/stm32l0xx_hal_rtc_ex.c ****     {
 654:Drivers/STM32L0xx_HAL_Driver/Src/stm32l0xx_hal_rtc_ex.c ****       tmpreg &= (uint32_t)~(RTC_TAMPCR_TAMP2NOERASE);
 655:Drivers/STM32L0xx_HAL_Driver/Src/stm32l0xx_hal_rtc_ex.c ****     }
 656:Drivers/STM32L0xx_HAL_Driver/Src/stm32l0xx_hal_rtc_ex.c **** #if defined(RTC_TAMPER3_SUPPORT)
 657:Drivers/STM32L0xx_HAL_Driver/Src/stm32l0xx_hal_rtc_ex.c ****     if ((sTamper->Tamper & RTC_TAMPER_3) != 0U)
 658:Drivers/STM32L0xx_HAL_Driver/Src/stm32l0xx_hal_rtc_ex.c ****     {
ARM GAS  C:\Users\Tilen\AppData\Local\Temp\ccvNaC6x.s 			page 31


 659:Drivers/STM32L0xx_HAL_Driver/Src/stm32l0xx_hal_rtc_ex.c ****       tmpreg &= (uint32_t)~(RTC_TAMPCR_TAMP3NOERASE);
 660:Drivers/STM32L0xx_HAL_Driver/Src/stm32l0xx_hal_rtc_ex.c ****     }
 661:Drivers/STM32L0xx_HAL_Driver/Src/stm32l0xx_hal_rtc_ex.c **** #endif /* RTC_TAMPER3_SUPPORT */
 662:Drivers/STM32L0xx_HAL_Driver/Src/stm32l0xx_hal_rtc_ex.c ****   }
 663:Drivers/STM32L0xx_HAL_Driver/Src/stm32l0xx_hal_rtc_ex.c **** 
 664:Drivers/STM32L0xx_HAL_Driver/Src/stm32l0xx_hal_rtc_ex.c ****   /* Configure the tamper flags masking bits */
 665:Drivers/STM32L0xx_HAL_Driver/Src/stm32l0xx_hal_rtc_ex.c ****   if (sTamper->MaskFlag != RTC_TAMPERMASK_FLAG_DISABLE)
 1011              		.loc 1 665 3 is_stmt 1 view .LVU352
 1012              		.loc 1 665 14 is_stmt 0 view .LVU353
 1013 0044 0C69     		ldr	r4, [r1, #16]
 1014              		.loc 1 665 6 view .LVU354
 1015 0046 002C     		cmp	r4, #0
 1016 0048 36D0     		beq	.L57
 666:Drivers/STM32L0xx_HAL_Driver/Src/stm32l0xx_hal_rtc_ex.c ****   {
 667:Drivers/STM32L0xx_HAL_Driver/Src/stm32l0xx_hal_rtc_ex.c **** #if defined(RTC_TAMPER1_SUPPORT)
 668:Drivers/STM32L0xx_HAL_Driver/Src/stm32l0xx_hal_rtc_ex.c ****     if ((sTamper->Tamper & RTC_TAMPER_1) != 0U)
 1017              		.loc 1 668 5 is_stmt 1 view .LVU355
 1018              		.loc 1 668 8 is_stmt 0 view .LVU356
 1019 004a D407     		lsls	r4, r2, #31
 1020 004c 02D5     		bpl	.L58
 669:Drivers/STM32L0xx_HAL_Driver/Src/stm32l0xx_hal_rtc_ex.c ****     {
 670:Drivers/STM32L0xx_HAL_Driver/Src/stm32l0xx_hal_rtc_ex.c ****       tmpreg |= (uint32_t)(RTC_TAMPCR_TAMP1MF);
 1021              		.loc 1 670 7 is_stmt 1 view .LVU357
 1022              		.loc 1 670 14 is_stmt 0 view .LVU358
 1023 004e 8024     		movs	r4, #128
 1024 0050 E402     		lsls	r4, r4, #11
 1025 0052 2343     		orrs	r3, r4
 1026              	.LVL88:
 1027              	.L58:
 671:Drivers/STM32L0xx_HAL_Driver/Src/stm32l0xx_hal_rtc_ex.c ****     }
 672:Drivers/STM32L0xx_HAL_Driver/Src/stm32l0xx_hal_rtc_ex.c **** #endif /* RTC_TAMPER1_SUPPORT */
 673:Drivers/STM32L0xx_HAL_Driver/Src/stm32l0xx_hal_rtc_ex.c ****     if ((sTamper->Tamper & RTC_TAMPER_2) != 0U)
 1028              		.loc 1 673 5 is_stmt 1 view .LVU359
 1029              		.loc 1 673 8 is_stmt 0 view .LVU360
 1030 0054 1207     		lsls	r2, r2, #28
 1031 0056 02D5     		bpl	.L59
 674:Drivers/STM32L0xx_HAL_Driver/Src/stm32l0xx_hal_rtc_ex.c ****     {
 675:Drivers/STM32L0xx_HAL_Driver/Src/stm32l0xx_hal_rtc_ex.c ****       tmpreg |= (uint32_t)(RTC_TAMPCR_TAMP2MF);
 1032              		.loc 1 675 7 is_stmt 1 view .LVU361
 1033              		.loc 1 675 14 is_stmt 0 view .LVU362
 1034 0058 8022     		movs	r2, #128
 1035 005a 9203     		lsls	r2, r2, #14
 1036 005c 1343     		orrs	r3, r2
 1037              	.LVL89:
 1038              	.L59:
 676:Drivers/STM32L0xx_HAL_Driver/Src/stm32l0xx_hal_rtc_ex.c ****     }
 677:Drivers/STM32L0xx_HAL_Driver/Src/stm32l0xx_hal_rtc_ex.c **** #if defined(RTC_TAMPER3_SUPPORT)
 678:Drivers/STM32L0xx_HAL_Driver/Src/stm32l0xx_hal_rtc_ex.c ****     if ((sTamper->Tamper & RTC_TAMPER_3) != 0U)
 679:Drivers/STM32L0xx_HAL_Driver/Src/stm32l0xx_hal_rtc_ex.c ****     {
 680:Drivers/STM32L0xx_HAL_Driver/Src/stm32l0xx_hal_rtc_ex.c ****       tmpreg |= (uint32_t)(RTC_TAMPCR_TAMP3MF);
 681:Drivers/STM32L0xx_HAL_Driver/Src/stm32l0xx_hal_rtc_ex.c ****     }
 682:Drivers/STM32L0xx_HAL_Driver/Src/stm32l0xx_hal_rtc_ex.c **** #endif /* RTC_TAMPER3_SUPPORT */
 683:Drivers/STM32L0xx_HAL_Driver/Src/stm32l0xx_hal_rtc_ex.c ****   }
 684:Drivers/STM32L0xx_HAL_Driver/Src/stm32l0xx_hal_rtc_ex.c ****   else
 685:Drivers/STM32L0xx_HAL_Driver/Src/stm32l0xx_hal_rtc_ex.c ****   {
 686:Drivers/STM32L0xx_HAL_Driver/Src/stm32l0xx_hal_rtc_ex.c **** #if defined(RTC_TAMPER1_SUPPORT)
 687:Drivers/STM32L0xx_HAL_Driver/Src/stm32l0xx_hal_rtc_ex.c ****     if ((sTamper->Tamper & RTC_TAMPER_1) != 0U)
ARM GAS  C:\Users\Tilen\AppData\Local\Temp\ccvNaC6x.s 			page 32


 688:Drivers/STM32L0xx_HAL_Driver/Src/stm32l0xx_hal_rtc_ex.c ****     {
 689:Drivers/STM32L0xx_HAL_Driver/Src/stm32l0xx_hal_rtc_ex.c ****       tmpreg &= (uint32_t)~(RTC_TAMPCR_TAMP1MF);
 690:Drivers/STM32L0xx_HAL_Driver/Src/stm32l0xx_hal_rtc_ex.c ****     }
 691:Drivers/STM32L0xx_HAL_Driver/Src/stm32l0xx_hal_rtc_ex.c **** #endif /* RTC_TAMPER1_SUPPORT */
 692:Drivers/STM32L0xx_HAL_Driver/Src/stm32l0xx_hal_rtc_ex.c ****     if ((sTamper->Tamper & RTC_TAMPER_2) != 0U)
 693:Drivers/STM32L0xx_HAL_Driver/Src/stm32l0xx_hal_rtc_ex.c ****     {
 694:Drivers/STM32L0xx_HAL_Driver/Src/stm32l0xx_hal_rtc_ex.c ****       tmpreg &= (uint32_t)~(RTC_TAMPCR_TAMP2MF);
 695:Drivers/STM32L0xx_HAL_Driver/Src/stm32l0xx_hal_rtc_ex.c ****     }
 696:Drivers/STM32L0xx_HAL_Driver/Src/stm32l0xx_hal_rtc_ex.c **** #if defined(RTC_TAMPER3_SUPPORT)
 697:Drivers/STM32L0xx_HAL_Driver/Src/stm32l0xx_hal_rtc_ex.c ****     if ((sTamper->Tamper & RTC_TAMPER_3) != 0U)
 698:Drivers/STM32L0xx_HAL_Driver/Src/stm32l0xx_hal_rtc_ex.c ****     {
 699:Drivers/STM32L0xx_HAL_Driver/Src/stm32l0xx_hal_rtc_ex.c ****       tmpreg &= (uint32_t)~(RTC_TAMPCR_TAMP3MF);
 700:Drivers/STM32L0xx_HAL_Driver/Src/stm32l0xx_hal_rtc_ex.c ****     }
 701:Drivers/STM32L0xx_HAL_Driver/Src/stm32l0xx_hal_rtc_ex.c **** #endif /* RTC_TAMPER3_SUPPORT */
 702:Drivers/STM32L0xx_HAL_Driver/Src/stm32l0xx_hal_rtc_ex.c ****   }
 703:Drivers/STM32L0xx_HAL_Driver/Src/stm32l0xx_hal_rtc_ex.c **** 
 704:Drivers/STM32L0xx_HAL_Driver/Src/stm32l0xx_hal_rtc_ex.c ****   /* Clear remaining fields before setting them */
 705:Drivers/STM32L0xx_HAL_Driver/Src/stm32l0xx_hal_rtc_ex.c ****   tmpreg &= ~(RTC_TAMPERFILTER_MASK              | \
 1039              		.loc 1 705 3 is_stmt 1 view .LVU363
 1040              		.loc 1 705 10 is_stmt 0 view .LVU364
 1041 005e 1C4A     		ldr	r2, .L71
 1042 0060 1A40     		ands	r2, r3
 1043              	.LVL90:
 706:Drivers/STM32L0xx_HAL_Driver/Src/stm32l0xx_hal_rtc_ex.c ****               RTC_TAMPERSAMPLINGFREQ_RTCCLK_MASK | \
 707:Drivers/STM32L0xx_HAL_Driver/Src/stm32l0xx_hal_rtc_ex.c ****               RTC_TAMPERPRECHARGEDURATION_MASK   | \
 708:Drivers/STM32L0xx_HAL_Driver/Src/stm32l0xx_hal_rtc_ex.c ****               RTC_TAMPER_PULLUP_MASK             | \
 709:Drivers/STM32L0xx_HAL_Driver/Src/stm32l0xx_hal_rtc_ex.c ****               RTC_TIMESTAMPONTAMPERDETECTION_MASK);
 710:Drivers/STM32L0xx_HAL_Driver/Src/stm32l0xx_hal_rtc_ex.c **** 
 711:Drivers/STM32L0xx_HAL_Driver/Src/stm32l0xx_hal_rtc_ex.c ****   /* Set remaining parameters of desired configuration into temporary variable */
 712:Drivers/STM32L0xx_HAL_Driver/Src/stm32l0xx_hal_rtc_ex.c ****   tmpreg |= ((uint32_t)sTamper->Filter            | \
 1044              		.loc 1 712 3 is_stmt 1 view .LVU365
 1045              		.loc 1 712 31 is_stmt 0 view .LVU366
 1046 0062 4B69     		ldr	r3, [r1, #20]
 713:Drivers/STM32L0xx_HAL_Driver/Src/stm32l0xx_hal_rtc_ex.c ****              (uint32_t)sTamper->SamplingFrequency | \
 1047              		.loc 1 713 31 view .LVU367
 1048 0064 8C69     		ldr	r4, [r1, #24]
 712:Drivers/STM32L0xx_HAL_Driver/Src/stm32l0xx_hal_rtc_ex.c ****              (uint32_t)sTamper->SamplingFrequency | \
 1049              		.loc 1 712 51 view .LVU368
 1050 0066 2343     		orrs	r3, r4
 714:Drivers/STM32L0xx_HAL_Driver/Src/stm32l0xx_hal_rtc_ex.c ****              (uint32_t)sTamper->PrechargeDuration | \
 1051              		.loc 1 714 31 view .LVU369
 1052 0068 CC69     		ldr	r4, [r1, #28]
 713:Drivers/STM32L0xx_HAL_Driver/Src/stm32l0xx_hal_rtc_ex.c ****              (uint32_t)sTamper->SamplingFrequency | \
 1053              		.loc 1 713 51 view .LVU370
 1054 006a 2343     		orrs	r3, r4
 715:Drivers/STM32L0xx_HAL_Driver/Src/stm32l0xx_hal_rtc_ex.c ****              (uint32_t)sTamper->TamperPullUp      | \
 1055              		.loc 1 715 31 view .LVU371
 1056 006c 0C6A     		ldr	r4, [r1, #32]
 714:Drivers/STM32L0xx_HAL_Driver/Src/stm32l0xx_hal_rtc_ex.c ****              (uint32_t)sTamper->PrechargeDuration | \
 1057              		.loc 1 714 51 view .LVU372
 1058 006e 2343     		orrs	r3, r4
 716:Drivers/STM32L0xx_HAL_Driver/Src/stm32l0xx_hal_rtc_ex.c ****              (uint32_t)sTamper->TimeStampOnTamperDetection);
 1059              		.loc 1 716 31 view .LVU373
 1060 0070 4C6A     		ldr	r4, [r1, #36]
 715:Drivers/STM32L0xx_HAL_Driver/Src/stm32l0xx_hal_rtc_ex.c ****              (uint32_t)sTamper->TamperPullUp      | \
 1061              		.loc 1 715 51 view .LVU374
 1062 0072 2343     		orrs	r3, r4
ARM GAS  C:\Users\Tilen\AppData\Local\Temp\ccvNaC6x.s 			page 33


 712:Drivers/STM32L0xx_HAL_Driver/Src/stm32l0xx_hal_rtc_ex.c ****              (uint32_t)sTamper->SamplingFrequency | \
 1063              		.loc 1 712 10 view .LVU375
 1064 0074 1343     		orrs	r3, r2
 1065              	.LVL91:
 717:Drivers/STM32L0xx_HAL_Driver/Src/stm32l0xx_hal_rtc_ex.c **** 
 718:Drivers/STM32L0xx_HAL_Driver/Src/stm32l0xx_hal_rtc_ex.c ****   /* Enable interrupt on selected tamper */
 719:Drivers/STM32L0xx_HAL_Driver/Src/stm32l0xx_hal_rtc_ex.c ****   tmpreg |= (uint32_t)sTamper->Interrupt;
 1066              		.loc 1 719 3 is_stmt 1 view .LVU376
 1067              		.loc 1 719 30 is_stmt 0 view .LVU377
 1068 0076 4A68     		ldr	r2, [r1, #4]
 1069              		.loc 1 719 10 view .LVU378
 1070 0078 1343     		orrs	r3, r2
 1071              	.LVL92:
 720:Drivers/STM32L0xx_HAL_Driver/Src/stm32l0xx_hal_rtc_ex.c **** 
 721:Drivers/STM32L0xx_HAL_Driver/Src/stm32l0xx_hal_rtc_ex.c ****   /* Copy desired configuration into configuration register */
 722:Drivers/STM32L0xx_HAL_Driver/Src/stm32l0xx_hal_rtc_ex.c ****   hrtc->Instance->TAMPCR = tmpreg;
 1072              		.loc 1 722 3 is_stmt 1 view .LVU379
 1073              		.loc 1 722 26 is_stmt 0 view .LVU380
 1074 007a 6246     		mov	r2, ip
 1075 007c 1364     		str	r3, [r2, #64]
 723:Drivers/STM32L0xx_HAL_Driver/Src/stm32l0xx_hal_rtc_ex.c **** 
 724:Drivers/STM32L0xx_HAL_Driver/Src/stm32l0xx_hal_rtc_ex.c ****   /* Enable and configure the EXTI line associated to the RTC Timestamp and Tamper interrupts */
 725:Drivers/STM32L0xx_HAL_Driver/Src/stm32l0xx_hal_rtc_ex.c ****   __HAL_RTC_TAMPER_TIMESTAMP_EXTI_ENABLE_IT();
 1076              		.loc 1 725 3 is_stmt 1 view .LVU381
 1077 007e 154B     		ldr	r3, .L71+4
 1078              	.LVL93:
 1079              		.loc 1 725 3 is_stmt 0 view .LVU382
 1080 0080 1968     		ldr	r1, [r3]
 1081              	.LVL94:
 1082              		.loc 1 725 3 view .LVU383
 1083 0082 8022     		movs	r2, #128
 1084              	.LVL95:
 1085              		.loc 1 725 3 view .LVU384
 1086 0084 1203     		lsls	r2, r2, #12
 1087 0086 1143     		orrs	r1, r2
 1088 0088 1960     		str	r1, [r3]
 1089              	.LVL96:
 726:Drivers/STM32L0xx_HAL_Driver/Src/stm32l0xx_hal_rtc_ex.c ****   __HAL_RTC_TAMPER_TIMESTAMP_EXTI_ENABLE_RISING_EDGE();
 1090              		.loc 1 726 3 is_stmt 1 view .LVU385
 1091 008a 9968     		ldr	r1, [r3, #8]
 1092 008c 0A43     		orrs	r2, r1
 1093 008e 9A60     		str	r2, [r3, #8]
 727:Drivers/STM32L0xx_HAL_Driver/Src/stm32l0xx_hal_rtc_ex.c **** 
 728:Drivers/STM32L0xx_HAL_Driver/Src/stm32l0xx_hal_rtc_ex.c ****   hrtc->State = HAL_RTC_STATE_READY;
 1094              		.loc 1 728 3 view .LVU386
 1095              		.loc 1 728 15 is_stmt 0 view .LVU387
 1096 0090 2123     		movs	r3, #33
 1097 0092 0122     		movs	r2, #1
 1098 0094 C254     		strb	r2, [r0, r3]
 729:Drivers/STM32L0xx_HAL_Driver/Src/stm32l0xx_hal_rtc_ex.c **** 
 730:Drivers/STM32L0xx_HAL_Driver/Src/stm32l0xx_hal_rtc_ex.c ****   /* Process Unlocked */
 731:Drivers/STM32L0xx_HAL_Driver/Src/stm32l0xx_hal_rtc_ex.c ****   __HAL_UNLOCK(hrtc);
 1099              		.loc 1 731 3 is_stmt 1 view .LVU388
 1100              		.loc 1 731 3 view .LVU389
 1101 0096 013B     		subs	r3, r3, #1
 1102 0098 0022     		movs	r2, #0
 1103 009a C254     		strb	r2, [r0, r3]
ARM GAS  C:\Users\Tilen\AppData\Local\Temp\ccvNaC6x.s 			page 34


 1104              		.loc 1 731 3 view .LVU390
 732:Drivers/STM32L0xx_HAL_Driver/Src/stm32l0xx_hal_rtc_ex.c **** 
 733:Drivers/STM32L0xx_HAL_Driver/Src/stm32l0xx_hal_rtc_ex.c ****   return HAL_OK;
 1105              		.loc 1 733 3 view .LVU391
 1106              		.loc 1 733 10 is_stmt 0 view .LVU392
 1107 009c 0020     		movs	r0, #0
 1108              	.LVL97:
 1109              	.L50:
 734:Drivers/STM32L0xx_HAL_Driver/Src/stm32l0xx_hal_rtc_ex.c **** }
 1110              		.loc 1 734 1 view .LVU393
 1111              		@ sp needed
 1112 009e 10BD     		pop	{r4, pc}
 1113              	.LVL98:
 1114              	.L70:
 616:Drivers/STM32L0xx_HAL_Driver/Src/stm32l0xx_hal_rtc_ex.c ****   }
 1115              		.loc 1 616 5 is_stmt 1 view .LVU394
 616:Drivers/STM32L0xx_HAL_Driver/Src/stm32l0xx_hal_rtc_ex.c ****   }
 1116              		.loc 1 616 15 is_stmt 0 view .LVU395
 1117 00a0 5400     		lsls	r4, r2, #1
 616:Drivers/STM32L0xx_HAL_Driver/Src/stm32l0xx_hal_rtc_ex.c ****   }
 1118              		.loc 1 616 12 view .LVU396
 1119 00a2 2343     		orrs	r3, r4
 1120              	.LVL99:
 616:Drivers/STM32L0xx_HAL_Driver/Src/stm32l0xx_hal_rtc_ex.c ****   }
 1121              		.loc 1 616 12 view .LVU397
 1122 00a4 C1E7     		b	.L52
 1123              	.L53:
 647:Drivers/STM32L0xx_HAL_Driver/Src/stm32l0xx_hal_rtc_ex.c ****     {
 1124              		.loc 1 647 5 is_stmt 1 view .LVU398
 647:Drivers/STM32L0xx_HAL_Driver/Src/stm32l0xx_hal_rtc_ex.c ****     {
 1125              		.loc 1 647 8 is_stmt 0 view .LVU399
 1126 00a6 D407     		lsls	r4, r2, #31
 1127 00a8 01D5     		bpl	.L56
 649:Drivers/STM32L0xx_HAL_Driver/Src/stm32l0xx_hal_rtc_ex.c ****     }
 1128              		.loc 1 649 7 is_stmt 1 view .LVU400
 649:Drivers/STM32L0xx_HAL_Driver/Src/stm32l0xx_hal_rtc_ex.c ****     }
 1129              		.loc 1 649 14 is_stmt 0 view .LVU401
 1130 00aa 0B4C     		ldr	r4, .L71+8
 1131 00ac 2340     		ands	r3, r4
 1132              	.LVL100:
 1133              	.L56:
 652:Drivers/STM32L0xx_HAL_Driver/Src/stm32l0xx_hal_rtc_ex.c ****     {
 1134              		.loc 1 652 5 is_stmt 1 view .LVU402
 652:Drivers/STM32L0xx_HAL_Driver/Src/stm32l0xx_hal_rtc_ex.c ****     {
 1135              		.loc 1 652 8 is_stmt 0 view .LVU403
 1136 00ae 1407     		lsls	r4, r2, #28
 1137 00b0 C8D5     		bpl	.L55
 654:Drivers/STM32L0xx_HAL_Driver/Src/stm32l0xx_hal_rtc_ex.c ****     }
 1138              		.loc 1 654 7 is_stmt 1 view .LVU404
 654:Drivers/STM32L0xx_HAL_Driver/Src/stm32l0xx_hal_rtc_ex.c ****     }
 1139              		.loc 1 654 14 is_stmt 0 view .LVU405
 1140 00b2 0A4C     		ldr	r4, .L71+12
 1141 00b4 2340     		ands	r3, r4
 1142              	.LVL101:
 654:Drivers/STM32L0xx_HAL_Driver/Src/stm32l0xx_hal_rtc_ex.c ****     }
 1143              		.loc 1 654 14 view .LVU406
 1144 00b6 C5E7     		b	.L55
ARM GAS  C:\Users\Tilen\AppData\Local\Temp\ccvNaC6x.s 			page 35


 1145              	.LVL102:
 1146              	.L57:
 687:Drivers/STM32L0xx_HAL_Driver/Src/stm32l0xx_hal_rtc_ex.c ****     {
 1147              		.loc 1 687 5 is_stmt 1 view .LVU407
 687:Drivers/STM32L0xx_HAL_Driver/Src/stm32l0xx_hal_rtc_ex.c ****     {
 1148              		.loc 1 687 8 is_stmt 0 view .LVU408
 1149 00b8 D407     		lsls	r4, r2, #31
 1150 00ba 01D5     		bpl	.L60
 689:Drivers/STM32L0xx_HAL_Driver/Src/stm32l0xx_hal_rtc_ex.c ****     }
 1151              		.loc 1 689 7 is_stmt 1 view .LVU409
 689:Drivers/STM32L0xx_HAL_Driver/Src/stm32l0xx_hal_rtc_ex.c ****     }
 1152              		.loc 1 689 14 is_stmt 0 view .LVU410
 1153 00bc 084C     		ldr	r4, .L71+16
 1154 00be 2340     		ands	r3, r4
 1155              	.LVL103:
 1156              	.L60:
 692:Drivers/STM32L0xx_HAL_Driver/Src/stm32l0xx_hal_rtc_ex.c ****     {
 1157              		.loc 1 692 5 is_stmt 1 view .LVU411
 692:Drivers/STM32L0xx_HAL_Driver/Src/stm32l0xx_hal_rtc_ex.c ****     {
 1158              		.loc 1 692 8 is_stmt 0 view .LVU412
 1159 00c0 1207     		lsls	r2, r2, #28
 1160 00c2 CCD5     		bpl	.L59
 694:Drivers/STM32L0xx_HAL_Driver/Src/stm32l0xx_hal_rtc_ex.c ****     }
 1161              		.loc 1 694 7 is_stmt 1 view .LVU413
 694:Drivers/STM32L0xx_HAL_Driver/Src/stm32l0xx_hal_rtc_ex.c ****     }
 1162              		.loc 1 694 14 is_stmt 0 view .LVU414
 1163 00c4 074A     		ldr	r2, .L71+20
 1164 00c6 1340     		ands	r3, r2
 1165              	.LVL104:
 694:Drivers/STM32L0xx_HAL_Driver/Src/stm32l0xx_hal_rtc_ex.c ****     }
 1166              		.loc 1 694 14 view .LVU415
 1167 00c8 C9E7     		b	.L59
 1168              	.LVL105:
 1169              	.L61:
 601:Drivers/STM32L0xx_HAL_Driver/Src/stm32l0xx_hal_rtc_ex.c **** 
 1170              		.loc 1 601 3 discriminator 1 view .LVU416
 1171 00ca 0220     		movs	r0, #2
 1172              	.LVL106:
 601:Drivers/STM32L0xx_HAL_Driver/Src/stm32l0xx_hal_rtc_ex.c **** 
 1173              		.loc 1 601 3 discriminator 1 view .LVU417
 1174 00cc E7E7     		b	.L50
 1175              	.L72:
 1176 00ce C046     		.align	2
 1177              	.L71:
 1178 00d0 7F00FFFF 		.word	-65409
 1179 00d4 00040140 		.word	1073808384
 1180 00d8 FFFFFDFF 		.word	-131073
 1181 00dc FFFFEFFF 		.word	-1048577
 1182 00e0 FFFFFBFF 		.word	-262145
 1183 00e4 FFFFDFFF 		.word	-2097153
 1184              		.cfi_endproc
 1185              	.LFE52:
 1187              		.section	.text.HAL_RTCEx_DeactivateTamper,"ax",%progbits
 1188              		.align	1
 1189              		.global	HAL_RTCEx_DeactivateTamper
 1190              		.syntax unified
 1191              		.code	16
ARM GAS  C:\Users\Tilen\AppData\Local\Temp\ccvNaC6x.s 			page 36


 1192              		.thumb_func
 1194              	HAL_RTCEx_DeactivateTamper:
 1195              	.LVL107:
 1196              	.LFB53:
 735:Drivers/STM32L0xx_HAL_Driver/Src/stm32l0xx_hal_rtc_ex.c **** 
 736:Drivers/STM32L0xx_HAL_Driver/Src/stm32l0xx_hal_rtc_ex.c **** /**
 737:Drivers/STM32L0xx_HAL_Driver/Src/stm32l0xx_hal_rtc_ex.c ****   * @brief  Deactivates Tamper.
 738:Drivers/STM32L0xx_HAL_Driver/Src/stm32l0xx_hal_rtc_ex.c ****   * @note   By calling this API the tamper global interrupt will be disabled.
 739:Drivers/STM32L0xx_HAL_Driver/Src/stm32l0xx_hal_rtc_ex.c ****   * @param  hrtc pointer to a RTC_HandleTypeDef structure that contains
 740:Drivers/STM32L0xx_HAL_Driver/Src/stm32l0xx_hal_rtc_ex.c ****   *                the configuration information for RTC.
 741:Drivers/STM32L0xx_HAL_Driver/Src/stm32l0xx_hal_rtc_ex.c ****   * @param  Tamper Selected tamper pin.
 742:Drivers/STM32L0xx_HAL_Driver/Src/stm32l0xx_hal_rtc_ex.c ****   *          This parameter can be any combination of the following values:
 743:Drivers/STM32L0xx_HAL_Driver/Src/stm32l0xx_hal_rtc_ex.c ****   *            @arg RTC_TAMPER_1:  Tamper 1 (*)
 744:Drivers/STM32L0xx_HAL_Driver/Src/stm32l0xx_hal_rtc_ex.c ****   *            @arg RTC_TAMPER_2:  Tamper 2
 745:Drivers/STM32L0xx_HAL_Driver/Src/stm32l0xx_hal_rtc_ex.c ****   *            @arg RTC_TAMPER_3:  Tamper 3 (*)
 746:Drivers/STM32L0xx_HAL_Driver/Src/stm32l0xx_hal_rtc_ex.c ****   *
 747:Drivers/STM32L0xx_HAL_Driver/Src/stm32l0xx_hal_rtc_ex.c ****   *         (*) value not applicable to all devices.
 748:Drivers/STM32L0xx_HAL_Driver/Src/stm32l0xx_hal_rtc_ex.c ****   * @retval HAL status
 749:Drivers/STM32L0xx_HAL_Driver/Src/stm32l0xx_hal_rtc_ex.c ****   */
 750:Drivers/STM32L0xx_HAL_Driver/Src/stm32l0xx_hal_rtc_ex.c **** HAL_StatusTypeDef HAL_RTCEx_DeactivateTamper(RTC_HandleTypeDef *hrtc, uint32_t Tamper)
 751:Drivers/STM32L0xx_HAL_Driver/Src/stm32l0xx_hal_rtc_ex.c **** {
 1197              		.loc 1 751 1 is_stmt 1 view -0
 1198              		.cfi_startproc
 1199              		@ args = 0, pretend = 0, frame = 0
 1200              		@ frame_needed = 0, uses_anonymous_args = 0
 1201              		.loc 1 751 1 is_stmt 0 view .LVU419
 1202 0000 10B5     		push	{r4, lr}
 1203              	.LCFI6:
 1204              		.cfi_def_cfa_offset 8
 1205              		.cfi_offset 4, -8
 1206              		.cfi_offset 14, -4
 752:Drivers/STM32L0xx_HAL_Driver/Src/stm32l0xx_hal_rtc_ex.c ****   assert_param(IS_RTC_TAMPER(Tamper));
 1207              		.loc 1 752 3 is_stmt 1 view .LVU420
 753:Drivers/STM32L0xx_HAL_Driver/Src/stm32l0xx_hal_rtc_ex.c **** 
 754:Drivers/STM32L0xx_HAL_Driver/Src/stm32l0xx_hal_rtc_ex.c ****   /* Process Locked */
 755:Drivers/STM32L0xx_HAL_Driver/Src/stm32l0xx_hal_rtc_ex.c ****   __HAL_LOCK(hrtc);
 1208              		.loc 1 755 3 view .LVU421
 1209              		.loc 1 755 3 view .LVU422
 1210 0002 2023     		movs	r3, #32
 1211 0004 C35C     		ldrb	r3, [r0, r3]
 1212 0006 012B     		cmp	r3, #1
 1213 0008 21D0     		beq	.L77
 1214              		.loc 1 755 3 discriminator 2 view .LVU423
 1215 000a 0122     		movs	r2, #1
 1216 000c 2023     		movs	r3, #32
 1217 000e C254     		strb	r2, [r0, r3]
 1218              		.loc 1 755 3 view .LVU424
 756:Drivers/STM32L0xx_HAL_Driver/Src/stm32l0xx_hal_rtc_ex.c **** 
 757:Drivers/STM32L0xx_HAL_Driver/Src/stm32l0xx_hal_rtc_ex.c ****   hrtc->State = HAL_RTC_STATE_BUSY;
 1219              		.loc 1 757 3 view .LVU425
 1220              		.loc 1 757 15 is_stmt 0 view .LVU426
 1221 0010 0133     		adds	r3, r3, #1
 1222 0012 0224     		movs	r4, #2
 1223 0014 C454     		strb	r4, [r0, r3]
 758:Drivers/STM32L0xx_HAL_Driver/Src/stm32l0xx_hal_rtc_ex.c **** 
 759:Drivers/STM32L0xx_HAL_Driver/Src/stm32l0xx_hal_rtc_ex.c ****   /* Disable the selected Tamper pin */
 760:Drivers/STM32L0xx_HAL_Driver/Src/stm32l0xx_hal_rtc_ex.c ****   hrtc->Instance->TAMPCR &= (uint32_t)~Tamper;
ARM GAS  C:\Users\Tilen\AppData\Local\Temp\ccvNaC6x.s 			page 37


 1224              		.loc 1 760 3 is_stmt 1 view .LVU427
 1225              		.loc 1 760 7 is_stmt 0 view .LVU428
 1226 0016 0368     		ldr	r3, [r0]
 1227 0018 9C46     		mov	ip, r3
 1228              		.loc 1 760 17 view .LVU429
 1229 001a 1B6C     		ldr	r3, [r3, #64]
 1230              		.loc 1 760 26 view .LVU430
 1231 001c 8B43     		bics	r3, r1
 1232 001e 6446     		mov	r4, ip
 1233 0020 2364     		str	r3, [r4, #64]
 761:Drivers/STM32L0xx_HAL_Driver/Src/stm32l0xx_hal_rtc_ex.c **** 
 762:Drivers/STM32L0xx_HAL_Driver/Src/stm32l0xx_hal_rtc_ex.c **** #if defined(RTC_TAMPER1_SUPPORT)
 763:Drivers/STM32L0xx_HAL_Driver/Src/stm32l0xx_hal_rtc_ex.c ****   if ((Tamper & RTC_TAMPER_1) != 0U)
 1234              		.loc 1 763 3 is_stmt 1 view .LVU431
 1235              		.loc 1 763 6 is_stmt 0 view .LVU432
 1236 0022 0A42     		tst	r2, r1
 1237 0024 04D0     		beq	.L75
 764:Drivers/STM32L0xx_HAL_Driver/Src/stm32l0xx_hal_rtc_ex.c ****   {
 765:Drivers/STM32L0xx_HAL_Driver/Src/stm32l0xx_hal_rtc_ex.c ****     /* Disable the Tamper 1 interrupt */
 766:Drivers/STM32L0xx_HAL_Driver/Src/stm32l0xx_hal_rtc_ex.c ****     hrtc->Instance->TAMPCR &= (uint32_t)~(RTC_IT_TAMP | RTC_IT_TAMP1);
 1238              		.loc 1 766 5 is_stmt 1 view .LVU433
 1239              		.loc 1 766 9 is_stmt 0 view .LVU434
 1240 0026 0268     		ldr	r2, [r0]
 1241              		.loc 1 766 19 view .LVU435
 1242 0028 136C     		ldr	r3, [r2, #64]
 1243              		.loc 1 766 28 view .LVU436
 1244 002a 0A4C     		ldr	r4, .L79
 1245 002c 2340     		ands	r3, r4
 1246 002e 1364     		str	r3, [r2, #64]
 1247              	.L75:
 767:Drivers/STM32L0xx_HAL_Driver/Src/stm32l0xx_hal_rtc_ex.c ****   }
 768:Drivers/STM32L0xx_HAL_Driver/Src/stm32l0xx_hal_rtc_ex.c **** #endif /* RTC_TAMPER1_SUPPORT */
 769:Drivers/STM32L0xx_HAL_Driver/Src/stm32l0xx_hal_rtc_ex.c ****   if ((Tamper & RTC_TAMPER_2) != 0U)
 1248              		.loc 1 769 3 is_stmt 1 view .LVU437
 1249              		.loc 1 769 6 is_stmt 0 view .LVU438
 1250 0030 0907     		lsls	r1, r1, #28
 1251 0032 04D5     		bpl	.L76
 1252              	.LVL108:
 770:Drivers/STM32L0xx_HAL_Driver/Src/stm32l0xx_hal_rtc_ex.c ****   {
 771:Drivers/STM32L0xx_HAL_Driver/Src/stm32l0xx_hal_rtc_ex.c ****     /* Disable the Tamper 2 interrupt */
 772:Drivers/STM32L0xx_HAL_Driver/Src/stm32l0xx_hal_rtc_ex.c ****     hrtc->Instance->TAMPCR &= (uint32_t)~(RTC_IT_TAMP | RTC_IT_TAMP2);
 1253              		.loc 1 772 5 is_stmt 1 view .LVU439
 1254              		.loc 1 772 9 is_stmt 0 view .LVU440
 1255 0034 0268     		ldr	r2, [r0]
 1256              		.loc 1 772 19 view .LVU441
 1257 0036 136C     		ldr	r3, [r2, #64]
 1258              		.loc 1 772 28 view .LVU442
 1259 0038 0749     		ldr	r1, .L79+4
 1260 003a 0B40     		ands	r3, r1
 1261 003c 1364     		str	r3, [r2, #64]
 1262              	.L76:
 773:Drivers/STM32L0xx_HAL_Driver/Src/stm32l0xx_hal_rtc_ex.c ****   }
 774:Drivers/STM32L0xx_HAL_Driver/Src/stm32l0xx_hal_rtc_ex.c **** #if defined(RTC_TAMPER3_SUPPORT)
 775:Drivers/STM32L0xx_HAL_Driver/Src/stm32l0xx_hal_rtc_ex.c ****   if ((Tamper & RTC_TAMPER_3) != 0U)
 776:Drivers/STM32L0xx_HAL_Driver/Src/stm32l0xx_hal_rtc_ex.c ****   {
 777:Drivers/STM32L0xx_HAL_Driver/Src/stm32l0xx_hal_rtc_ex.c ****     /* Disable the Tamper 3 interrupt */
 778:Drivers/STM32L0xx_HAL_Driver/Src/stm32l0xx_hal_rtc_ex.c ****     hrtc->Instance->TAMPCR &= (uint32_t)~(RTC_IT_TAMP | RTC_IT_TAMP3);
ARM GAS  C:\Users\Tilen\AppData\Local\Temp\ccvNaC6x.s 			page 38


 779:Drivers/STM32L0xx_HAL_Driver/Src/stm32l0xx_hal_rtc_ex.c ****   }
 780:Drivers/STM32L0xx_HAL_Driver/Src/stm32l0xx_hal_rtc_ex.c **** #endif /* RTC_TAMPER3_SUPPORT */
 781:Drivers/STM32L0xx_HAL_Driver/Src/stm32l0xx_hal_rtc_ex.c **** 
 782:Drivers/STM32L0xx_HAL_Driver/Src/stm32l0xx_hal_rtc_ex.c ****   hrtc->State = HAL_RTC_STATE_READY;
 1263              		.loc 1 782 3 is_stmt 1 view .LVU443
 1264              		.loc 1 782 15 is_stmt 0 view .LVU444
 1265 003e 2123     		movs	r3, #33
 1266 0040 0122     		movs	r2, #1
 1267 0042 C254     		strb	r2, [r0, r3]
 783:Drivers/STM32L0xx_HAL_Driver/Src/stm32l0xx_hal_rtc_ex.c **** 
 784:Drivers/STM32L0xx_HAL_Driver/Src/stm32l0xx_hal_rtc_ex.c ****   /* Process Unlocked */
 785:Drivers/STM32L0xx_HAL_Driver/Src/stm32l0xx_hal_rtc_ex.c ****   __HAL_UNLOCK(hrtc);
 1268              		.loc 1 785 3 is_stmt 1 view .LVU445
 1269              		.loc 1 785 3 view .LVU446
 1270 0044 013B     		subs	r3, r3, #1
 1271 0046 0022     		movs	r2, #0
 1272 0048 C254     		strb	r2, [r0, r3]
 1273              		.loc 1 785 3 view .LVU447
 786:Drivers/STM32L0xx_HAL_Driver/Src/stm32l0xx_hal_rtc_ex.c **** 
 787:Drivers/STM32L0xx_HAL_Driver/Src/stm32l0xx_hal_rtc_ex.c ****   return HAL_OK;
 1274              		.loc 1 787 3 view .LVU448
 1275              		.loc 1 787 10 is_stmt 0 view .LVU449
 1276 004a 0020     		movs	r0, #0
 1277              	.LVL109:
 1278              	.L74:
 788:Drivers/STM32L0xx_HAL_Driver/Src/stm32l0xx_hal_rtc_ex.c **** }
 1279              		.loc 1 788 1 view .LVU450
 1280              		@ sp needed
 1281 004c 10BD     		pop	{r4, pc}
 1282              	.LVL110:
 1283              	.L77:
 755:Drivers/STM32L0xx_HAL_Driver/Src/stm32l0xx_hal_rtc_ex.c **** 
 1284              		.loc 1 755 3 discriminator 1 view .LVU451
 1285 004e 0220     		movs	r0, #2
 1286              	.LVL111:
 755:Drivers/STM32L0xx_HAL_Driver/Src/stm32l0xx_hal_rtc_ex.c **** 
 1287              		.loc 1 755 3 discriminator 1 view .LVU452
 1288 0050 FCE7     		b	.L74
 1289              	.L80:
 1290 0052 C046     		.align	2
 1291              	.L79:
 1292 0054 FBFFFEFF 		.word	-65541
 1293 0058 FBFFF7FF 		.word	-524293
 1294              		.cfi_endproc
 1295              	.LFE53:
 1297              		.section	.text.HAL_RTCEx_TimeStampEventCallback,"ax",%progbits
 1298              		.align	1
 1299              		.weak	HAL_RTCEx_TimeStampEventCallback
 1300              		.syntax unified
 1301              		.code	16
 1302              		.thumb_func
 1304              	HAL_RTCEx_TimeStampEventCallback:
 1305              	.LVL112:
 1306              	.LFB55:
 789:Drivers/STM32L0xx_HAL_Driver/Src/stm32l0xx_hal_rtc_ex.c **** 
 790:Drivers/STM32L0xx_HAL_Driver/Src/stm32l0xx_hal_rtc_ex.c **** /**
 791:Drivers/STM32L0xx_HAL_Driver/Src/stm32l0xx_hal_rtc_ex.c ****   * @brief  Handles Timestamp and Tamper interrupt request.
ARM GAS  C:\Users\Tilen\AppData\Local\Temp\ccvNaC6x.s 			page 39


 792:Drivers/STM32L0xx_HAL_Driver/Src/stm32l0xx_hal_rtc_ex.c ****   * @param  hrtc pointer to a RTC_HandleTypeDef structure that contains
 793:Drivers/STM32L0xx_HAL_Driver/Src/stm32l0xx_hal_rtc_ex.c ****   *                the configuration information for RTC.
 794:Drivers/STM32L0xx_HAL_Driver/Src/stm32l0xx_hal_rtc_ex.c ****   * @retval None
 795:Drivers/STM32L0xx_HAL_Driver/Src/stm32l0xx_hal_rtc_ex.c ****   */
 796:Drivers/STM32L0xx_HAL_Driver/Src/stm32l0xx_hal_rtc_ex.c **** void HAL_RTCEx_TamperTimeStampIRQHandler(RTC_HandleTypeDef *hrtc)
 797:Drivers/STM32L0xx_HAL_Driver/Src/stm32l0xx_hal_rtc_ex.c **** {
 798:Drivers/STM32L0xx_HAL_Driver/Src/stm32l0xx_hal_rtc_ex.c ****   /* Clear the EXTI flag associated to the RTC Timestamp and Tamper interrupts */
 799:Drivers/STM32L0xx_HAL_Driver/Src/stm32l0xx_hal_rtc_ex.c ****   __HAL_RTC_TAMPER_TIMESTAMP_EXTI_CLEAR_FLAG();
 800:Drivers/STM32L0xx_HAL_Driver/Src/stm32l0xx_hal_rtc_ex.c **** 
 801:Drivers/STM32L0xx_HAL_Driver/Src/stm32l0xx_hal_rtc_ex.c ****   /* Get the Timestamp interrupt source enable status */
 802:Drivers/STM32L0xx_HAL_Driver/Src/stm32l0xx_hal_rtc_ex.c ****   if (__HAL_RTC_TIMESTAMP_GET_IT_SOURCE(hrtc, RTC_IT_TS) != 0U)
 803:Drivers/STM32L0xx_HAL_Driver/Src/stm32l0xx_hal_rtc_ex.c ****   {
 804:Drivers/STM32L0xx_HAL_Driver/Src/stm32l0xx_hal_rtc_ex.c ****     /* Get the pending status of the Timestamp Interrupt */
 805:Drivers/STM32L0xx_HAL_Driver/Src/stm32l0xx_hal_rtc_ex.c ****     if (__HAL_RTC_TIMESTAMP_GET_FLAG(hrtc, RTC_FLAG_TSF) != 0U)
 806:Drivers/STM32L0xx_HAL_Driver/Src/stm32l0xx_hal_rtc_ex.c ****     {
 807:Drivers/STM32L0xx_HAL_Driver/Src/stm32l0xx_hal_rtc_ex.c ****       /* Timestamp callback */
 808:Drivers/STM32L0xx_HAL_Driver/Src/stm32l0xx_hal_rtc_ex.c **** #if (USE_HAL_RTC_REGISTER_CALLBACKS == 1)
 809:Drivers/STM32L0xx_HAL_Driver/Src/stm32l0xx_hal_rtc_ex.c ****       hrtc->TimeStampEventCallback(hrtc);
 810:Drivers/STM32L0xx_HAL_Driver/Src/stm32l0xx_hal_rtc_ex.c **** #else
 811:Drivers/STM32L0xx_HAL_Driver/Src/stm32l0xx_hal_rtc_ex.c ****       HAL_RTCEx_TimeStampEventCallback(hrtc);
 812:Drivers/STM32L0xx_HAL_Driver/Src/stm32l0xx_hal_rtc_ex.c **** #endif /* USE_HAL_RTC_REGISTER_CALLBACKS */
 813:Drivers/STM32L0xx_HAL_Driver/Src/stm32l0xx_hal_rtc_ex.c **** 
 814:Drivers/STM32L0xx_HAL_Driver/Src/stm32l0xx_hal_rtc_ex.c ****       /* Clear the Timestamp interrupt pending bit after returning from callback
 815:Drivers/STM32L0xx_HAL_Driver/Src/stm32l0xx_hal_rtc_ex.c ****          as RTC_TSTR and RTC_TSDR registers are cleared when TSF bit is reset */
 816:Drivers/STM32L0xx_HAL_Driver/Src/stm32l0xx_hal_rtc_ex.c ****       __HAL_RTC_TIMESTAMP_CLEAR_FLAG(hrtc, RTC_FLAG_TSF);
 817:Drivers/STM32L0xx_HAL_Driver/Src/stm32l0xx_hal_rtc_ex.c ****     }
 818:Drivers/STM32L0xx_HAL_Driver/Src/stm32l0xx_hal_rtc_ex.c ****   }
 819:Drivers/STM32L0xx_HAL_Driver/Src/stm32l0xx_hal_rtc_ex.c **** 
 820:Drivers/STM32L0xx_HAL_Driver/Src/stm32l0xx_hal_rtc_ex.c **** #if defined(RTC_TAMPER1_SUPPORT)
 821:Drivers/STM32L0xx_HAL_Driver/Src/stm32l0xx_hal_rtc_ex.c ****   /* Get the Tamper 1 interrupt source enable status */
 822:Drivers/STM32L0xx_HAL_Driver/Src/stm32l0xx_hal_rtc_ex.c ****   if (__HAL_RTC_TAMPER_GET_IT_SOURCE(hrtc, RTC_IT_TAMP | RTC_IT_TAMP1) != 0U)
 823:Drivers/STM32L0xx_HAL_Driver/Src/stm32l0xx_hal_rtc_ex.c ****   {
 824:Drivers/STM32L0xx_HAL_Driver/Src/stm32l0xx_hal_rtc_ex.c ****     /* Get the pending status of the Tamper 1 Interrupt */
 825:Drivers/STM32L0xx_HAL_Driver/Src/stm32l0xx_hal_rtc_ex.c ****     if (__HAL_RTC_TAMPER_GET_FLAG(hrtc, RTC_FLAG_TAMP1F) != 0U)
 826:Drivers/STM32L0xx_HAL_Driver/Src/stm32l0xx_hal_rtc_ex.c ****     {
 827:Drivers/STM32L0xx_HAL_Driver/Src/stm32l0xx_hal_rtc_ex.c ****       /* Clear the Tamper interrupt pending bit */
 828:Drivers/STM32L0xx_HAL_Driver/Src/stm32l0xx_hal_rtc_ex.c ****       __HAL_RTC_TAMPER_CLEAR_FLAG(hrtc, RTC_FLAG_TAMP1F);
 829:Drivers/STM32L0xx_HAL_Driver/Src/stm32l0xx_hal_rtc_ex.c **** 
 830:Drivers/STM32L0xx_HAL_Driver/Src/stm32l0xx_hal_rtc_ex.c ****       /* Tamper callback */
 831:Drivers/STM32L0xx_HAL_Driver/Src/stm32l0xx_hal_rtc_ex.c **** #if (USE_HAL_RTC_REGISTER_CALLBACKS == 1)
 832:Drivers/STM32L0xx_HAL_Driver/Src/stm32l0xx_hal_rtc_ex.c ****       hrtc->Tamper1EventCallback(hrtc);
 833:Drivers/STM32L0xx_HAL_Driver/Src/stm32l0xx_hal_rtc_ex.c **** #else
 834:Drivers/STM32L0xx_HAL_Driver/Src/stm32l0xx_hal_rtc_ex.c ****       HAL_RTCEx_Tamper1EventCallback(hrtc);
 835:Drivers/STM32L0xx_HAL_Driver/Src/stm32l0xx_hal_rtc_ex.c **** #endif /* USE_HAL_RTC_REGISTER_CALLBACKS */
 836:Drivers/STM32L0xx_HAL_Driver/Src/stm32l0xx_hal_rtc_ex.c ****     }
 837:Drivers/STM32L0xx_HAL_Driver/Src/stm32l0xx_hal_rtc_ex.c ****   }
 838:Drivers/STM32L0xx_HAL_Driver/Src/stm32l0xx_hal_rtc_ex.c **** #endif /* RTC_TAMPER1_SUPPORT */
 839:Drivers/STM32L0xx_HAL_Driver/Src/stm32l0xx_hal_rtc_ex.c **** 
 840:Drivers/STM32L0xx_HAL_Driver/Src/stm32l0xx_hal_rtc_ex.c ****   /* Get the Tamper 2 interrupt source enable status */
 841:Drivers/STM32L0xx_HAL_Driver/Src/stm32l0xx_hal_rtc_ex.c ****   if (__HAL_RTC_TAMPER_GET_IT_SOURCE(hrtc, RTC_IT_TAMP | RTC_IT_TAMP2) != 0U)
 842:Drivers/STM32L0xx_HAL_Driver/Src/stm32l0xx_hal_rtc_ex.c ****   {
 843:Drivers/STM32L0xx_HAL_Driver/Src/stm32l0xx_hal_rtc_ex.c ****     /* Get the pending status of the Tamper 2 Interrupt */
 844:Drivers/STM32L0xx_HAL_Driver/Src/stm32l0xx_hal_rtc_ex.c ****     if (__HAL_RTC_TAMPER_GET_FLAG(hrtc, RTC_FLAG_TAMP2F) != 0U)
 845:Drivers/STM32L0xx_HAL_Driver/Src/stm32l0xx_hal_rtc_ex.c ****     {
 846:Drivers/STM32L0xx_HAL_Driver/Src/stm32l0xx_hal_rtc_ex.c ****       /* Clear the Tamper interrupt pending bit */
 847:Drivers/STM32L0xx_HAL_Driver/Src/stm32l0xx_hal_rtc_ex.c ****       __HAL_RTC_TAMPER_CLEAR_FLAG(hrtc, RTC_FLAG_TAMP2F);
 848:Drivers/STM32L0xx_HAL_Driver/Src/stm32l0xx_hal_rtc_ex.c **** 
ARM GAS  C:\Users\Tilen\AppData\Local\Temp\ccvNaC6x.s 			page 40


 849:Drivers/STM32L0xx_HAL_Driver/Src/stm32l0xx_hal_rtc_ex.c ****       /* Tamper callback */
 850:Drivers/STM32L0xx_HAL_Driver/Src/stm32l0xx_hal_rtc_ex.c **** #if (USE_HAL_RTC_REGISTER_CALLBACKS == 1)
 851:Drivers/STM32L0xx_HAL_Driver/Src/stm32l0xx_hal_rtc_ex.c ****       hrtc->Tamper2EventCallback(hrtc);
 852:Drivers/STM32L0xx_HAL_Driver/Src/stm32l0xx_hal_rtc_ex.c **** #else
 853:Drivers/STM32L0xx_HAL_Driver/Src/stm32l0xx_hal_rtc_ex.c ****       HAL_RTCEx_Tamper2EventCallback(hrtc);
 854:Drivers/STM32L0xx_HAL_Driver/Src/stm32l0xx_hal_rtc_ex.c **** #endif /* USE_HAL_RTC_REGISTER_CALLBACKS */
 855:Drivers/STM32L0xx_HAL_Driver/Src/stm32l0xx_hal_rtc_ex.c ****     }
 856:Drivers/STM32L0xx_HAL_Driver/Src/stm32l0xx_hal_rtc_ex.c ****   }
 857:Drivers/STM32L0xx_HAL_Driver/Src/stm32l0xx_hal_rtc_ex.c **** 
 858:Drivers/STM32L0xx_HAL_Driver/Src/stm32l0xx_hal_rtc_ex.c **** #if defined(RTC_TAMPER3_SUPPORT)
 859:Drivers/STM32L0xx_HAL_Driver/Src/stm32l0xx_hal_rtc_ex.c ****   /* Get the Tamper 3 interrupt source enable status */
 860:Drivers/STM32L0xx_HAL_Driver/Src/stm32l0xx_hal_rtc_ex.c ****   if (__HAL_RTC_TAMPER_GET_IT_SOURCE(hrtc, RTC_IT_TAMP | RTC_IT_TAMP3) != 0U)
 861:Drivers/STM32L0xx_HAL_Driver/Src/stm32l0xx_hal_rtc_ex.c ****   {
 862:Drivers/STM32L0xx_HAL_Driver/Src/stm32l0xx_hal_rtc_ex.c ****     /* Get the pending status of the Tamper 3 Interrupt */
 863:Drivers/STM32L0xx_HAL_Driver/Src/stm32l0xx_hal_rtc_ex.c ****     if (__HAL_RTC_TAMPER_GET_FLAG(hrtc, RTC_FLAG_TAMP3F) != 0U)
 864:Drivers/STM32L0xx_HAL_Driver/Src/stm32l0xx_hal_rtc_ex.c ****     {
 865:Drivers/STM32L0xx_HAL_Driver/Src/stm32l0xx_hal_rtc_ex.c ****       /* Clear the Tamper interrupt pending bit */
 866:Drivers/STM32L0xx_HAL_Driver/Src/stm32l0xx_hal_rtc_ex.c ****       __HAL_RTC_TAMPER_CLEAR_FLAG(hrtc, RTC_FLAG_TAMP3F);
 867:Drivers/STM32L0xx_HAL_Driver/Src/stm32l0xx_hal_rtc_ex.c **** 
 868:Drivers/STM32L0xx_HAL_Driver/Src/stm32l0xx_hal_rtc_ex.c ****       /* Tamper callback */
 869:Drivers/STM32L0xx_HAL_Driver/Src/stm32l0xx_hal_rtc_ex.c **** #if (USE_HAL_RTC_REGISTER_CALLBACKS == 1)
 870:Drivers/STM32L0xx_HAL_Driver/Src/stm32l0xx_hal_rtc_ex.c ****       hrtc->Tamper3EventCallback(hrtc);
 871:Drivers/STM32L0xx_HAL_Driver/Src/stm32l0xx_hal_rtc_ex.c **** #else
 872:Drivers/STM32L0xx_HAL_Driver/Src/stm32l0xx_hal_rtc_ex.c ****       HAL_RTCEx_Tamper3EventCallback(hrtc);
 873:Drivers/STM32L0xx_HAL_Driver/Src/stm32l0xx_hal_rtc_ex.c **** #endif /* USE_HAL_RTC_REGISTER_CALLBACKS */
 874:Drivers/STM32L0xx_HAL_Driver/Src/stm32l0xx_hal_rtc_ex.c ****     }
 875:Drivers/STM32L0xx_HAL_Driver/Src/stm32l0xx_hal_rtc_ex.c ****   }
 876:Drivers/STM32L0xx_HAL_Driver/Src/stm32l0xx_hal_rtc_ex.c **** #endif /* RTC_TAMPER3_SUPPORT */
 877:Drivers/STM32L0xx_HAL_Driver/Src/stm32l0xx_hal_rtc_ex.c **** 
 878:Drivers/STM32L0xx_HAL_Driver/Src/stm32l0xx_hal_rtc_ex.c ****   /* Change RTC state */
 879:Drivers/STM32L0xx_HAL_Driver/Src/stm32l0xx_hal_rtc_ex.c ****   hrtc->State = HAL_RTC_STATE_READY;
 880:Drivers/STM32L0xx_HAL_Driver/Src/stm32l0xx_hal_rtc_ex.c **** }
 881:Drivers/STM32L0xx_HAL_Driver/Src/stm32l0xx_hal_rtc_ex.c **** 
 882:Drivers/STM32L0xx_HAL_Driver/Src/stm32l0xx_hal_rtc_ex.c **** /**
 883:Drivers/STM32L0xx_HAL_Driver/Src/stm32l0xx_hal_rtc_ex.c ****   * @brief  Timestamp callback.
 884:Drivers/STM32L0xx_HAL_Driver/Src/stm32l0xx_hal_rtc_ex.c ****   * @param  hrtc pointer to a RTC_HandleTypeDef structure that contains
 885:Drivers/STM32L0xx_HAL_Driver/Src/stm32l0xx_hal_rtc_ex.c ****   *                the configuration information for RTC.
 886:Drivers/STM32L0xx_HAL_Driver/Src/stm32l0xx_hal_rtc_ex.c ****   * @retval None
 887:Drivers/STM32L0xx_HAL_Driver/Src/stm32l0xx_hal_rtc_ex.c ****   */
 888:Drivers/STM32L0xx_HAL_Driver/Src/stm32l0xx_hal_rtc_ex.c **** __weak void HAL_RTCEx_TimeStampEventCallback(RTC_HandleTypeDef *hrtc)
 889:Drivers/STM32L0xx_HAL_Driver/Src/stm32l0xx_hal_rtc_ex.c **** {
 1307              		.loc 1 889 1 is_stmt 1 view -0
 1308              		.cfi_startproc
 1309              		@ args = 0, pretend = 0, frame = 0
 1310              		@ frame_needed = 0, uses_anonymous_args = 0
 1311              		@ link register save eliminated.
 890:Drivers/STM32L0xx_HAL_Driver/Src/stm32l0xx_hal_rtc_ex.c ****   /* Prevent unused argument(s) compilation warning */
 891:Drivers/STM32L0xx_HAL_Driver/Src/stm32l0xx_hal_rtc_ex.c ****   UNUSED(hrtc);
 1312              		.loc 1 891 3 view .LVU454
 892:Drivers/STM32L0xx_HAL_Driver/Src/stm32l0xx_hal_rtc_ex.c **** 
 893:Drivers/STM32L0xx_HAL_Driver/Src/stm32l0xx_hal_rtc_ex.c ****   /* NOTE: This function should not be modified, when the callback is needed,
 894:Drivers/STM32L0xx_HAL_Driver/Src/stm32l0xx_hal_rtc_ex.c ****            the HAL_RTCEx_TimeStampEventCallback could be implemented in the user file
 895:Drivers/STM32L0xx_HAL_Driver/Src/stm32l0xx_hal_rtc_ex.c ****   */
 896:Drivers/STM32L0xx_HAL_Driver/Src/stm32l0xx_hal_rtc_ex.c **** }
 1313              		.loc 1 896 1 is_stmt 0 view .LVU455
 1314              		@ sp needed
 1315 0000 7047     		bx	lr
ARM GAS  C:\Users\Tilen\AppData\Local\Temp\ccvNaC6x.s 			page 41


 1316              		.cfi_endproc
 1317              	.LFE55:
 1319              		.section	.text.HAL_RTCEx_Tamper1EventCallback,"ax",%progbits
 1320              		.align	1
 1321              		.weak	HAL_RTCEx_Tamper1EventCallback
 1322              		.syntax unified
 1323              		.code	16
 1324              		.thumb_func
 1326              	HAL_RTCEx_Tamper1EventCallback:
 1327              	.LVL113:
 1328              	.LFB56:
 897:Drivers/STM32L0xx_HAL_Driver/Src/stm32l0xx_hal_rtc_ex.c **** 
 898:Drivers/STM32L0xx_HAL_Driver/Src/stm32l0xx_hal_rtc_ex.c **** #if defined(RTC_TAMPER1_SUPPORT)
 899:Drivers/STM32L0xx_HAL_Driver/Src/stm32l0xx_hal_rtc_ex.c **** /**
 900:Drivers/STM32L0xx_HAL_Driver/Src/stm32l0xx_hal_rtc_ex.c ****   * @brief  Tamper 1 callback.
 901:Drivers/STM32L0xx_HAL_Driver/Src/stm32l0xx_hal_rtc_ex.c ****   * @param  hrtc pointer to a RTC_HandleTypeDef structure that contains
 902:Drivers/STM32L0xx_HAL_Driver/Src/stm32l0xx_hal_rtc_ex.c ****   *                the configuration information for RTC.
 903:Drivers/STM32L0xx_HAL_Driver/Src/stm32l0xx_hal_rtc_ex.c ****   * @retval None
 904:Drivers/STM32L0xx_HAL_Driver/Src/stm32l0xx_hal_rtc_ex.c ****   */
 905:Drivers/STM32L0xx_HAL_Driver/Src/stm32l0xx_hal_rtc_ex.c **** __weak void HAL_RTCEx_Tamper1EventCallback(RTC_HandleTypeDef *hrtc)
 906:Drivers/STM32L0xx_HAL_Driver/Src/stm32l0xx_hal_rtc_ex.c **** {
 1329              		.loc 1 906 1 is_stmt 1 view -0
 1330              		.cfi_startproc
 1331              		@ args = 0, pretend = 0, frame = 0
 1332              		@ frame_needed = 0, uses_anonymous_args = 0
 1333              		@ link register save eliminated.
 907:Drivers/STM32L0xx_HAL_Driver/Src/stm32l0xx_hal_rtc_ex.c ****   /* Prevent unused argument(s) compilation warning */
 908:Drivers/STM32L0xx_HAL_Driver/Src/stm32l0xx_hal_rtc_ex.c ****   UNUSED(hrtc);
 1334              		.loc 1 908 3 view .LVU457
 909:Drivers/STM32L0xx_HAL_Driver/Src/stm32l0xx_hal_rtc_ex.c **** 
 910:Drivers/STM32L0xx_HAL_Driver/Src/stm32l0xx_hal_rtc_ex.c ****   /* NOTE: This function should not be modified, when the callback is needed,
 911:Drivers/STM32L0xx_HAL_Driver/Src/stm32l0xx_hal_rtc_ex.c ****            the HAL_RTCEx_Tamper1EventCallback could be implemented in the user file
 912:Drivers/STM32L0xx_HAL_Driver/Src/stm32l0xx_hal_rtc_ex.c ****    */
 913:Drivers/STM32L0xx_HAL_Driver/Src/stm32l0xx_hal_rtc_ex.c **** }
 1335              		.loc 1 913 1 is_stmt 0 view .LVU458
 1336              		@ sp needed
 1337 0000 7047     		bx	lr
 1338              		.cfi_endproc
 1339              	.LFE56:
 1341              		.section	.text.HAL_RTCEx_Tamper2EventCallback,"ax",%progbits
 1342              		.align	1
 1343              		.weak	HAL_RTCEx_Tamper2EventCallback
 1344              		.syntax unified
 1345              		.code	16
 1346              		.thumb_func
 1348              	HAL_RTCEx_Tamper2EventCallback:
 1349              	.LVL114:
 1350              	.LFB57:
 914:Drivers/STM32L0xx_HAL_Driver/Src/stm32l0xx_hal_rtc_ex.c **** #endif /* RTC_TAMPER1_SUPPORT */
 915:Drivers/STM32L0xx_HAL_Driver/Src/stm32l0xx_hal_rtc_ex.c **** 
 916:Drivers/STM32L0xx_HAL_Driver/Src/stm32l0xx_hal_rtc_ex.c **** /**
 917:Drivers/STM32L0xx_HAL_Driver/Src/stm32l0xx_hal_rtc_ex.c ****   * @brief  Tamper 2 callback.
 918:Drivers/STM32L0xx_HAL_Driver/Src/stm32l0xx_hal_rtc_ex.c ****   * @param  hrtc pointer to a RTC_HandleTypeDef structure that contains
 919:Drivers/STM32L0xx_HAL_Driver/Src/stm32l0xx_hal_rtc_ex.c ****   *                the configuration information for RTC.
 920:Drivers/STM32L0xx_HAL_Driver/Src/stm32l0xx_hal_rtc_ex.c ****   * @retval None
 921:Drivers/STM32L0xx_HAL_Driver/Src/stm32l0xx_hal_rtc_ex.c ****   */
 922:Drivers/STM32L0xx_HAL_Driver/Src/stm32l0xx_hal_rtc_ex.c **** __weak void HAL_RTCEx_Tamper2EventCallback(RTC_HandleTypeDef *hrtc)
ARM GAS  C:\Users\Tilen\AppData\Local\Temp\ccvNaC6x.s 			page 42


 923:Drivers/STM32L0xx_HAL_Driver/Src/stm32l0xx_hal_rtc_ex.c **** {
 1351              		.loc 1 923 1 is_stmt 1 view -0
 1352              		.cfi_startproc
 1353              		@ args = 0, pretend = 0, frame = 0
 1354              		@ frame_needed = 0, uses_anonymous_args = 0
 1355              		@ link register save eliminated.
 924:Drivers/STM32L0xx_HAL_Driver/Src/stm32l0xx_hal_rtc_ex.c ****   /* Prevent unused argument(s) compilation warning */
 925:Drivers/STM32L0xx_HAL_Driver/Src/stm32l0xx_hal_rtc_ex.c ****   UNUSED(hrtc);
 1356              		.loc 1 925 3 view .LVU460
 926:Drivers/STM32L0xx_HAL_Driver/Src/stm32l0xx_hal_rtc_ex.c **** 
 927:Drivers/STM32L0xx_HAL_Driver/Src/stm32l0xx_hal_rtc_ex.c ****   /* NOTE: This function should not be modified, when the callback is needed,
 928:Drivers/STM32L0xx_HAL_Driver/Src/stm32l0xx_hal_rtc_ex.c ****            the HAL_RTCEx_Tamper2EventCallback could be implemented in the user file
 929:Drivers/STM32L0xx_HAL_Driver/Src/stm32l0xx_hal_rtc_ex.c ****    */
 930:Drivers/STM32L0xx_HAL_Driver/Src/stm32l0xx_hal_rtc_ex.c **** }
 1357              		.loc 1 930 1 is_stmt 0 view .LVU461
 1358              		@ sp needed
 1359 0000 7047     		bx	lr
 1360              		.cfi_endproc
 1361              	.LFE57:
 1363              		.section	.text.HAL_RTCEx_TamperTimeStampIRQHandler,"ax",%progbits
 1364              		.align	1
 1365              		.global	HAL_RTCEx_TamperTimeStampIRQHandler
 1366              		.syntax unified
 1367              		.code	16
 1368              		.thumb_func
 1370              	HAL_RTCEx_TamperTimeStampIRQHandler:
 1371              	.LVL115:
 1372              	.LFB54:
 797:Drivers/STM32L0xx_HAL_Driver/Src/stm32l0xx_hal_rtc_ex.c ****   /* Clear the EXTI flag associated to the RTC Timestamp and Tamper interrupts */
 1373              		.loc 1 797 1 is_stmt 1 view -0
 1374              		.cfi_startproc
 1375              		@ args = 0, pretend = 0, frame = 0
 1376              		@ frame_needed = 0, uses_anonymous_args = 0
 797:Drivers/STM32L0xx_HAL_Driver/Src/stm32l0xx_hal_rtc_ex.c ****   /* Clear the EXTI flag associated to the RTC Timestamp and Tamper interrupts */
 1377              		.loc 1 797 1 is_stmt 0 view .LVU463
 1378 0000 10B5     		push	{r4, lr}
 1379              	.LCFI7:
 1380              		.cfi_def_cfa_offset 8
 1381              		.cfi_offset 4, -8
 1382              		.cfi_offset 14, -4
 1383 0002 0400     		movs	r4, r0
 799:Drivers/STM32L0xx_HAL_Driver/Src/stm32l0xx_hal_rtc_ex.c **** 
 1384              		.loc 1 799 3 is_stmt 1 view .LVU464
 1385 0004 1E4B     		ldr	r3, .L95
 1386 0006 8022     		movs	r2, #128
 1387 0008 1203     		lsls	r2, r2, #12
 1388 000a 5A61     		str	r2, [r3, #20]
 802:Drivers/STM32L0xx_HAL_Driver/Src/stm32l0xx_hal_rtc_ex.c ****   {
 1389              		.loc 1 802 3 view .LVU465
 802:Drivers/STM32L0xx_HAL_Driver/Src/stm32l0xx_hal_rtc_ex.c ****   {
 1390              		.loc 1 802 7 is_stmt 0 view .LVU466
 1391 000c 0268     		ldr	r2, [r0]
 1392 000e 9368     		ldr	r3, [r2, #8]
 802:Drivers/STM32L0xx_HAL_Driver/Src/stm32l0xx_hal_rtc_ex.c ****   {
 1393              		.loc 1 802 6 view .LVU467
 1394 0010 1B04     		lsls	r3, r3, #16
 1395 0012 02D5     		bpl	.L85
ARM GAS  C:\Users\Tilen\AppData\Local\Temp\ccvNaC6x.s 			page 43


 805:Drivers/STM32L0xx_HAL_Driver/Src/stm32l0xx_hal_rtc_ex.c ****     {
 1396              		.loc 1 805 5 is_stmt 1 view .LVU468
 805:Drivers/STM32L0xx_HAL_Driver/Src/stm32l0xx_hal_rtc_ex.c ****     {
 1397              		.loc 1 805 9 is_stmt 0 view .LVU469
 1398 0014 D368     		ldr	r3, [r2, #12]
 805:Drivers/STM32L0xx_HAL_Driver/Src/stm32l0xx_hal_rtc_ex.c ****     {
 1399              		.loc 1 805 8 view .LVU470
 1400 0016 1B05     		lsls	r3, r3, #20
 1401 0018 13D4     		bmi	.L92
 1402              	.LVL116:
 1403              	.L85:
 822:Drivers/STM32L0xx_HAL_Driver/Src/stm32l0xx_hal_rtc_ex.c ****   {
 1404              		.loc 1 822 3 is_stmt 1 view .LVU471
 822:Drivers/STM32L0xx_HAL_Driver/Src/stm32l0xx_hal_rtc_ex.c ****   {
 1405              		.loc 1 822 7 is_stmt 0 view .LVU472
 1406 001a 2368     		ldr	r3, [r4]
 1407 001c 196C     		ldr	r1, [r3, #64]
 1408 001e 194A     		ldr	r2, .L95+4
 822:Drivers/STM32L0xx_HAL_Driver/Src/stm32l0xx_hal_rtc_ex.c ****   {
 1409              		.loc 1 822 6 view .LVU473
 1410 0020 1142     		tst	r1, r2
 1411 0022 02D0     		beq	.L86
 825:Drivers/STM32L0xx_HAL_Driver/Src/stm32l0xx_hal_rtc_ex.c ****     {
 1412              		.loc 1 825 5 is_stmt 1 view .LVU474
 825:Drivers/STM32L0xx_HAL_Driver/Src/stm32l0xx_hal_rtc_ex.c ****     {
 1413              		.loc 1 825 9 is_stmt 0 view .LVU475
 1414 0024 DA68     		ldr	r2, [r3, #12]
 825:Drivers/STM32L0xx_HAL_Driver/Src/stm32l0xx_hal_rtc_ex.c ****     {
 1415              		.loc 1 825 8 view .LVU476
 1416 0026 9204     		lsls	r2, r2, #18
 1417 0028 15D4     		bmi	.L93
 1418              	.L86:
 841:Drivers/STM32L0xx_HAL_Driver/Src/stm32l0xx_hal_rtc_ex.c ****   {
 1419              		.loc 1 841 3 is_stmt 1 view .LVU477
 841:Drivers/STM32L0xx_HAL_Driver/Src/stm32l0xx_hal_rtc_ex.c ****   {
 1420              		.loc 1 841 7 is_stmt 0 view .LVU478
 1421 002a 2368     		ldr	r3, [r4]
 1422 002c 196C     		ldr	r1, [r3, #64]
 1423 002e 164A     		ldr	r2, .L95+8
 841:Drivers/STM32L0xx_HAL_Driver/Src/stm32l0xx_hal_rtc_ex.c ****   {
 1424              		.loc 1 841 6 view .LVU479
 1425 0030 1142     		tst	r1, r2
 1426 0032 02D0     		beq	.L87
 844:Drivers/STM32L0xx_HAL_Driver/Src/stm32l0xx_hal_rtc_ex.c ****     {
 1427              		.loc 1 844 5 is_stmt 1 view .LVU480
 844:Drivers/STM32L0xx_HAL_Driver/Src/stm32l0xx_hal_rtc_ex.c ****     {
 1428              		.loc 1 844 9 is_stmt 0 view .LVU481
 1429 0034 DA68     		ldr	r2, [r3, #12]
 844:Drivers/STM32L0xx_HAL_Driver/Src/stm32l0xx_hal_rtc_ex.c ****     {
 1430              		.loc 1 844 8 view .LVU482
 1431 0036 5204     		lsls	r2, r2, #17
 1432 0038 17D4     		bmi	.L94
 1433              	.L87:
 879:Drivers/STM32L0xx_HAL_Driver/Src/stm32l0xx_hal_rtc_ex.c **** }
 1434              		.loc 1 879 3 is_stmt 1 view .LVU483
 879:Drivers/STM32L0xx_HAL_Driver/Src/stm32l0xx_hal_rtc_ex.c **** }
 1435              		.loc 1 879 15 is_stmt 0 view .LVU484
ARM GAS  C:\Users\Tilen\AppData\Local\Temp\ccvNaC6x.s 			page 44


 1436 003a 2123     		movs	r3, #33
 1437 003c 0122     		movs	r2, #1
 1438 003e E254     		strb	r2, [r4, r3]
 880:Drivers/STM32L0xx_HAL_Driver/Src/stm32l0xx_hal_rtc_ex.c **** 
 1439              		.loc 1 880 1 view .LVU485
 1440              		@ sp needed
 1441              	.LVL117:
 880:Drivers/STM32L0xx_HAL_Driver/Src/stm32l0xx_hal_rtc_ex.c **** 
 1442              		.loc 1 880 1 view .LVU486
 1443 0040 10BD     		pop	{r4, pc}
 1444              	.LVL118:
 1445              	.L92:
 811:Drivers/STM32L0xx_HAL_Driver/Src/stm32l0xx_hal_rtc_ex.c **** #endif /* USE_HAL_RTC_REGISTER_CALLBACKS */
 1446              		.loc 1 811 7 is_stmt 1 view .LVU487
 1447 0042 FFF7FEFF 		bl	HAL_RTCEx_TimeStampEventCallback
 1448              	.LVL119:
 816:Drivers/STM32L0xx_HAL_Driver/Src/stm32l0xx_hal_rtc_ex.c ****     }
 1449              		.loc 1 816 7 view .LVU488
 1450 0046 2168     		ldr	r1, [r4]
 1451 0048 CB68     		ldr	r3, [r1, #12]
 1452 004a FF22     		movs	r2, #255
 1453 004c 1A40     		ands	r2, r3
 1454 004e 0F4B     		ldr	r3, .L95+12
 1455 0050 1343     		orrs	r3, r2
 1456 0052 CB60     		str	r3, [r1, #12]
 1457 0054 E1E7     		b	.L85
 1458              	.L93:
 828:Drivers/STM32L0xx_HAL_Driver/Src/stm32l0xx_hal_rtc_ex.c **** 
 1459              		.loc 1 828 7 view .LVU489
 1460 0056 DA68     		ldr	r2, [r3, #12]
 1461 0058 FF21     		movs	r1, #255
 1462 005a 1140     		ands	r1, r2
 1463 005c 0C4A     		ldr	r2, .L95+16
 1464 005e 0A43     		orrs	r2, r1
 1465 0060 DA60     		str	r2, [r3, #12]
 834:Drivers/STM32L0xx_HAL_Driver/Src/stm32l0xx_hal_rtc_ex.c **** #endif /* USE_HAL_RTC_REGISTER_CALLBACKS */
 1466              		.loc 1 834 7 view .LVU490
 1467 0062 2000     		movs	r0, r4
 1468 0064 FFF7FEFF 		bl	HAL_RTCEx_Tamper1EventCallback
 1469              	.LVL120:
 1470 0068 DFE7     		b	.L86
 1471              	.L94:
 847:Drivers/STM32L0xx_HAL_Driver/Src/stm32l0xx_hal_rtc_ex.c **** 
 1472              		.loc 1 847 7 view .LVU491
 1473 006a DA68     		ldr	r2, [r3, #12]
 1474 006c FF21     		movs	r1, #255
 1475 006e 1140     		ands	r1, r2
 1476 0070 084A     		ldr	r2, .L95+20
 1477 0072 0A43     		orrs	r2, r1
 1478 0074 DA60     		str	r2, [r3, #12]
 853:Drivers/STM32L0xx_HAL_Driver/Src/stm32l0xx_hal_rtc_ex.c **** #endif /* USE_HAL_RTC_REGISTER_CALLBACKS */
 1479              		.loc 1 853 7 view .LVU492
 1480 0076 2000     		movs	r0, r4
 1481 0078 FFF7FEFF 		bl	HAL_RTCEx_Tamper2EventCallback
 1482              	.LVL121:
 1483 007c DDE7     		b	.L87
 1484              	.L96:
ARM GAS  C:\Users\Tilen\AppData\Local\Temp\ccvNaC6x.s 			page 45


 1485 007e C046     		.align	2
 1486              	.L95:
 1487 0080 00040140 		.word	1073808384
 1488 0084 04000100 		.word	65540
 1489 0088 04000800 		.word	524292
 1490 008c 7FF7FFFF 		.word	-2177
 1491 0090 7FDFFFFF 		.word	-8321
 1492 0094 7FBFFFFF 		.word	-16513
 1493              		.cfi_endproc
 1494              	.LFE54:
 1496              		.section	.text.HAL_RTCEx_PollForTimeStampEvent,"ax",%progbits
 1497              		.align	1
 1498              		.global	HAL_RTCEx_PollForTimeStampEvent
 1499              		.syntax unified
 1500              		.code	16
 1501              		.thumb_func
 1503              	HAL_RTCEx_PollForTimeStampEvent:
 1504              	.LVL122:
 1505              	.LFB58:
 931:Drivers/STM32L0xx_HAL_Driver/Src/stm32l0xx_hal_rtc_ex.c **** 
 932:Drivers/STM32L0xx_HAL_Driver/Src/stm32l0xx_hal_rtc_ex.c **** #if defined(RTC_TAMPER3_SUPPORT)
 933:Drivers/STM32L0xx_HAL_Driver/Src/stm32l0xx_hal_rtc_ex.c **** /**
 934:Drivers/STM32L0xx_HAL_Driver/Src/stm32l0xx_hal_rtc_ex.c ****   * @brief  Tamper 3 callback.
 935:Drivers/STM32L0xx_HAL_Driver/Src/stm32l0xx_hal_rtc_ex.c ****   * @param  hrtc pointer to a RTC_HandleTypeDef structure that contains
 936:Drivers/STM32L0xx_HAL_Driver/Src/stm32l0xx_hal_rtc_ex.c ****   *                the configuration information for RTC.
 937:Drivers/STM32L0xx_HAL_Driver/Src/stm32l0xx_hal_rtc_ex.c ****   * @retval None
 938:Drivers/STM32L0xx_HAL_Driver/Src/stm32l0xx_hal_rtc_ex.c ****   */
 939:Drivers/STM32L0xx_HAL_Driver/Src/stm32l0xx_hal_rtc_ex.c **** __weak void HAL_RTCEx_Tamper3EventCallback(RTC_HandleTypeDef *hrtc)
 940:Drivers/STM32L0xx_HAL_Driver/Src/stm32l0xx_hal_rtc_ex.c **** {
 941:Drivers/STM32L0xx_HAL_Driver/Src/stm32l0xx_hal_rtc_ex.c ****   /* Prevent unused argument(s) compilation warning */
 942:Drivers/STM32L0xx_HAL_Driver/Src/stm32l0xx_hal_rtc_ex.c ****   UNUSED(hrtc);
 943:Drivers/STM32L0xx_HAL_Driver/Src/stm32l0xx_hal_rtc_ex.c **** 
 944:Drivers/STM32L0xx_HAL_Driver/Src/stm32l0xx_hal_rtc_ex.c ****   /* NOTE: This function should not be modified, when the callback is needed,
 945:Drivers/STM32L0xx_HAL_Driver/Src/stm32l0xx_hal_rtc_ex.c ****            the HAL_RTCEx_Tamper3EventCallback could be implemented in the user file
 946:Drivers/STM32L0xx_HAL_Driver/Src/stm32l0xx_hal_rtc_ex.c ****    */
 947:Drivers/STM32L0xx_HAL_Driver/Src/stm32l0xx_hal_rtc_ex.c **** }
 948:Drivers/STM32L0xx_HAL_Driver/Src/stm32l0xx_hal_rtc_ex.c **** #endif /* RTC_TAMPER3_SUPPORT */
 949:Drivers/STM32L0xx_HAL_Driver/Src/stm32l0xx_hal_rtc_ex.c **** 
 950:Drivers/STM32L0xx_HAL_Driver/Src/stm32l0xx_hal_rtc_ex.c **** /**
 951:Drivers/STM32L0xx_HAL_Driver/Src/stm32l0xx_hal_rtc_ex.c ****   * @brief  Handles Timestamp polling request.
 952:Drivers/STM32L0xx_HAL_Driver/Src/stm32l0xx_hal_rtc_ex.c ****   * @param  hrtc pointer to a RTC_HandleTypeDef structure that contains
 953:Drivers/STM32L0xx_HAL_Driver/Src/stm32l0xx_hal_rtc_ex.c ****   *                the configuration information for RTC.
 954:Drivers/STM32L0xx_HAL_Driver/Src/stm32l0xx_hal_rtc_ex.c ****   * @param  Timeout Timeout duration
 955:Drivers/STM32L0xx_HAL_Driver/Src/stm32l0xx_hal_rtc_ex.c ****   * @retval HAL status
 956:Drivers/STM32L0xx_HAL_Driver/Src/stm32l0xx_hal_rtc_ex.c ****   */
 957:Drivers/STM32L0xx_HAL_Driver/Src/stm32l0xx_hal_rtc_ex.c **** HAL_StatusTypeDef HAL_RTCEx_PollForTimeStampEvent(RTC_HandleTypeDef *hrtc, uint32_t Timeout)
 958:Drivers/STM32L0xx_HAL_Driver/Src/stm32l0xx_hal_rtc_ex.c **** {
 1506              		.loc 1 958 1 view -0
 1507              		.cfi_startproc
 1508              		@ args = 0, pretend = 0, frame = 0
 1509              		@ frame_needed = 0, uses_anonymous_args = 0
 1510              		.loc 1 958 1 is_stmt 0 view .LVU494
 1511 0000 70B5     		push	{r4, r5, r6, lr}
 1512              	.LCFI8:
 1513              		.cfi_def_cfa_offset 16
 1514              		.cfi_offset 4, -16
 1515              		.cfi_offset 5, -12
ARM GAS  C:\Users\Tilen\AppData\Local\Temp\ccvNaC6x.s 			page 46


 1516              		.cfi_offset 6, -8
 1517              		.cfi_offset 14, -4
 1518 0002 0500     		movs	r5, r0
 1519 0004 0C00     		movs	r4, r1
 959:Drivers/STM32L0xx_HAL_Driver/Src/stm32l0xx_hal_rtc_ex.c ****   uint32_t tickstart = 0U;
 1520              		.loc 1 959 3 is_stmt 1 view .LVU495
 1521              	.LVL123:
 960:Drivers/STM32L0xx_HAL_Driver/Src/stm32l0xx_hal_rtc_ex.c **** 
 961:Drivers/STM32L0xx_HAL_Driver/Src/stm32l0xx_hal_rtc_ex.c ****   /* Get tick */
 962:Drivers/STM32L0xx_HAL_Driver/Src/stm32l0xx_hal_rtc_ex.c ****   tickstart = HAL_GetTick();
 1522              		.loc 1 962 3 view .LVU496
 1523              		.loc 1 962 15 is_stmt 0 view .LVU497
 1524 0006 FFF7FEFF 		bl	HAL_GetTick
 1525              	.LVL124:
 1526              		.loc 1 962 15 view .LVU498
 1527 000a 0600     		movs	r6, r0
 1528              	.LVL125:
 963:Drivers/STM32L0xx_HAL_Driver/Src/stm32l0xx_hal_rtc_ex.c **** 
 964:Drivers/STM32L0xx_HAL_Driver/Src/stm32l0xx_hal_rtc_ex.c ****   while (__HAL_RTC_TIMESTAMP_GET_FLAG(hrtc, RTC_FLAG_TSF) == 0U)
 1529              		.loc 1 964 3 is_stmt 1 view .LVU499
 1530              		.loc 1 964 9 is_stmt 0 view .LVU500
 1531 000c 03E0     		b	.L98
 1532              	.LVL126:
 1533              	.L99:
 965:Drivers/STM32L0xx_HAL_Driver/Src/stm32l0xx_hal_rtc_ex.c ****   {
 966:Drivers/STM32L0xx_HAL_Driver/Src/stm32l0xx_hal_rtc_ex.c ****     if (Timeout != HAL_MAX_DELAY)
 967:Drivers/STM32L0xx_HAL_Driver/Src/stm32l0xx_hal_rtc_ex.c ****     {
 968:Drivers/STM32L0xx_HAL_Driver/Src/stm32l0xx_hal_rtc_ex.c ****       if ((Timeout == 0U) || ((HAL_GetTick() - tickstart) > Timeout))
 969:Drivers/STM32L0xx_HAL_Driver/Src/stm32l0xx_hal_rtc_ex.c ****       {
 970:Drivers/STM32L0xx_HAL_Driver/Src/stm32l0xx_hal_rtc_ex.c ****         hrtc->State = HAL_RTC_STATE_TIMEOUT;
 971:Drivers/STM32L0xx_HAL_Driver/Src/stm32l0xx_hal_rtc_ex.c ****         return HAL_TIMEOUT;
 972:Drivers/STM32L0xx_HAL_Driver/Src/stm32l0xx_hal_rtc_ex.c ****       }
 973:Drivers/STM32L0xx_HAL_Driver/Src/stm32l0xx_hal_rtc_ex.c ****     }
 974:Drivers/STM32L0xx_HAL_Driver/Src/stm32l0xx_hal_rtc_ex.c **** 
 975:Drivers/STM32L0xx_HAL_Driver/Src/stm32l0xx_hal_rtc_ex.c ****     if (__HAL_RTC_TIMESTAMP_GET_FLAG(hrtc, RTC_FLAG_TSOVF) != 0U)
 1534              		.loc 1 975 5 is_stmt 1 view .LVU501
 1535              		.loc 1 975 9 is_stmt 0 view .LVU502
 1536 000e 2A68     		ldr	r2, [r5]
 1537 0010 D368     		ldr	r3, [r2, #12]
 1538              		.loc 1 975 8 view .LVU503
 1539 0012 DB04     		lsls	r3, r3, #19
 1540 0014 11D4     		bmi	.L105
 1541              	.L98:
 964:Drivers/STM32L0xx_HAL_Driver/Src/stm32l0xx_hal_rtc_ex.c ****   {
 1542              		.loc 1 964 59 is_stmt 1 view .LVU504
 964:Drivers/STM32L0xx_HAL_Driver/Src/stm32l0xx_hal_rtc_ex.c ****   {
 1543              		.loc 1 964 10 is_stmt 0 view .LVU505
 1544 0016 2B68     		ldr	r3, [r5]
 1545 0018 DB68     		ldr	r3, [r3, #12]
 964:Drivers/STM32L0xx_HAL_Driver/Src/stm32l0xx_hal_rtc_ex.c ****   {
 1546              		.loc 1 964 59 view .LVU506
 1547 001a 1B05     		lsls	r3, r3, #20
 1548 001c 18D4     		bmi	.L106
 966:Drivers/STM32L0xx_HAL_Driver/Src/stm32l0xx_hal_rtc_ex.c ****     {
 1549              		.loc 1 966 5 is_stmt 1 view .LVU507
 966:Drivers/STM32L0xx_HAL_Driver/Src/stm32l0xx_hal_rtc_ex.c ****     {
 1550              		.loc 1 966 8 is_stmt 0 view .LVU508
ARM GAS  C:\Users\Tilen\AppData\Local\Temp\ccvNaC6x.s 			page 47


 1551 001e 631C     		adds	r3, r4, #1
 1552 0020 F5D0     		beq	.L99
 968:Drivers/STM32L0xx_HAL_Driver/Src/stm32l0xx_hal_rtc_ex.c ****       {
 1553              		.loc 1 968 7 is_stmt 1 view .LVU509
 968:Drivers/STM32L0xx_HAL_Driver/Src/stm32l0xx_hal_rtc_ex.c ****       {
 1554              		.loc 1 968 10 is_stmt 0 view .LVU510
 1555 0022 002C     		cmp	r4, #0
 1556 0024 04D0     		beq	.L100
 968:Drivers/STM32L0xx_HAL_Driver/Src/stm32l0xx_hal_rtc_ex.c ****       {
 1557              		.loc 1 968 32 discriminator 1 view .LVU511
 1558 0026 FFF7FEFF 		bl	HAL_GetTick
 1559              	.LVL127:
 968:Drivers/STM32L0xx_HAL_Driver/Src/stm32l0xx_hal_rtc_ex.c ****       {
 1560              		.loc 1 968 46 discriminator 2 view .LVU512
 1561 002a 801B     		subs	r0, r0, r6
 968:Drivers/STM32L0xx_HAL_Driver/Src/stm32l0xx_hal_rtc_ex.c ****       {
 1562              		.loc 1 968 27 discriminator 2 view .LVU513
 1563 002c A042     		cmp	r0, r4
 1564 002e EED9     		bls	.L99
 1565              	.L100:
 970:Drivers/STM32L0xx_HAL_Driver/Src/stm32l0xx_hal_rtc_ex.c ****         return HAL_TIMEOUT;
 1566              		.loc 1 970 9 is_stmt 1 view .LVU514
 970:Drivers/STM32L0xx_HAL_Driver/Src/stm32l0xx_hal_rtc_ex.c ****         return HAL_TIMEOUT;
 1567              		.loc 1 970 21 is_stmt 0 view .LVU515
 1568 0030 2123     		movs	r3, #33
 1569 0032 0322     		movs	r2, #3
 1570 0034 EA54     		strb	r2, [r5, r3]
 971:Drivers/STM32L0xx_HAL_Driver/Src/stm32l0xx_hal_rtc_ex.c ****       }
 1571              		.loc 1 971 9 is_stmt 1 view .LVU516
 971:Drivers/STM32L0xx_HAL_Driver/Src/stm32l0xx_hal_rtc_ex.c ****       }
 1572              		.loc 1 971 16 is_stmt 0 view .LVU517
 1573 0036 0320     		movs	r0, #3
 1574              	.L101:
 976:Drivers/STM32L0xx_HAL_Driver/Src/stm32l0xx_hal_rtc_ex.c ****     {
 977:Drivers/STM32L0xx_HAL_Driver/Src/stm32l0xx_hal_rtc_ex.c ****       /* Clear the Timestamp Overrun Flag */
 978:Drivers/STM32L0xx_HAL_Driver/Src/stm32l0xx_hal_rtc_ex.c ****       __HAL_RTC_TIMESTAMP_CLEAR_FLAG(hrtc, RTC_FLAG_TSOVF);
 979:Drivers/STM32L0xx_HAL_Driver/Src/stm32l0xx_hal_rtc_ex.c **** 
 980:Drivers/STM32L0xx_HAL_Driver/Src/stm32l0xx_hal_rtc_ex.c ****       /* Change Timestamp state */
 981:Drivers/STM32L0xx_HAL_Driver/Src/stm32l0xx_hal_rtc_ex.c ****       hrtc->State = HAL_RTC_STATE_ERROR;
 982:Drivers/STM32L0xx_HAL_Driver/Src/stm32l0xx_hal_rtc_ex.c **** 
 983:Drivers/STM32L0xx_HAL_Driver/Src/stm32l0xx_hal_rtc_ex.c ****       return HAL_ERROR;
 984:Drivers/STM32L0xx_HAL_Driver/Src/stm32l0xx_hal_rtc_ex.c ****     }
 985:Drivers/STM32L0xx_HAL_Driver/Src/stm32l0xx_hal_rtc_ex.c ****   }
 986:Drivers/STM32L0xx_HAL_Driver/Src/stm32l0xx_hal_rtc_ex.c **** 
 987:Drivers/STM32L0xx_HAL_Driver/Src/stm32l0xx_hal_rtc_ex.c ****   /* Change RTC state */
 988:Drivers/STM32L0xx_HAL_Driver/Src/stm32l0xx_hal_rtc_ex.c ****   hrtc->State = HAL_RTC_STATE_READY;
 989:Drivers/STM32L0xx_HAL_Driver/Src/stm32l0xx_hal_rtc_ex.c **** 
 990:Drivers/STM32L0xx_HAL_Driver/Src/stm32l0xx_hal_rtc_ex.c ****   return HAL_OK;
 991:Drivers/STM32L0xx_HAL_Driver/Src/stm32l0xx_hal_rtc_ex.c **** }
 1575              		.loc 1 991 1 view .LVU518
 1576              		@ sp needed
 1577              	.LVL128:
 1578              	.LVL129:
 1579              	.LVL130:
 1580              		.loc 1 991 1 view .LVU519
 1581 0038 70BD     		pop	{r4, r5, r6, pc}
 1582              	.LVL131:
ARM GAS  C:\Users\Tilen\AppData\Local\Temp\ccvNaC6x.s 			page 48


 1583              	.L105:
 978:Drivers/STM32L0xx_HAL_Driver/Src/stm32l0xx_hal_rtc_ex.c **** 
 1584              		.loc 1 978 7 is_stmt 1 view .LVU520
 1585 003a D368     		ldr	r3, [r2, #12]
 1586 003c FF21     		movs	r1, #255
 1587 003e 1940     		ands	r1, r3
 1588 0040 064B     		ldr	r3, .L107
 1589 0042 0B43     		orrs	r3, r1
 1590 0044 D360     		str	r3, [r2, #12]
 981:Drivers/STM32L0xx_HAL_Driver/Src/stm32l0xx_hal_rtc_ex.c **** 
 1591              		.loc 1 981 7 view .LVU521
 981:Drivers/STM32L0xx_HAL_Driver/Src/stm32l0xx_hal_rtc_ex.c **** 
 1592              		.loc 1 981 19 is_stmt 0 view .LVU522
 1593 0046 2123     		movs	r3, #33
 1594 0048 0422     		movs	r2, #4
 1595 004a EA54     		strb	r2, [r5, r3]
 983:Drivers/STM32L0xx_HAL_Driver/Src/stm32l0xx_hal_rtc_ex.c ****     }
 1596              		.loc 1 983 7 is_stmt 1 view .LVU523
 983:Drivers/STM32L0xx_HAL_Driver/Src/stm32l0xx_hal_rtc_ex.c ****     }
 1597              		.loc 1 983 14 is_stmt 0 view .LVU524
 1598 004c 0120     		movs	r0, #1
 1599 004e F3E7     		b	.L101
 1600              	.L106:
 988:Drivers/STM32L0xx_HAL_Driver/Src/stm32l0xx_hal_rtc_ex.c **** 
 1601              		.loc 1 988 3 is_stmt 1 view .LVU525
 988:Drivers/STM32L0xx_HAL_Driver/Src/stm32l0xx_hal_rtc_ex.c **** 
 1602              		.loc 1 988 15 is_stmt 0 view .LVU526
 1603 0050 2123     		movs	r3, #33
 1604 0052 0122     		movs	r2, #1
 1605 0054 EA54     		strb	r2, [r5, r3]
 990:Drivers/STM32L0xx_HAL_Driver/Src/stm32l0xx_hal_rtc_ex.c **** }
 1606              		.loc 1 990 3 is_stmt 1 view .LVU527
 990:Drivers/STM32L0xx_HAL_Driver/Src/stm32l0xx_hal_rtc_ex.c **** }
 1607              		.loc 1 990 10 is_stmt 0 view .LVU528
 1608 0056 0020     		movs	r0, #0
 1609 0058 EEE7     		b	.L101
 1610              	.L108:
 1611 005a C046     		.align	2
 1612              	.L107:
 1613 005c 7FEFFFFF 		.word	-4225
 1614              		.cfi_endproc
 1615              	.LFE58:
 1617              		.section	.text.HAL_RTCEx_PollForTamper1Event,"ax",%progbits
 1618              		.align	1
 1619              		.global	HAL_RTCEx_PollForTamper1Event
 1620              		.syntax unified
 1621              		.code	16
 1622              		.thumb_func
 1624              	HAL_RTCEx_PollForTamper1Event:
 1625              	.LVL132:
 1626              	.LFB59:
 992:Drivers/STM32L0xx_HAL_Driver/Src/stm32l0xx_hal_rtc_ex.c **** 
 993:Drivers/STM32L0xx_HAL_Driver/Src/stm32l0xx_hal_rtc_ex.c **** #if defined(RTC_TAMPER1_SUPPORT)
 994:Drivers/STM32L0xx_HAL_Driver/Src/stm32l0xx_hal_rtc_ex.c **** /**
 995:Drivers/STM32L0xx_HAL_Driver/Src/stm32l0xx_hal_rtc_ex.c ****   * @brief  Handles Tamper 1 Polling.
 996:Drivers/STM32L0xx_HAL_Driver/Src/stm32l0xx_hal_rtc_ex.c ****   * @param  hrtc pointer to a RTC_HandleTypeDef structure that contains
 997:Drivers/STM32L0xx_HAL_Driver/Src/stm32l0xx_hal_rtc_ex.c ****   *                the configuration information for RTC.
ARM GAS  C:\Users\Tilen\AppData\Local\Temp\ccvNaC6x.s 			page 49


 998:Drivers/STM32L0xx_HAL_Driver/Src/stm32l0xx_hal_rtc_ex.c ****   * @param  Timeout Timeout duration
 999:Drivers/STM32L0xx_HAL_Driver/Src/stm32l0xx_hal_rtc_ex.c ****   * @retval HAL status
1000:Drivers/STM32L0xx_HAL_Driver/Src/stm32l0xx_hal_rtc_ex.c ****   */
1001:Drivers/STM32L0xx_HAL_Driver/Src/stm32l0xx_hal_rtc_ex.c **** HAL_StatusTypeDef HAL_RTCEx_PollForTamper1Event(RTC_HandleTypeDef *hrtc, uint32_t Timeout)
1002:Drivers/STM32L0xx_HAL_Driver/Src/stm32l0xx_hal_rtc_ex.c **** {
 1627              		.loc 1 1002 1 is_stmt 1 view -0
 1628              		.cfi_startproc
 1629              		@ args = 0, pretend = 0, frame = 0
 1630              		@ frame_needed = 0, uses_anonymous_args = 0
 1631              		.loc 1 1002 1 is_stmt 0 view .LVU530
 1632 0000 70B5     		push	{r4, r5, r6, lr}
 1633              	.LCFI9:
 1634              		.cfi_def_cfa_offset 16
 1635              		.cfi_offset 4, -16
 1636              		.cfi_offset 5, -12
 1637              		.cfi_offset 6, -8
 1638              		.cfi_offset 14, -4
 1639 0002 0400     		movs	r4, r0
 1640 0004 0D00     		movs	r5, r1
1003:Drivers/STM32L0xx_HAL_Driver/Src/stm32l0xx_hal_rtc_ex.c ****   uint32_t tickstart = 0U;
 1641              		.loc 1 1003 3 is_stmt 1 view .LVU531
 1642              	.LVL133:
1004:Drivers/STM32L0xx_HAL_Driver/Src/stm32l0xx_hal_rtc_ex.c **** 
1005:Drivers/STM32L0xx_HAL_Driver/Src/stm32l0xx_hal_rtc_ex.c ****   /* Get tick */
1006:Drivers/STM32L0xx_HAL_Driver/Src/stm32l0xx_hal_rtc_ex.c ****   tickstart = HAL_GetTick();
 1643              		.loc 1 1006 3 view .LVU532
 1644              		.loc 1 1006 15 is_stmt 0 view .LVU533
 1645 0006 FFF7FEFF 		bl	HAL_GetTick
 1646              	.LVL134:
 1647              		.loc 1 1006 15 view .LVU534
 1648 000a 0600     		movs	r6, r0
 1649              	.LVL135:
1007:Drivers/STM32L0xx_HAL_Driver/Src/stm32l0xx_hal_rtc_ex.c **** 
1008:Drivers/STM32L0xx_HAL_Driver/Src/stm32l0xx_hal_rtc_ex.c ****   /* Get the status of the Interrupt */
1009:Drivers/STM32L0xx_HAL_Driver/Src/stm32l0xx_hal_rtc_ex.c ****   while (__HAL_RTC_TAMPER_GET_FLAG(hrtc, RTC_FLAG_TAMP1F) == 0U)
 1650              		.loc 1 1009 3 is_stmt 1 view .LVU535
 1651              	.L111:
 1652              		.loc 1 1009 59 view .LVU536
 1653              		.loc 1 1009 10 is_stmt 0 view .LVU537
 1654 000c 2268     		ldr	r2, [r4]
 1655 000e D368     		ldr	r3, [r2, #12]
 1656              		.loc 1 1009 59 view .LVU538
 1657 0010 9B04     		lsls	r3, r3, #18
 1658 0012 0DD4     		bmi	.L116
1010:Drivers/STM32L0xx_HAL_Driver/Src/stm32l0xx_hal_rtc_ex.c ****   {
1011:Drivers/STM32L0xx_HAL_Driver/Src/stm32l0xx_hal_rtc_ex.c ****     if (Timeout != HAL_MAX_DELAY)
 1659              		.loc 1 1011 5 is_stmt 1 view .LVU539
 1660              		.loc 1 1011 8 is_stmt 0 view .LVU540
 1661 0014 6B1C     		adds	r3, r5, #1
 1662 0016 F9D0     		beq	.L111
1012:Drivers/STM32L0xx_HAL_Driver/Src/stm32l0xx_hal_rtc_ex.c ****     {
1013:Drivers/STM32L0xx_HAL_Driver/Src/stm32l0xx_hal_rtc_ex.c ****       if ((Timeout == 0U) || ((HAL_GetTick() - tickstart) > Timeout))
 1663              		.loc 1 1013 7 is_stmt 1 view .LVU541
 1664              		.loc 1 1013 10 is_stmt 0 view .LVU542
 1665 0018 002D     		cmp	r5, #0
 1666 001a 04D0     		beq	.L112
 1667              		.loc 1 1013 32 discriminator 1 view .LVU543
ARM GAS  C:\Users\Tilen\AppData\Local\Temp\ccvNaC6x.s 			page 50


 1668 001c FFF7FEFF 		bl	HAL_GetTick
 1669              	.LVL136:
 1670              		.loc 1 1013 46 discriminator 2 view .LVU544
 1671 0020 801B     		subs	r0, r0, r6
 1672              		.loc 1 1013 27 discriminator 2 view .LVU545
 1673 0022 A842     		cmp	r0, r5
 1674 0024 F2D9     		bls	.L111
 1675              	.L112:
1014:Drivers/STM32L0xx_HAL_Driver/Src/stm32l0xx_hal_rtc_ex.c ****       {
1015:Drivers/STM32L0xx_HAL_Driver/Src/stm32l0xx_hal_rtc_ex.c ****         hrtc->State = HAL_RTC_STATE_TIMEOUT;
 1676              		.loc 1 1015 9 is_stmt 1 view .LVU546
 1677              		.loc 1 1015 21 is_stmt 0 view .LVU547
 1678 0026 2123     		movs	r3, #33
 1679 0028 0322     		movs	r2, #3
 1680 002a E254     		strb	r2, [r4, r3]
1016:Drivers/STM32L0xx_HAL_Driver/Src/stm32l0xx_hal_rtc_ex.c ****         return HAL_TIMEOUT;
 1681              		.loc 1 1016 9 is_stmt 1 view .LVU548
 1682              		.loc 1 1016 16 is_stmt 0 view .LVU549
 1683 002c 0320     		movs	r0, #3
 1684 002e 09E0     		b	.L113
 1685              	.L116:
1017:Drivers/STM32L0xx_HAL_Driver/Src/stm32l0xx_hal_rtc_ex.c ****       }
1018:Drivers/STM32L0xx_HAL_Driver/Src/stm32l0xx_hal_rtc_ex.c ****     }
1019:Drivers/STM32L0xx_HAL_Driver/Src/stm32l0xx_hal_rtc_ex.c ****   }
1020:Drivers/STM32L0xx_HAL_Driver/Src/stm32l0xx_hal_rtc_ex.c **** 
1021:Drivers/STM32L0xx_HAL_Driver/Src/stm32l0xx_hal_rtc_ex.c ****   /* Clear the Tamper Flag */
1022:Drivers/STM32L0xx_HAL_Driver/Src/stm32l0xx_hal_rtc_ex.c ****   __HAL_RTC_TAMPER_CLEAR_FLAG(hrtc, RTC_FLAG_TAMP1F);
 1686              		.loc 1 1022 3 is_stmt 1 view .LVU550
 1687 0030 D368     		ldr	r3, [r2, #12]
 1688 0032 FF21     		movs	r1, #255
 1689 0034 1940     		ands	r1, r3
 1690 0036 044B     		ldr	r3, .L117
 1691 0038 0B43     		orrs	r3, r1
 1692 003a D360     		str	r3, [r2, #12]
1023:Drivers/STM32L0xx_HAL_Driver/Src/stm32l0xx_hal_rtc_ex.c **** 
1024:Drivers/STM32L0xx_HAL_Driver/Src/stm32l0xx_hal_rtc_ex.c ****   /* Change RTC state */
1025:Drivers/STM32L0xx_HAL_Driver/Src/stm32l0xx_hal_rtc_ex.c ****   hrtc->State = HAL_RTC_STATE_READY;
 1693              		.loc 1 1025 3 view .LVU551
 1694              		.loc 1 1025 15 is_stmt 0 view .LVU552
 1695 003c 2123     		movs	r3, #33
 1696 003e 0122     		movs	r2, #1
 1697 0040 E254     		strb	r2, [r4, r3]
1026:Drivers/STM32L0xx_HAL_Driver/Src/stm32l0xx_hal_rtc_ex.c **** 
1027:Drivers/STM32L0xx_HAL_Driver/Src/stm32l0xx_hal_rtc_ex.c ****   return HAL_OK;
 1698              		.loc 1 1027 3 is_stmt 1 view .LVU553
 1699              		.loc 1 1027 10 is_stmt 0 view .LVU554
 1700 0042 0020     		movs	r0, #0
 1701              	.L113:
1028:Drivers/STM32L0xx_HAL_Driver/Src/stm32l0xx_hal_rtc_ex.c **** }
 1702              		.loc 1 1028 1 view .LVU555
 1703              		@ sp needed
 1704              	.LVL137:
 1705              	.LVL138:
 1706              	.LVL139:
 1707              		.loc 1 1028 1 view .LVU556
 1708 0044 70BD     		pop	{r4, r5, r6, pc}
 1709              	.L118:
ARM GAS  C:\Users\Tilen\AppData\Local\Temp\ccvNaC6x.s 			page 51


 1710 0046 C046     		.align	2
 1711              	.L117:
 1712 0048 7FDFFFFF 		.word	-8321
 1713              		.cfi_endproc
 1714              	.LFE59:
 1716              		.section	.text.HAL_RTCEx_PollForTamper2Event,"ax",%progbits
 1717              		.align	1
 1718              		.global	HAL_RTCEx_PollForTamper2Event
 1719              		.syntax unified
 1720              		.code	16
 1721              		.thumb_func
 1723              	HAL_RTCEx_PollForTamper2Event:
 1724              	.LVL140:
 1725              	.LFB60:
1029:Drivers/STM32L0xx_HAL_Driver/Src/stm32l0xx_hal_rtc_ex.c **** #endif /* RTC_TAMPER1_SUPPORT */
1030:Drivers/STM32L0xx_HAL_Driver/Src/stm32l0xx_hal_rtc_ex.c **** 
1031:Drivers/STM32L0xx_HAL_Driver/Src/stm32l0xx_hal_rtc_ex.c **** /**
1032:Drivers/STM32L0xx_HAL_Driver/Src/stm32l0xx_hal_rtc_ex.c ****   * @brief  Handles Tamper 2 Polling.
1033:Drivers/STM32L0xx_HAL_Driver/Src/stm32l0xx_hal_rtc_ex.c ****   * @param  hrtc pointer to a RTC_HandleTypeDef structure that contains
1034:Drivers/STM32L0xx_HAL_Driver/Src/stm32l0xx_hal_rtc_ex.c ****   *                the configuration information for RTC.
1035:Drivers/STM32L0xx_HAL_Driver/Src/stm32l0xx_hal_rtc_ex.c ****   * @param  Timeout Timeout duration
1036:Drivers/STM32L0xx_HAL_Driver/Src/stm32l0xx_hal_rtc_ex.c ****   * @retval HAL status
1037:Drivers/STM32L0xx_HAL_Driver/Src/stm32l0xx_hal_rtc_ex.c ****   */
1038:Drivers/STM32L0xx_HAL_Driver/Src/stm32l0xx_hal_rtc_ex.c **** HAL_StatusTypeDef HAL_RTCEx_PollForTamper2Event(RTC_HandleTypeDef *hrtc, uint32_t Timeout)
1039:Drivers/STM32L0xx_HAL_Driver/Src/stm32l0xx_hal_rtc_ex.c **** {
 1726              		.loc 1 1039 1 is_stmt 1 view -0
 1727              		.cfi_startproc
 1728              		@ args = 0, pretend = 0, frame = 0
 1729              		@ frame_needed = 0, uses_anonymous_args = 0
 1730              		.loc 1 1039 1 is_stmt 0 view .LVU558
 1731 0000 70B5     		push	{r4, r5, r6, lr}
 1732              	.LCFI10:
 1733              		.cfi_def_cfa_offset 16
 1734              		.cfi_offset 4, -16
 1735              		.cfi_offset 5, -12
 1736              		.cfi_offset 6, -8
 1737              		.cfi_offset 14, -4
 1738 0002 0400     		movs	r4, r0
 1739 0004 0D00     		movs	r5, r1
1040:Drivers/STM32L0xx_HAL_Driver/Src/stm32l0xx_hal_rtc_ex.c ****   uint32_t tickstart = 0U;
 1740              		.loc 1 1040 3 is_stmt 1 view .LVU559
 1741              	.LVL141:
1041:Drivers/STM32L0xx_HAL_Driver/Src/stm32l0xx_hal_rtc_ex.c **** 
1042:Drivers/STM32L0xx_HAL_Driver/Src/stm32l0xx_hal_rtc_ex.c ****   /* Get tick */
1043:Drivers/STM32L0xx_HAL_Driver/Src/stm32l0xx_hal_rtc_ex.c ****   tickstart = HAL_GetTick();
 1742              		.loc 1 1043 3 view .LVU560
 1743              		.loc 1 1043 15 is_stmt 0 view .LVU561
 1744 0006 FFF7FEFF 		bl	HAL_GetTick
 1745              	.LVL142:
 1746              		.loc 1 1043 15 view .LVU562
 1747 000a 0600     		movs	r6, r0
 1748              	.LVL143:
1044:Drivers/STM32L0xx_HAL_Driver/Src/stm32l0xx_hal_rtc_ex.c **** 
1045:Drivers/STM32L0xx_HAL_Driver/Src/stm32l0xx_hal_rtc_ex.c ****   /* Get the status of the Interrupt */
1046:Drivers/STM32L0xx_HAL_Driver/Src/stm32l0xx_hal_rtc_ex.c ****   while (__HAL_RTC_TAMPER_GET_FLAG(hrtc, RTC_FLAG_TAMP2F) == 0U)
 1749              		.loc 1 1046 3 is_stmt 1 view .LVU563
 1750              	.L121:
ARM GAS  C:\Users\Tilen\AppData\Local\Temp\ccvNaC6x.s 			page 52


 1751              		.loc 1 1046 59 view .LVU564
 1752              		.loc 1 1046 10 is_stmt 0 view .LVU565
 1753 000c 2268     		ldr	r2, [r4]
 1754 000e D368     		ldr	r3, [r2, #12]
 1755              		.loc 1 1046 59 view .LVU566
 1756 0010 5B04     		lsls	r3, r3, #17
 1757 0012 0DD4     		bmi	.L126
1047:Drivers/STM32L0xx_HAL_Driver/Src/stm32l0xx_hal_rtc_ex.c ****   {
1048:Drivers/STM32L0xx_HAL_Driver/Src/stm32l0xx_hal_rtc_ex.c ****     if (Timeout != HAL_MAX_DELAY)
 1758              		.loc 1 1048 5 is_stmt 1 view .LVU567
 1759              		.loc 1 1048 8 is_stmt 0 view .LVU568
 1760 0014 6B1C     		adds	r3, r5, #1
 1761 0016 F9D0     		beq	.L121
1049:Drivers/STM32L0xx_HAL_Driver/Src/stm32l0xx_hal_rtc_ex.c ****     {
1050:Drivers/STM32L0xx_HAL_Driver/Src/stm32l0xx_hal_rtc_ex.c ****       if ((Timeout == 0U) || ((HAL_GetTick() - tickstart) > Timeout))
 1762              		.loc 1 1050 7 is_stmt 1 view .LVU569
 1763              		.loc 1 1050 10 is_stmt 0 view .LVU570
 1764 0018 002D     		cmp	r5, #0
 1765 001a 04D0     		beq	.L122
 1766              		.loc 1 1050 32 discriminator 1 view .LVU571
 1767 001c FFF7FEFF 		bl	HAL_GetTick
 1768              	.LVL144:
 1769              		.loc 1 1050 46 discriminator 2 view .LVU572
 1770 0020 801B     		subs	r0, r0, r6
 1771              		.loc 1 1050 27 discriminator 2 view .LVU573
 1772 0022 A842     		cmp	r0, r5
 1773 0024 F2D9     		bls	.L121
 1774              	.L122:
1051:Drivers/STM32L0xx_HAL_Driver/Src/stm32l0xx_hal_rtc_ex.c ****       {
1052:Drivers/STM32L0xx_HAL_Driver/Src/stm32l0xx_hal_rtc_ex.c ****         hrtc->State = HAL_RTC_STATE_TIMEOUT;
 1775              		.loc 1 1052 9 is_stmt 1 view .LVU574
 1776              		.loc 1 1052 21 is_stmt 0 view .LVU575
 1777 0026 2123     		movs	r3, #33
 1778 0028 0322     		movs	r2, #3
 1779 002a E254     		strb	r2, [r4, r3]
1053:Drivers/STM32L0xx_HAL_Driver/Src/stm32l0xx_hal_rtc_ex.c ****         return HAL_TIMEOUT;
 1780              		.loc 1 1053 9 is_stmt 1 view .LVU576
 1781              		.loc 1 1053 16 is_stmt 0 view .LVU577
 1782 002c 0320     		movs	r0, #3
 1783 002e 09E0     		b	.L123
 1784              	.L126:
1054:Drivers/STM32L0xx_HAL_Driver/Src/stm32l0xx_hal_rtc_ex.c ****       }
1055:Drivers/STM32L0xx_HAL_Driver/Src/stm32l0xx_hal_rtc_ex.c ****     }
1056:Drivers/STM32L0xx_HAL_Driver/Src/stm32l0xx_hal_rtc_ex.c ****   }
1057:Drivers/STM32L0xx_HAL_Driver/Src/stm32l0xx_hal_rtc_ex.c **** 
1058:Drivers/STM32L0xx_HAL_Driver/Src/stm32l0xx_hal_rtc_ex.c ****   /* Clear the Tamper Flag */
1059:Drivers/STM32L0xx_HAL_Driver/Src/stm32l0xx_hal_rtc_ex.c ****   __HAL_RTC_TAMPER_CLEAR_FLAG(hrtc, RTC_FLAG_TAMP2F);
 1785              		.loc 1 1059 3 is_stmt 1 view .LVU578
 1786 0030 D368     		ldr	r3, [r2, #12]
 1787 0032 FF21     		movs	r1, #255
 1788 0034 1940     		ands	r1, r3
 1789 0036 044B     		ldr	r3, .L127
 1790 0038 0B43     		orrs	r3, r1
 1791 003a D360     		str	r3, [r2, #12]
1060:Drivers/STM32L0xx_HAL_Driver/Src/stm32l0xx_hal_rtc_ex.c **** 
1061:Drivers/STM32L0xx_HAL_Driver/Src/stm32l0xx_hal_rtc_ex.c ****   /* Change RTC state */
1062:Drivers/STM32L0xx_HAL_Driver/Src/stm32l0xx_hal_rtc_ex.c ****   hrtc->State = HAL_RTC_STATE_READY;
ARM GAS  C:\Users\Tilen\AppData\Local\Temp\ccvNaC6x.s 			page 53


 1792              		.loc 1 1062 3 view .LVU579
 1793              		.loc 1 1062 15 is_stmt 0 view .LVU580
 1794 003c 2123     		movs	r3, #33
 1795 003e 0122     		movs	r2, #1
 1796 0040 E254     		strb	r2, [r4, r3]
1063:Drivers/STM32L0xx_HAL_Driver/Src/stm32l0xx_hal_rtc_ex.c **** 
1064:Drivers/STM32L0xx_HAL_Driver/Src/stm32l0xx_hal_rtc_ex.c ****   return HAL_OK;
 1797              		.loc 1 1064 3 is_stmt 1 view .LVU581
 1798              		.loc 1 1064 10 is_stmt 0 view .LVU582
 1799 0042 0020     		movs	r0, #0
 1800              	.L123:
1065:Drivers/STM32L0xx_HAL_Driver/Src/stm32l0xx_hal_rtc_ex.c **** }
 1801              		.loc 1 1065 1 view .LVU583
 1802              		@ sp needed
 1803              	.LVL145:
 1804              	.LVL146:
 1805              	.LVL147:
 1806              		.loc 1 1065 1 view .LVU584
 1807 0044 70BD     		pop	{r4, r5, r6, pc}
 1808              	.L128:
 1809 0046 C046     		.align	2
 1810              	.L127:
 1811 0048 7FBFFFFF 		.word	-16513
 1812              		.cfi_endproc
 1813              	.LFE60:
 1815              		.section	.text.HAL_RTCEx_SetWakeUpTimer,"ax",%progbits
 1816              		.align	1
 1817              		.global	HAL_RTCEx_SetWakeUpTimer
 1818              		.syntax unified
 1819              		.code	16
 1820              		.thumb_func
 1822              	HAL_RTCEx_SetWakeUpTimer:
 1823              	.LVL148:
 1824              	.LFB61:
1066:Drivers/STM32L0xx_HAL_Driver/Src/stm32l0xx_hal_rtc_ex.c **** 
1067:Drivers/STM32L0xx_HAL_Driver/Src/stm32l0xx_hal_rtc_ex.c **** #if defined(RTC_TAMPER3_SUPPORT)
1068:Drivers/STM32L0xx_HAL_Driver/Src/stm32l0xx_hal_rtc_ex.c **** /**
1069:Drivers/STM32L0xx_HAL_Driver/Src/stm32l0xx_hal_rtc_ex.c ****   * @brief  Handles Tamper 3 Polling.
1070:Drivers/STM32L0xx_HAL_Driver/Src/stm32l0xx_hal_rtc_ex.c ****   * @param  hrtc pointer to a RTC_HandleTypeDef structure that contains
1071:Drivers/STM32L0xx_HAL_Driver/Src/stm32l0xx_hal_rtc_ex.c ****   *                the configuration information for RTC.
1072:Drivers/STM32L0xx_HAL_Driver/Src/stm32l0xx_hal_rtc_ex.c ****   * @param  Timeout Timeout duration
1073:Drivers/STM32L0xx_HAL_Driver/Src/stm32l0xx_hal_rtc_ex.c ****   * @retval HAL status
1074:Drivers/STM32L0xx_HAL_Driver/Src/stm32l0xx_hal_rtc_ex.c ****   */
1075:Drivers/STM32L0xx_HAL_Driver/Src/stm32l0xx_hal_rtc_ex.c **** HAL_StatusTypeDef HAL_RTCEx_PollForTamper3Event(RTC_HandleTypeDef *hrtc, uint32_t Timeout)
1076:Drivers/STM32L0xx_HAL_Driver/Src/stm32l0xx_hal_rtc_ex.c **** {
1077:Drivers/STM32L0xx_HAL_Driver/Src/stm32l0xx_hal_rtc_ex.c ****   uint32_t tickstart = HAL_GetTick();
1078:Drivers/STM32L0xx_HAL_Driver/Src/stm32l0xx_hal_rtc_ex.c **** 
1079:Drivers/STM32L0xx_HAL_Driver/Src/stm32l0xx_hal_rtc_ex.c ****   /* Get the status of the Interrupt */
1080:Drivers/STM32L0xx_HAL_Driver/Src/stm32l0xx_hal_rtc_ex.c ****   while (__HAL_RTC_TAMPER_GET_FLAG(hrtc, RTC_FLAG_TAMP3F) == 0U)
1081:Drivers/STM32L0xx_HAL_Driver/Src/stm32l0xx_hal_rtc_ex.c ****   {
1082:Drivers/STM32L0xx_HAL_Driver/Src/stm32l0xx_hal_rtc_ex.c ****     if (Timeout != HAL_MAX_DELAY)
1083:Drivers/STM32L0xx_HAL_Driver/Src/stm32l0xx_hal_rtc_ex.c ****     {
1084:Drivers/STM32L0xx_HAL_Driver/Src/stm32l0xx_hal_rtc_ex.c ****       if ((Timeout == 0U) || ((HAL_GetTick() - tickstart) > Timeout))
1085:Drivers/STM32L0xx_HAL_Driver/Src/stm32l0xx_hal_rtc_ex.c ****       {
1086:Drivers/STM32L0xx_HAL_Driver/Src/stm32l0xx_hal_rtc_ex.c ****         hrtc->State = HAL_RTC_STATE_TIMEOUT;
1087:Drivers/STM32L0xx_HAL_Driver/Src/stm32l0xx_hal_rtc_ex.c ****         return HAL_TIMEOUT;
1088:Drivers/STM32L0xx_HAL_Driver/Src/stm32l0xx_hal_rtc_ex.c ****       }
ARM GAS  C:\Users\Tilen\AppData\Local\Temp\ccvNaC6x.s 			page 54


1089:Drivers/STM32L0xx_HAL_Driver/Src/stm32l0xx_hal_rtc_ex.c ****     }
1090:Drivers/STM32L0xx_HAL_Driver/Src/stm32l0xx_hal_rtc_ex.c ****   }
1091:Drivers/STM32L0xx_HAL_Driver/Src/stm32l0xx_hal_rtc_ex.c **** 
1092:Drivers/STM32L0xx_HAL_Driver/Src/stm32l0xx_hal_rtc_ex.c ****   /* Clear the Tamper Flag */
1093:Drivers/STM32L0xx_HAL_Driver/Src/stm32l0xx_hal_rtc_ex.c ****   __HAL_RTC_TAMPER_CLEAR_FLAG(hrtc, RTC_FLAG_TAMP3F);
1094:Drivers/STM32L0xx_HAL_Driver/Src/stm32l0xx_hal_rtc_ex.c **** 
1095:Drivers/STM32L0xx_HAL_Driver/Src/stm32l0xx_hal_rtc_ex.c ****   /* Change RTC state */
1096:Drivers/STM32L0xx_HAL_Driver/Src/stm32l0xx_hal_rtc_ex.c ****   hrtc->State = HAL_RTC_STATE_READY;
1097:Drivers/STM32L0xx_HAL_Driver/Src/stm32l0xx_hal_rtc_ex.c **** 
1098:Drivers/STM32L0xx_HAL_Driver/Src/stm32l0xx_hal_rtc_ex.c ****   return HAL_OK;
1099:Drivers/STM32L0xx_HAL_Driver/Src/stm32l0xx_hal_rtc_ex.c **** }
1100:Drivers/STM32L0xx_HAL_Driver/Src/stm32l0xx_hal_rtc_ex.c **** #endif /* RTC_TAMPER3_SUPPORT */
1101:Drivers/STM32L0xx_HAL_Driver/Src/stm32l0xx_hal_rtc_ex.c **** 
1102:Drivers/STM32L0xx_HAL_Driver/Src/stm32l0xx_hal_rtc_ex.c **** /**
1103:Drivers/STM32L0xx_HAL_Driver/Src/stm32l0xx_hal_rtc_ex.c ****   * @}
1104:Drivers/STM32L0xx_HAL_Driver/Src/stm32l0xx_hal_rtc_ex.c ****   */
1105:Drivers/STM32L0xx_HAL_Driver/Src/stm32l0xx_hal_rtc_ex.c **** 
1106:Drivers/STM32L0xx_HAL_Driver/Src/stm32l0xx_hal_rtc_ex.c **** /** @defgroup RTCEx_Exported_Functions_Group2 RTC Wakeup functions
1107:Drivers/STM32L0xx_HAL_Driver/Src/stm32l0xx_hal_rtc_ex.c ****   * @brief    RTC Wakeup functions
1108:Drivers/STM32L0xx_HAL_Driver/Src/stm32l0xx_hal_rtc_ex.c ****   *
1109:Drivers/STM32L0xx_HAL_Driver/Src/stm32l0xx_hal_rtc_ex.c **** @verbatim
1110:Drivers/STM32L0xx_HAL_Driver/Src/stm32l0xx_hal_rtc_ex.c ****  ===============================================================================
1111:Drivers/STM32L0xx_HAL_Driver/Src/stm32l0xx_hal_rtc_ex.c ****                         ##### RTC Wakeup functions #####
1112:Drivers/STM32L0xx_HAL_Driver/Src/stm32l0xx_hal_rtc_ex.c ****  ===============================================================================
1113:Drivers/STM32L0xx_HAL_Driver/Src/stm32l0xx_hal_rtc_ex.c **** 
1114:Drivers/STM32L0xx_HAL_Driver/Src/stm32l0xx_hal_rtc_ex.c ****  [..] This section provides functions allowing to configure Wakeup feature
1115:Drivers/STM32L0xx_HAL_Driver/Src/stm32l0xx_hal_rtc_ex.c **** 
1116:Drivers/STM32L0xx_HAL_Driver/Src/stm32l0xx_hal_rtc_ex.c **** @endverbatim
1117:Drivers/STM32L0xx_HAL_Driver/Src/stm32l0xx_hal_rtc_ex.c ****   * @{
1118:Drivers/STM32L0xx_HAL_Driver/Src/stm32l0xx_hal_rtc_ex.c ****   */
1119:Drivers/STM32L0xx_HAL_Driver/Src/stm32l0xx_hal_rtc_ex.c **** 
1120:Drivers/STM32L0xx_HAL_Driver/Src/stm32l0xx_hal_rtc_ex.c **** /**
1121:Drivers/STM32L0xx_HAL_Driver/Src/stm32l0xx_hal_rtc_ex.c ****   * @brief  Sets wakeup timer.
1122:Drivers/STM32L0xx_HAL_Driver/Src/stm32l0xx_hal_rtc_ex.c ****   * @param  hrtc pointer to a RTC_HandleTypeDef structure that contains
1123:Drivers/STM32L0xx_HAL_Driver/Src/stm32l0xx_hal_rtc_ex.c ****   *                the configuration information for RTC.
1124:Drivers/STM32L0xx_HAL_Driver/Src/stm32l0xx_hal_rtc_ex.c ****   * @param  WakeUpCounter Wakeup counter
1125:Drivers/STM32L0xx_HAL_Driver/Src/stm32l0xx_hal_rtc_ex.c ****   * @param  WakeUpClock Wakeup clock
1126:Drivers/STM32L0xx_HAL_Driver/Src/stm32l0xx_hal_rtc_ex.c ****   * @retval HAL status
1127:Drivers/STM32L0xx_HAL_Driver/Src/stm32l0xx_hal_rtc_ex.c ****   */
1128:Drivers/STM32L0xx_HAL_Driver/Src/stm32l0xx_hal_rtc_ex.c **** HAL_StatusTypeDef HAL_RTCEx_SetWakeUpTimer(RTC_HandleTypeDef *hrtc, uint32_t WakeUpCounter, uint32_
1129:Drivers/STM32L0xx_HAL_Driver/Src/stm32l0xx_hal_rtc_ex.c **** {
 1825              		.loc 1 1129 1 is_stmt 1 view -0
 1826              		.cfi_startproc
 1827              		@ args = 0, pretend = 0, frame = 0
 1828              		@ frame_needed = 0, uses_anonymous_args = 0
 1829              		.loc 1 1129 1 is_stmt 0 view .LVU586
 1830 0000 F8B5     		push	{r3, r4, r5, r6, r7, lr}
 1831              	.LCFI11:
 1832              		.cfi_def_cfa_offset 24
 1833              		.cfi_offset 3, -24
 1834              		.cfi_offset 4, -20
 1835              		.cfi_offset 5, -16
 1836              		.cfi_offset 6, -12
 1837              		.cfi_offset 7, -8
 1838              		.cfi_offset 14, -4
 1839 0002 0400     		movs	r4, r0
 1840 0004 0E00     		movs	r6, r1
ARM GAS  C:\Users\Tilen\AppData\Local\Temp\ccvNaC6x.s 			page 55


 1841 0006 1700     		movs	r7, r2
1130:Drivers/STM32L0xx_HAL_Driver/Src/stm32l0xx_hal_rtc_ex.c ****   uint32_t tickstart = 0U;
 1842              		.loc 1 1130 3 is_stmt 1 view .LVU587
 1843              	.LVL149:
1131:Drivers/STM32L0xx_HAL_Driver/Src/stm32l0xx_hal_rtc_ex.c **** 
1132:Drivers/STM32L0xx_HAL_Driver/Src/stm32l0xx_hal_rtc_ex.c ****   /* Check the parameters */
1133:Drivers/STM32L0xx_HAL_Driver/Src/stm32l0xx_hal_rtc_ex.c ****   assert_param(IS_RTC_WAKEUP_CLOCK(WakeUpClock));
 1844              		.loc 1 1133 3 view .LVU588
1134:Drivers/STM32L0xx_HAL_Driver/Src/stm32l0xx_hal_rtc_ex.c ****   assert_param(IS_RTC_WAKEUP_COUNTER(WakeUpCounter));
 1845              		.loc 1 1134 3 view .LVU589
1135:Drivers/STM32L0xx_HAL_Driver/Src/stm32l0xx_hal_rtc_ex.c **** 
1136:Drivers/STM32L0xx_HAL_Driver/Src/stm32l0xx_hal_rtc_ex.c ****   /* Process Locked */
1137:Drivers/STM32L0xx_HAL_Driver/Src/stm32l0xx_hal_rtc_ex.c ****   __HAL_LOCK(hrtc);
 1846              		.loc 1 1137 3 view .LVU590
 1847              		.loc 1 1137 3 view .LVU591
 1848 0008 2023     		movs	r3, #32
 1849 000a C35C     		ldrb	r3, [r0, r3]
 1850 000c 012B     		cmp	r3, #1
 1851 000e 68D0     		beq	.L136
 1852              		.loc 1 1137 3 discriminator 2 view .LVU592
 1853 0010 2023     		movs	r3, #32
 1854 0012 0122     		movs	r2, #1
 1855              	.LVL150:
 1856              		.loc 1 1137 3 is_stmt 0 discriminator 2 view .LVU593
 1857 0014 C254     		strb	r2, [r0, r3]
 1858              		.loc 1 1137 3 is_stmt 1 view .LVU594
1138:Drivers/STM32L0xx_HAL_Driver/Src/stm32l0xx_hal_rtc_ex.c **** 
1139:Drivers/STM32L0xx_HAL_Driver/Src/stm32l0xx_hal_rtc_ex.c ****   hrtc->State = HAL_RTC_STATE_BUSY;
 1859              		.loc 1 1139 3 view .LVU595
 1860              		.loc 1 1139 15 is_stmt 0 view .LVU596
 1861 0016 0133     		adds	r3, r3, #1
 1862 0018 0132     		adds	r2, r2, #1
 1863 001a C254     		strb	r2, [r0, r3]
1140:Drivers/STM32L0xx_HAL_Driver/Src/stm32l0xx_hal_rtc_ex.c **** 
1141:Drivers/STM32L0xx_HAL_Driver/Src/stm32l0xx_hal_rtc_ex.c ****   /* Disable the write protection for RTC registers */
1142:Drivers/STM32L0xx_HAL_Driver/Src/stm32l0xx_hal_rtc_ex.c ****   __HAL_RTC_WRITEPROTECTION_DISABLE(hrtc);
 1864              		.loc 1 1142 3 is_stmt 1 view .LVU597
 1865              		.loc 1 1142 3 view .LVU598
 1866 001c 0368     		ldr	r3, [r0]
 1867 001e C832     		adds	r2, r2, #200
 1868 0020 5A62     		str	r2, [r3, #36]
 1869              		.loc 1 1142 3 view .LVU599
 1870 0022 0368     		ldr	r3, [r0]
 1871 0024 773A     		subs	r2, r2, #119
 1872 0026 5A62     		str	r2, [r3, #36]
 1873              		.loc 1 1142 3 view .LVU600
1143:Drivers/STM32L0xx_HAL_Driver/Src/stm32l0xx_hal_rtc_ex.c **** 
1144:Drivers/STM32L0xx_HAL_Driver/Src/stm32l0xx_hal_rtc_ex.c ****   /* Check RTC WUTWF flag is reset only when wakeup timer enabled*/
1145:Drivers/STM32L0xx_HAL_Driver/Src/stm32l0xx_hal_rtc_ex.c ****   if ((hrtc->Instance->CR & RTC_CR_WUTE) != 0U)
 1874              		.loc 1 1145 3 view .LVU601
 1875              		.loc 1 1145 12 is_stmt 0 view .LVU602
 1876 0028 0368     		ldr	r3, [r0]
 1877              		.loc 1 1145 22 view .LVU603
 1878 002a 9B68     		ldr	r3, [r3, #8]
 1879              		.loc 1 1145 6 view .LVU604
 1880 002c 5B05     		lsls	r3, r3, #21
 1881 002e 18D5     		bpl	.L131
ARM GAS  C:\Users\Tilen\AppData\Local\Temp\ccvNaC6x.s 			page 56


1146:Drivers/STM32L0xx_HAL_Driver/Src/stm32l0xx_hal_rtc_ex.c ****   {
1147:Drivers/STM32L0xx_HAL_Driver/Src/stm32l0xx_hal_rtc_ex.c ****     tickstart = HAL_GetTick();
 1882              		.loc 1 1147 5 is_stmt 1 view .LVU605
 1883              		.loc 1 1147 17 is_stmt 0 view .LVU606
 1884 0030 FFF7FEFF 		bl	HAL_GetTick
 1885              	.LVL151:
 1886              		.loc 1 1147 17 view .LVU607
 1887 0034 0500     		movs	r5, r0
 1888              	.LVL152:
1148:Drivers/STM32L0xx_HAL_Driver/Src/stm32l0xx_hal_rtc_ex.c **** 
1149:Drivers/STM32L0xx_HAL_Driver/Src/stm32l0xx_hal_rtc_ex.c ****     /* Wait till RTC WUTWF flag is reset and if timeout is reached exit */
1150:Drivers/STM32L0xx_HAL_Driver/Src/stm32l0xx_hal_rtc_ex.c ****     while (__HAL_RTC_WAKEUPTIMER_GET_FLAG(hrtc, RTC_FLAG_WUTWF) != 0U)
 1889              		.loc 1 1150 5 is_stmt 1 view .LVU608
 1890              	.L132:
 1891              		.loc 1 1150 65 view .LVU609
 1892              		.loc 1 1150 12 is_stmt 0 view .LVU610
 1893 0036 2368     		ldr	r3, [r4]
 1894 0038 DB68     		ldr	r3, [r3, #12]
 1895              		.loc 1 1150 65 view .LVU611
 1896 003a 5B07     		lsls	r3, r3, #29
 1897 003c 11D5     		bpl	.L131
1151:Drivers/STM32L0xx_HAL_Driver/Src/stm32l0xx_hal_rtc_ex.c ****     {
1152:Drivers/STM32L0xx_HAL_Driver/Src/stm32l0xx_hal_rtc_ex.c ****       if ((HAL_GetTick() - tickstart) > RTC_TIMEOUT_VALUE)
 1898              		.loc 1 1152 7 is_stmt 1 view .LVU612
 1899              		.loc 1 1152 12 is_stmt 0 view .LVU613
 1900 003e FFF7FEFF 		bl	HAL_GetTick
 1901              	.LVL153:
 1902              		.loc 1 1152 26 discriminator 1 view .LVU614
 1903 0042 401B     		subs	r0, r0, r5
 1904              		.loc 1 1152 10 discriminator 1 view .LVU615
 1905 0044 FA23     		movs	r3, #250
 1906 0046 9B00     		lsls	r3, r3, #2
 1907 0048 9842     		cmp	r0, r3
 1908 004a F4D9     		bls	.L132
1153:Drivers/STM32L0xx_HAL_Driver/Src/stm32l0xx_hal_rtc_ex.c ****       {
1154:Drivers/STM32L0xx_HAL_Driver/Src/stm32l0xx_hal_rtc_ex.c ****         /* Enable the write protection for RTC registers */
1155:Drivers/STM32L0xx_HAL_Driver/Src/stm32l0xx_hal_rtc_ex.c ****         __HAL_RTC_WRITEPROTECTION_ENABLE(hrtc);
 1909              		.loc 1 1155 9 is_stmt 1 view .LVU616
 1910              		.loc 1 1155 9 view .LVU617
 1911 004c 2368     		ldr	r3, [r4]
 1912 004e FF22     		movs	r2, #255
 1913 0050 5A62     		str	r2, [r3, #36]
 1914              		.loc 1 1155 9 view .LVU618
1156:Drivers/STM32L0xx_HAL_Driver/Src/stm32l0xx_hal_rtc_ex.c **** 
1157:Drivers/STM32L0xx_HAL_Driver/Src/stm32l0xx_hal_rtc_ex.c ****         hrtc->State = HAL_RTC_STATE_TIMEOUT;
 1915              		.loc 1 1157 9 view .LVU619
 1916              		.loc 1 1157 21 is_stmt 0 view .LVU620
 1917 0052 2123     		movs	r3, #33
 1918 0054 FC3A     		subs	r2, r2, #252
 1919 0056 E254     		strb	r2, [r4, r3]
1158:Drivers/STM32L0xx_HAL_Driver/Src/stm32l0xx_hal_rtc_ex.c **** 
1159:Drivers/STM32L0xx_HAL_Driver/Src/stm32l0xx_hal_rtc_ex.c ****         /* Process Unlocked */
1160:Drivers/STM32L0xx_HAL_Driver/Src/stm32l0xx_hal_rtc_ex.c ****         __HAL_UNLOCK(hrtc);
 1920              		.loc 1 1160 9 is_stmt 1 view .LVU621
 1921              		.loc 1 1160 9 view .LVU622
 1922 0058 013B     		subs	r3, r3, #1
 1923 005a 0022     		movs	r2, #0
ARM GAS  C:\Users\Tilen\AppData\Local\Temp\ccvNaC6x.s 			page 57


 1924 005c E254     		strb	r2, [r4, r3]
 1925              		.loc 1 1160 9 view .LVU623
1161:Drivers/STM32L0xx_HAL_Driver/Src/stm32l0xx_hal_rtc_ex.c **** 
1162:Drivers/STM32L0xx_HAL_Driver/Src/stm32l0xx_hal_rtc_ex.c ****         return HAL_TIMEOUT;
 1926              		.loc 1 1162 9 view .LVU624
 1927              		.loc 1 1162 16 is_stmt 0 view .LVU625
 1928 005e 0320     		movs	r0, #3
 1929 0060 3EE0     		b	.L130
 1930              	.LVL154:
 1931              	.L131:
1163:Drivers/STM32L0xx_HAL_Driver/Src/stm32l0xx_hal_rtc_ex.c ****       }
1164:Drivers/STM32L0xx_HAL_Driver/Src/stm32l0xx_hal_rtc_ex.c ****     }
1165:Drivers/STM32L0xx_HAL_Driver/Src/stm32l0xx_hal_rtc_ex.c ****   }
1166:Drivers/STM32L0xx_HAL_Driver/Src/stm32l0xx_hal_rtc_ex.c **** 
1167:Drivers/STM32L0xx_HAL_Driver/Src/stm32l0xx_hal_rtc_ex.c ****   /* Disable the Wakeup timer */
1168:Drivers/STM32L0xx_HAL_Driver/Src/stm32l0xx_hal_rtc_ex.c ****   __HAL_RTC_WAKEUPTIMER_DISABLE(hrtc);
 1932              		.loc 1 1168 3 is_stmt 1 view .LVU626
 1933 0062 2268     		ldr	r2, [r4]
 1934 0064 9368     		ldr	r3, [r2, #8]
 1935 0066 2049     		ldr	r1, .L139
 1936 0068 0B40     		ands	r3, r1
 1937 006a 9360     		str	r3, [r2, #8]
1169:Drivers/STM32L0xx_HAL_Driver/Src/stm32l0xx_hal_rtc_ex.c **** 
1170:Drivers/STM32L0xx_HAL_Driver/Src/stm32l0xx_hal_rtc_ex.c ****   /* Clear the Wakeup flag */
1171:Drivers/STM32L0xx_HAL_Driver/Src/stm32l0xx_hal_rtc_ex.c ****   __HAL_RTC_WAKEUPTIMER_CLEAR_FLAG(hrtc, RTC_FLAG_WUTF);
 1938              		.loc 1 1171 3 view .LVU627
 1939 006c 2168     		ldr	r1, [r4]
 1940 006e CB68     		ldr	r3, [r1, #12]
 1941 0070 FF22     		movs	r2, #255
 1942 0072 1A40     		ands	r2, r3
 1943 0074 1D4B     		ldr	r3, .L139+4
 1944 0076 1343     		orrs	r3, r2
 1945 0078 CB60     		str	r3, [r1, #12]
1172:Drivers/STM32L0xx_HAL_Driver/Src/stm32l0xx_hal_rtc_ex.c **** 
1173:Drivers/STM32L0xx_HAL_Driver/Src/stm32l0xx_hal_rtc_ex.c ****   /* Get tick */
1174:Drivers/STM32L0xx_HAL_Driver/Src/stm32l0xx_hal_rtc_ex.c ****   tickstart = HAL_GetTick();
 1946              		.loc 1 1174 3 view .LVU628
 1947              		.loc 1 1174 15 is_stmt 0 view .LVU629
 1948 007a FFF7FEFF 		bl	HAL_GetTick
 1949              	.LVL155:
 1950 007e 0500     		movs	r5, r0
 1951              	.LVL156:
1175:Drivers/STM32L0xx_HAL_Driver/Src/stm32l0xx_hal_rtc_ex.c **** 
1176:Drivers/STM32L0xx_HAL_Driver/Src/stm32l0xx_hal_rtc_ex.c ****   /* Wait till RTC WUTWF flag is set and if timeout is reached exit */
1177:Drivers/STM32L0xx_HAL_Driver/Src/stm32l0xx_hal_rtc_ex.c ****   while (__HAL_RTC_WAKEUPTIMER_GET_FLAG(hrtc, RTC_FLAG_WUTWF) == 0U)
 1952              		.loc 1 1177 3 is_stmt 1 view .LVU630
 1953              	.L134:
 1954              		.loc 1 1177 63 view .LVU631
 1955              		.loc 1 1177 10 is_stmt 0 view .LVU632
 1956 0080 2268     		ldr	r2, [r4]
 1957 0082 D368     		ldr	r3, [r2, #12]
 1958              		.loc 1 1177 63 view .LVU633
 1959 0084 5B07     		lsls	r3, r3, #29
 1960 0086 11D4     		bmi	.L138
1178:Drivers/STM32L0xx_HAL_Driver/Src/stm32l0xx_hal_rtc_ex.c ****   {
1179:Drivers/STM32L0xx_HAL_Driver/Src/stm32l0xx_hal_rtc_ex.c ****     if ((HAL_GetTick() - tickstart) > RTC_TIMEOUT_VALUE)
 1961              		.loc 1 1179 5 is_stmt 1 view .LVU634
ARM GAS  C:\Users\Tilen\AppData\Local\Temp\ccvNaC6x.s 			page 58


 1962              		.loc 1 1179 10 is_stmt 0 view .LVU635
 1963 0088 FFF7FEFF 		bl	HAL_GetTick
 1964              	.LVL157:
 1965              		.loc 1 1179 24 discriminator 1 view .LVU636
 1966 008c 401B     		subs	r0, r0, r5
 1967              		.loc 1 1179 8 discriminator 1 view .LVU637
 1968 008e FA23     		movs	r3, #250
 1969 0090 9B00     		lsls	r3, r3, #2
 1970 0092 9842     		cmp	r0, r3
 1971 0094 F4D9     		bls	.L134
1180:Drivers/STM32L0xx_HAL_Driver/Src/stm32l0xx_hal_rtc_ex.c ****     {
1181:Drivers/STM32L0xx_HAL_Driver/Src/stm32l0xx_hal_rtc_ex.c ****       /* Enable the write protection for RTC registers */
1182:Drivers/STM32L0xx_HAL_Driver/Src/stm32l0xx_hal_rtc_ex.c ****       __HAL_RTC_WRITEPROTECTION_ENABLE(hrtc);
 1972              		.loc 1 1182 7 is_stmt 1 view .LVU638
 1973              		.loc 1 1182 7 view .LVU639
 1974 0096 2368     		ldr	r3, [r4]
 1975 0098 FF22     		movs	r2, #255
 1976 009a 5A62     		str	r2, [r3, #36]
 1977              		.loc 1 1182 7 view .LVU640
1183:Drivers/STM32L0xx_HAL_Driver/Src/stm32l0xx_hal_rtc_ex.c **** 
1184:Drivers/STM32L0xx_HAL_Driver/Src/stm32l0xx_hal_rtc_ex.c ****       hrtc->State = HAL_RTC_STATE_TIMEOUT;
 1978              		.loc 1 1184 7 view .LVU641
 1979              		.loc 1 1184 19 is_stmt 0 view .LVU642
 1980 009c 2123     		movs	r3, #33
 1981 009e FC3A     		subs	r2, r2, #252
 1982 00a0 E254     		strb	r2, [r4, r3]
1185:Drivers/STM32L0xx_HAL_Driver/Src/stm32l0xx_hal_rtc_ex.c **** 
1186:Drivers/STM32L0xx_HAL_Driver/Src/stm32l0xx_hal_rtc_ex.c ****       /* Process Unlocked */
1187:Drivers/STM32L0xx_HAL_Driver/Src/stm32l0xx_hal_rtc_ex.c ****       __HAL_UNLOCK(hrtc);
 1983              		.loc 1 1187 7 is_stmt 1 view .LVU643
 1984              		.loc 1 1187 7 view .LVU644
 1985 00a2 013B     		subs	r3, r3, #1
 1986 00a4 0022     		movs	r2, #0
 1987 00a6 E254     		strb	r2, [r4, r3]
 1988              		.loc 1 1187 7 view .LVU645
1188:Drivers/STM32L0xx_HAL_Driver/Src/stm32l0xx_hal_rtc_ex.c **** 
1189:Drivers/STM32L0xx_HAL_Driver/Src/stm32l0xx_hal_rtc_ex.c ****       return HAL_TIMEOUT;
 1989              		.loc 1 1189 7 view .LVU646
 1990              		.loc 1 1189 14 is_stmt 0 view .LVU647
 1991 00a8 0320     		movs	r0, #3
 1992 00aa 19E0     		b	.L130
 1993              	.L138:
1190:Drivers/STM32L0xx_HAL_Driver/Src/stm32l0xx_hal_rtc_ex.c ****     }
1191:Drivers/STM32L0xx_HAL_Driver/Src/stm32l0xx_hal_rtc_ex.c ****   }
1192:Drivers/STM32L0xx_HAL_Driver/Src/stm32l0xx_hal_rtc_ex.c **** 
1193:Drivers/STM32L0xx_HAL_Driver/Src/stm32l0xx_hal_rtc_ex.c ****   /* Clear the Wakeup Timer clock source bits in CR register */
1194:Drivers/STM32L0xx_HAL_Driver/Src/stm32l0xx_hal_rtc_ex.c ****   hrtc->Instance->CR &= (uint32_t)~RTC_CR_WUCKSEL;
 1994              		.loc 1 1194 3 is_stmt 1 view .LVU648
 1995              		.loc 1 1194 17 is_stmt 0 view .LVU649
 1996 00ac 9368     		ldr	r3, [r2, #8]
 1997              		.loc 1 1194 22 view .LVU650
 1998 00ae 0721     		movs	r1, #7
 1999 00b0 8B43     		bics	r3, r1
 2000 00b2 9360     		str	r3, [r2, #8]
1195:Drivers/STM32L0xx_HAL_Driver/Src/stm32l0xx_hal_rtc_ex.c **** 
1196:Drivers/STM32L0xx_HAL_Driver/Src/stm32l0xx_hal_rtc_ex.c ****   /* Configure the clock source */
1197:Drivers/STM32L0xx_HAL_Driver/Src/stm32l0xx_hal_rtc_ex.c ****   hrtc->Instance->CR |= (uint32_t)WakeUpClock;
ARM GAS  C:\Users\Tilen\AppData\Local\Temp\ccvNaC6x.s 			page 59


 2001              		.loc 1 1197 3 is_stmt 1 view .LVU651
 2002              		.loc 1 1197 7 is_stmt 0 view .LVU652
 2003 00b4 2268     		ldr	r2, [r4]
 2004              		.loc 1 1197 17 view .LVU653
 2005 00b6 9368     		ldr	r3, [r2, #8]
 2006              		.loc 1 1197 22 view .LVU654
 2007 00b8 3B43     		orrs	r3, r7
 2008 00ba 9360     		str	r3, [r2, #8]
1198:Drivers/STM32L0xx_HAL_Driver/Src/stm32l0xx_hal_rtc_ex.c **** 
1199:Drivers/STM32L0xx_HAL_Driver/Src/stm32l0xx_hal_rtc_ex.c ****   /* Configure the Wakeup Timer counter */
1200:Drivers/STM32L0xx_HAL_Driver/Src/stm32l0xx_hal_rtc_ex.c ****   hrtc->Instance->WUTR = (uint32_t)WakeUpCounter;
 2009              		.loc 1 1200 3 is_stmt 1 view .LVU655
 2010              		.loc 1 1200 7 is_stmt 0 view .LVU656
 2011 00bc 2368     		ldr	r3, [r4]
 2012              		.loc 1 1200 24 view .LVU657
 2013 00be 5E61     		str	r6, [r3, #20]
1201:Drivers/STM32L0xx_HAL_Driver/Src/stm32l0xx_hal_rtc_ex.c **** 
1202:Drivers/STM32L0xx_HAL_Driver/Src/stm32l0xx_hal_rtc_ex.c ****   /* Enable the Wakeup Timer */
1203:Drivers/STM32L0xx_HAL_Driver/Src/stm32l0xx_hal_rtc_ex.c ****   __HAL_RTC_WAKEUPTIMER_ENABLE(hrtc);
 2014              		.loc 1 1203 3 is_stmt 1 view .LVU658
 2015 00c0 2268     		ldr	r2, [r4]
 2016 00c2 9168     		ldr	r1, [r2, #8]
 2017 00c4 8023     		movs	r3, #128
 2018 00c6 DB00     		lsls	r3, r3, #3
 2019 00c8 0B43     		orrs	r3, r1
 2020 00ca 9360     		str	r3, [r2, #8]
1204:Drivers/STM32L0xx_HAL_Driver/Src/stm32l0xx_hal_rtc_ex.c **** 
1205:Drivers/STM32L0xx_HAL_Driver/Src/stm32l0xx_hal_rtc_ex.c ****   /* Enable the write protection for RTC registers */
1206:Drivers/STM32L0xx_HAL_Driver/Src/stm32l0xx_hal_rtc_ex.c ****   __HAL_RTC_WRITEPROTECTION_ENABLE(hrtc);
 2021              		.loc 1 1206 3 view .LVU659
 2022              		.loc 1 1206 3 view .LVU660
 2023 00cc 2368     		ldr	r3, [r4]
 2024 00ce FF22     		movs	r2, #255
 2025 00d0 5A62     		str	r2, [r3, #36]
 2026              		.loc 1 1206 3 view .LVU661
1207:Drivers/STM32L0xx_HAL_Driver/Src/stm32l0xx_hal_rtc_ex.c **** 
1208:Drivers/STM32L0xx_HAL_Driver/Src/stm32l0xx_hal_rtc_ex.c ****   hrtc->State = HAL_RTC_STATE_READY;
 2027              		.loc 1 1208 3 view .LVU662
 2028              		.loc 1 1208 15 is_stmt 0 view .LVU663
 2029 00d2 2123     		movs	r3, #33
 2030 00d4 FE3A     		subs	r2, r2, #254
 2031 00d6 E254     		strb	r2, [r4, r3]
1209:Drivers/STM32L0xx_HAL_Driver/Src/stm32l0xx_hal_rtc_ex.c **** 
1210:Drivers/STM32L0xx_HAL_Driver/Src/stm32l0xx_hal_rtc_ex.c ****   /* Process Unlocked */
1211:Drivers/STM32L0xx_HAL_Driver/Src/stm32l0xx_hal_rtc_ex.c ****   __HAL_UNLOCK(hrtc);
 2032              		.loc 1 1211 3 is_stmt 1 view .LVU664
 2033              		.loc 1 1211 3 view .LVU665
 2034 00d8 013B     		subs	r3, r3, #1
 2035 00da 0022     		movs	r2, #0
 2036 00dc E254     		strb	r2, [r4, r3]
 2037              		.loc 1 1211 3 view .LVU666
1212:Drivers/STM32L0xx_HAL_Driver/Src/stm32l0xx_hal_rtc_ex.c **** 
1213:Drivers/STM32L0xx_HAL_Driver/Src/stm32l0xx_hal_rtc_ex.c ****   return HAL_OK;
 2038              		.loc 1 1213 3 view .LVU667
 2039              		.loc 1 1213 10 is_stmt 0 view .LVU668
 2040 00de 0020     		movs	r0, #0
 2041              	.LVL158:
ARM GAS  C:\Users\Tilen\AppData\Local\Temp\ccvNaC6x.s 			page 60


 2042              	.L130:
1214:Drivers/STM32L0xx_HAL_Driver/Src/stm32l0xx_hal_rtc_ex.c **** }
 2043              		.loc 1 1214 1 view .LVU669
 2044              		@ sp needed
 2045              	.LVL159:
 2046              	.LVL160:
 2047              	.LVL161:
 2048              		.loc 1 1214 1 view .LVU670
 2049 00e0 F8BD     		pop	{r3, r4, r5, r6, r7, pc}
 2050              	.LVL162:
 2051              	.L136:
1137:Drivers/STM32L0xx_HAL_Driver/Src/stm32l0xx_hal_rtc_ex.c **** 
 2052              		.loc 1 1137 3 discriminator 1 view .LVU671
 2053 00e2 0220     		movs	r0, #2
 2054              	.LVL163:
1137:Drivers/STM32L0xx_HAL_Driver/Src/stm32l0xx_hal_rtc_ex.c **** 
 2055              		.loc 1 1137 3 discriminator 1 view .LVU672
 2056 00e4 FCE7     		b	.L130
 2057              	.L140:
 2058 00e6 C046     		.align	2
 2059              	.L139:
 2060 00e8 FFFBFFFF 		.word	-1025
 2061 00ec 7FFBFFFF 		.word	-1153
 2062              		.cfi_endproc
 2063              	.LFE61:
 2065              		.section	.text.HAL_RTCEx_SetWakeUpTimer_IT,"ax",%progbits
 2066              		.align	1
 2067              		.global	HAL_RTCEx_SetWakeUpTimer_IT
 2068              		.syntax unified
 2069              		.code	16
 2070              		.thumb_func
 2072              	HAL_RTCEx_SetWakeUpTimer_IT:
 2073              	.LVL164:
 2074              	.LFB62:
1215:Drivers/STM32L0xx_HAL_Driver/Src/stm32l0xx_hal_rtc_ex.c **** 
1216:Drivers/STM32L0xx_HAL_Driver/Src/stm32l0xx_hal_rtc_ex.c **** /**
1217:Drivers/STM32L0xx_HAL_Driver/Src/stm32l0xx_hal_rtc_ex.c ****   * @brief  Sets wakeup timer with interrupt.
1218:Drivers/STM32L0xx_HAL_Driver/Src/stm32l0xx_hal_rtc_ex.c ****   * @param  hrtc pointer to a RTC_HandleTypeDef structure that contains
1219:Drivers/STM32L0xx_HAL_Driver/Src/stm32l0xx_hal_rtc_ex.c ****   *                the configuration information for RTC.
1220:Drivers/STM32L0xx_HAL_Driver/Src/stm32l0xx_hal_rtc_ex.c ****   * @param  WakeUpCounter Wakeup counter
1221:Drivers/STM32L0xx_HAL_Driver/Src/stm32l0xx_hal_rtc_ex.c ****   * @param  WakeUpClock Wakeup clock
1222:Drivers/STM32L0xx_HAL_Driver/Src/stm32l0xx_hal_rtc_ex.c ****   * @retval HAL status
1223:Drivers/STM32L0xx_HAL_Driver/Src/stm32l0xx_hal_rtc_ex.c ****   */
1224:Drivers/STM32L0xx_HAL_Driver/Src/stm32l0xx_hal_rtc_ex.c **** HAL_StatusTypeDef HAL_RTCEx_SetWakeUpTimer_IT(RTC_HandleTypeDef *hrtc, uint32_t WakeUpCounter, uint
1225:Drivers/STM32L0xx_HAL_Driver/Src/stm32l0xx_hal_rtc_ex.c **** {
 2075              		.loc 1 1225 1 is_stmt 1 view -0
 2076              		.cfi_startproc
 2077              		@ args = 0, pretend = 0, frame = 8
 2078              		@ frame_needed = 0, uses_anonymous_args = 0
 2079              		.loc 1 1225 1 is_stmt 0 view .LVU674
 2080 0000 70B5     		push	{r4, r5, r6, lr}
 2081              	.LCFI12:
 2082              		.cfi_def_cfa_offset 16
 2083              		.cfi_offset 4, -16
 2084              		.cfi_offset 5, -12
 2085              		.cfi_offset 6, -8
 2086              		.cfi_offset 14, -4
ARM GAS  C:\Users\Tilen\AppData\Local\Temp\ccvNaC6x.s 			page 61


 2087 0002 82B0     		sub	sp, sp, #8
 2088              	.LCFI13:
 2089              		.cfi_def_cfa_offset 24
 2090 0004 0400     		movs	r4, r0
 2091 0006 0D00     		movs	r5, r1
 2092 0008 1600     		movs	r6, r2
1226:Drivers/STM32L0xx_HAL_Driver/Src/stm32l0xx_hal_rtc_ex.c ****   __IO uint32_t count  = RTC_TIMEOUT_VALUE * (SystemCoreClock / 32U / 1000U);
 2093              		.loc 1 1226 3 is_stmt 1 view .LVU675
 2094              		.loc 1 1226 69 is_stmt 0 view .LVU676
 2095 000a 414B     		ldr	r3, .L154
 2096 000c 1868     		ldr	r0, [r3]
 2097              	.LVL165:
 2098              		.loc 1 1226 69 view .LVU677
 2099 000e FA21     		movs	r1, #250
 2100              	.LVL166:
 2101              		.loc 1 1226 69 view .LVU678
 2102 0010 C901     		lsls	r1, r1, #7
 2103 0012 FFF7FEFF 		bl	__aeabi_uidiv
 2104              	.LVL167:
 2105              		.loc 1 1226 44 view .LVU679
 2106 0016 4201     		lsls	r2, r0, #5
 2107 0018 121A     		subs	r2, r2, r0
 2108 001a 9200     		lsls	r2, r2, #2
 2109 001c 1218     		adds	r2, r2, r0
 2110 001e D200     		lsls	r2, r2, #3
 2111              		.loc 1 1226 17 view .LVU680
 2112 0020 0192     		str	r2, [sp, #4]
1227:Drivers/STM32L0xx_HAL_Driver/Src/stm32l0xx_hal_rtc_ex.c **** 
1228:Drivers/STM32L0xx_HAL_Driver/Src/stm32l0xx_hal_rtc_ex.c ****   /* Check the parameters */
1229:Drivers/STM32L0xx_HAL_Driver/Src/stm32l0xx_hal_rtc_ex.c ****   assert_param(IS_RTC_WAKEUP_CLOCK(WakeUpClock));
 2113              		.loc 1 1229 3 is_stmt 1 view .LVU681
1230:Drivers/STM32L0xx_HAL_Driver/Src/stm32l0xx_hal_rtc_ex.c ****   assert_param(IS_RTC_WAKEUP_COUNTER(WakeUpCounter));
 2114              		.loc 1 1230 3 view .LVU682
1231:Drivers/STM32L0xx_HAL_Driver/Src/stm32l0xx_hal_rtc_ex.c **** 
1232:Drivers/STM32L0xx_HAL_Driver/Src/stm32l0xx_hal_rtc_ex.c ****   /* Process Locked */
1233:Drivers/STM32L0xx_HAL_Driver/Src/stm32l0xx_hal_rtc_ex.c ****   __HAL_LOCK(hrtc);
 2115              		.loc 1 1233 3 view .LVU683
 2116              		.loc 1 1233 3 view .LVU684
 2117 0022 2023     		movs	r3, #32
 2118 0024 E35C     		ldrb	r3, [r4, r3]
 2119 0026 012B     		cmp	r3, #1
 2120 0028 00D1     		bne	.LCB1987
 2121 002a 6EE0     		b	.L148	@long jump
 2122              	.LCB1987:
 2123              		.loc 1 1233 3 discriminator 2 view .LVU685
 2124 002c 2023     		movs	r3, #32
 2125 002e 0121     		movs	r1, #1
 2126 0030 E154     		strb	r1, [r4, r3]
 2127              		.loc 1 1233 3 view .LVU686
1234:Drivers/STM32L0xx_HAL_Driver/Src/stm32l0xx_hal_rtc_ex.c **** 
1235:Drivers/STM32L0xx_HAL_Driver/Src/stm32l0xx_hal_rtc_ex.c ****   hrtc->State = HAL_RTC_STATE_BUSY;
 2128              		.loc 1 1235 3 view .LVU687
 2129              		.loc 1 1235 15 is_stmt 0 view .LVU688
 2130 0032 0133     		adds	r3, r3, #1
 2131 0034 0131     		adds	r1, r1, #1
 2132 0036 E154     		strb	r1, [r4, r3]
1236:Drivers/STM32L0xx_HAL_Driver/Src/stm32l0xx_hal_rtc_ex.c **** 
ARM GAS  C:\Users\Tilen\AppData\Local\Temp\ccvNaC6x.s 			page 62


1237:Drivers/STM32L0xx_HAL_Driver/Src/stm32l0xx_hal_rtc_ex.c ****   /* Disable the write protection for RTC registers */
1238:Drivers/STM32L0xx_HAL_Driver/Src/stm32l0xx_hal_rtc_ex.c ****   __HAL_RTC_WRITEPROTECTION_DISABLE(hrtc);
 2133              		.loc 1 1238 3 is_stmt 1 view .LVU689
 2134              		.loc 1 1238 3 view .LVU690
 2135 0038 2368     		ldr	r3, [r4]
 2136 003a C831     		adds	r1, r1, #200
 2137 003c 5962     		str	r1, [r3, #36]
 2138              		.loc 1 1238 3 view .LVU691
 2139 003e 2368     		ldr	r3, [r4]
 2140 0040 7739     		subs	r1, r1, #119
 2141 0042 5962     		str	r1, [r3, #36]
 2142              		.loc 1 1238 3 view .LVU692
1239:Drivers/STM32L0xx_HAL_Driver/Src/stm32l0xx_hal_rtc_ex.c **** 
1240:Drivers/STM32L0xx_HAL_Driver/Src/stm32l0xx_hal_rtc_ex.c ****   /* Check RTC WUTWF flag is reset only when wakeup timer enabled */
1241:Drivers/STM32L0xx_HAL_Driver/Src/stm32l0xx_hal_rtc_ex.c ****   if ((hrtc->Instance->CR & RTC_CR_WUTE) != 0U)
 2143              		.loc 1 1241 3 view .LVU693
 2144              		.loc 1 1241 12 is_stmt 0 view .LVU694
 2145 0044 2168     		ldr	r1, [r4]
 2146              		.loc 1 1241 22 view .LVU695
 2147 0046 8B68     		ldr	r3, [r1, #8]
 2148              		.loc 1 1241 6 view .LVU696
 2149 0048 5B05     		lsls	r3, r3, #21
 2150 004a 08D5     		bpl	.L143
 2151              	.L145:
1242:Drivers/STM32L0xx_HAL_Driver/Src/stm32l0xx_hal_rtc_ex.c ****   {
1243:Drivers/STM32L0xx_HAL_Driver/Src/stm32l0xx_hal_rtc_ex.c ****     /* Wait till RTC WUTWF flag is reset and if timeout is reached exit */
1244:Drivers/STM32L0xx_HAL_Driver/Src/stm32l0xx_hal_rtc_ex.c ****     do
 2152              		.loc 1 1244 5 is_stmt 1 view .LVU697
1245:Drivers/STM32L0xx_HAL_Driver/Src/stm32l0xx_hal_rtc_ex.c ****     {
1246:Drivers/STM32L0xx_HAL_Driver/Src/stm32l0xx_hal_rtc_ex.c ****       count = count - 1U;
 2153              		.loc 1 1246 7 view .LVU698
 2154              		.loc 1 1246 21 is_stmt 0 view .LVU699
 2155 004c 019B     		ldr	r3, [sp, #4]
 2156 004e 013B     		subs	r3, r3, #1
 2157              		.loc 1 1246 13 view .LVU700
 2158 0050 0193     		str	r3, [sp, #4]
1247:Drivers/STM32L0xx_HAL_Driver/Src/stm32l0xx_hal_rtc_ex.c ****       if (count == 0U)
 2159              		.loc 1 1247 7 is_stmt 1 view .LVU701
 2160              		.loc 1 1247 17 is_stmt 0 view .LVU702
 2161 0052 019B     		ldr	r3, [sp, #4]
 2162              		.loc 1 1247 10 view .LVU703
 2163 0054 002B     		cmp	r3, #0
 2164 0056 42D0     		beq	.L152
1248:Drivers/STM32L0xx_HAL_Driver/Src/stm32l0xx_hal_rtc_ex.c ****       {
1249:Drivers/STM32L0xx_HAL_Driver/Src/stm32l0xx_hal_rtc_ex.c ****         /* Enable the write protection for RTC registers */
1250:Drivers/STM32L0xx_HAL_Driver/Src/stm32l0xx_hal_rtc_ex.c ****         __HAL_RTC_WRITEPROTECTION_ENABLE(hrtc);
1251:Drivers/STM32L0xx_HAL_Driver/Src/stm32l0xx_hal_rtc_ex.c **** 
1252:Drivers/STM32L0xx_HAL_Driver/Src/stm32l0xx_hal_rtc_ex.c ****         hrtc->State = HAL_RTC_STATE_TIMEOUT;
1253:Drivers/STM32L0xx_HAL_Driver/Src/stm32l0xx_hal_rtc_ex.c **** 
1254:Drivers/STM32L0xx_HAL_Driver/Src/stm32l0xx_hal_rtc_ex.c ****         /* Process Unlocked */
1255:Drivers/STM32L0xx_HAL_Driver/Src/stm32l0xx_hal_rtc_ex.c ****         __HAL_UNLOCK(hrtc);
1256:Drivers/STM32L0xx_HAL_Driver/Src/stm32l0xx_hal_rtc_ex.c **** 
1257:Drivers/STM32L0xx_HAL_Driver/Src/stm32l0xx_hal_rtc_ex.c ****         return HAL_TIMEOUT;
1258:Drivers/STM32L0xx_HAL_Driver/Src/stm32l0xx_hal_rtc_ex.c ****       }
1259:Drivers/STM32L0xx_HAL_Driver/Src/stm32l0xx_hal_rtc_ex.c ****     } while (__HAL_RTC_WAKEUPTIMER_GET_FLAG(hrtc, RTC_FLAG_WUTWF) != 0U);
 2165              		.loc 1 1259 67 is_stmt 1 view .LVU704
 2166              		.loc 1 1259 14 is_stmt 0 view .LVU705
ARM GAS  C:\Users\Tilen\AppData\Local\Temp\ccvNaC6x.s 			page 63


 2167 0058 CB68     		ldr	r3, [r1, #12]
 2168              		.loc 1 1259 67 view .LVU706
 2169 005a 5B07     		lsls	r3, r3, #29
 2170 005c F6D4     		bmi	.L145
 2171              	.L143:
1260:Drivers/STM32L0xx_HAL_Driver/Src/stm32l0xx_hal_rtc_ex.c ****   }
1261:Drivers/STM32L0xx_HAL_Driver/Src/stm32l0xx_hal_rtc_ex.c **** 
1262:Drivers/STM32L0xx_HAL_Driver/Src/stm32l0xx_hal_rtc_ex.c ****   /* Disable the Wakeup timer */
1263:Drivers/STM32L0xx_HAL_Driver/Src/stm32l0xx_hal_rtc_ex.c ****   __HAL_RTC_WAKEUPTIMER_DISABLE(hrtc);
 2172              		.loc 1 1263 3 is_stmt 1 view .LVU707
 2173 005e 8B68     		ldr	r3, [r1, #8]
 2174 0060 2C48     		ldr	r0, .L154+4
 2175 0062 0340     		ands	r3, r0
 2176 0064 8B60     		str	r3, [r1, #8]
1264:Drivers/STM32L0xx_HAL_Driver/Src/stm32l0xx_hal_rtc_ex.c **** 
1265:Drivers/STM32L0xx_HAL_Driver/Src/stm32l0xx_hal_rtc_ex.c ****   /* Clear the Wakeup flag */
1266:Drivers/STM32L0xx_HAL_Driver/Src/stm32l0xx_hal_rtc_ex.c ****   __HAL_RTC_WAKEUPTIMER_CLEAR_FLAG(hrtc, RTC_FLAG_WUTF);
 2177              		.loc 1 1266 3 view .LVU708
 2178 0066 2068     		ldr	r0, [r4]
 2179 0068 C368     		ldr	r3, [r0, #12]
 2180 006a FF21     		movs	r1, #255
 2181 006c 1940     		ands	r1, r3
 2182 006e 2A4B     		ldr	r3, .L154+8
 2183 0070 0B43     		orrs	r3, r1
 2184 0072 C360     		str	r3, [r0, #12]
1267:Drivers/STM32L0xx_HAL_Driver/Src/stm32l0xx_hal_rtc_ex.c **** 
1268:Drivers/STM32L0xx_HAL_Driver/Src/stm32l0xx_hal_rtc_ex.c ****   /* Reload the counter */
1269:Drivers/STM32L0xx_HAL_Driver/Src/stm32l0xx_hal_rtc_ex.c ****   count = RTC_TIMEOUT_VALUE * (SystemCoreClock / 32U / 1000U);
 2185              		.loc 1 1269 3 view .LVU709
 2186              		.loc 1 1269 9 is_stmt 0 view .LVU710
 2187 0074 0192     		str	r2, [sp, #4]
 2188              	.L147:
1270:Drivers/STM32L0xx_HAL_Driver/Src/stm32l0xx_hal_rtc_ex.c **** 
1271:Drivers/STM32L0xx_HAL_Driver/Src/stm32l0xx_hal_rtc_ex.c ****   /* Wait till RTC WUTWF flag is set and if timeout is reached exit */
1272:Drivers/STM32L0xx_HAL_Driver/Src/stm32l0xx_hal_rtc_ex.c ****   do
 2189              		.loc 1 1272 3 is_stmt 1 view .LVU711
1273:Drivers/STM32L0xx_HAL_Driver/Src/stm32l0xx_hal_rtc_ex.c ****   {
1274:Drivers/STM32L0xx_HAL_Driver/Src/stm32l0xx_hal_rtc_ex.c ****     count = count - 1U;
 2190              		.loc 1 1274 5 view .LVU712
 2191              		.loc 1 1274 19 is_stmt 0 view .LVU713
 2192 0076 019B     		ldr	r3, [sp, #4]
 2193 0078 013B     		subs	r3, r3, #1
 2194              		.loc 1 1274 11 view .LVU714
 2195 007a 0193     		str	r3, [sp, #4]
1275:Drivers/STM32L0xx_HAL_Driver/Src/stm32l0xx_hal_rtc_ex.c ****     if (count == 0U)
 2196              		.loc 1 1275 5 is_stmt 1 view .LVU715
 2197              		.loc 1 1275 15 is_stmt 0 view .LVU716
 2198 007c 019B     		ldr	r3, [sp, #4]
 2199              		.loc 1 1275 8 view .LVU717
 2200 007e 002B     		cmp	r3, #0
 2201 0080 37D0     		beq	.L153
1276:Drivers/STM32L0xx_HAL_Driver/Src/stm32l0xx_hal_rtc_ex.c ****     {
1277:Drivers/STM32L0xx_HAL_Driver/Src/stm32l0xx_hal_rtc_ex.c ****       /* Enable the write protection for RTC registers */
1278:Drivers/STM32L0xx_HAL_Driver/Src/stm32l0xx_hal_rtc_ex.c ****       __HAL_RTC_WRITEPROTECTION_ENABLE(hrtc);
1279:Drivers/STM32L0xx_HAL_Driver/Src/stm32l0xx_hal_rtc_ex.c **** 
1280:Drivers/STM32L0xx_HAL_Driver/Src/stm32l0xx_hal_rtc_ex.c ****       hrtc->State = HAL_RTC_STATE_TIMEOUT;
1281:Drivers/STM32L0xx_HAL_Driver/Src/stm32l0xx_hal_rtc_ex.c **** 
ARM GAS  C:\Users\Tilen\AppData\Local\Temp\ccvNaC6x.s 			page 64


1282:Drivers/STM32L0xx_HAL_Driver/Src/stm32l0xx_hal_rtc_ex.c ****       /* Process Unlocked */
1283:Drivers/STM32L0xx_HAL_Driver/Src/stm32l0xx_hal_rtc_ex.c ****       __HAL_UNLOCK(hrtc);
1284:Drivers/STM32L0xx_HAL_Driver/Src/stm32l0xx_hal_rtc_ex.c **** 
1285:Drivers/STM32L0xx_HAL_Driver/Src/stm32l0xx_hal_rtc_ex.c ****       return HAL_TIMEOUT;
1286:Drivers/STM32L0xx_HAL_Driver/Src/stm32l0xx_hal_rtc_ex.c ****     }
1287:Drivers/STM32L0xx_HAL_Driver/Src/stm32l0xx_hal_rtc_ex.c ****   } while (__HAL_RTC_WAKEUPTIMER_GET_FLAG(hrtc, RTC_FLAG_WUTWF) == 0U);
 2202              		.loc 1 1287 65 is_stmt 1 view .LVU718
 2203              		.loc 1 1287 12 is_stmt 0 view .LVU719
 2204 0082 2268     		ldr	r2, [r4]
 2205 0084 D368     		ldr	r3, [r2, #12]
 2206              		.loc 1 1287 65 view .LVU720
 2207 0086 5B07     		lsls	r3, r3, #29
 2208 0088 F5D5     		bpl	.L147
1288:Drivers/STM32L0xx_HAL_Driver/Src/stm32l0xx_hal_rtc_ex.c **** 
1289:Drivers/STM32L0xx_HAL_Driver/Src/stm32l0xx_hal_rtc_ex.c ****   /* Clear the Wakeup Timer clock source bits in CR register */
1290:Drivers/STM32L0xx_HAL_Driver/Src/stm32l0xx_hal_rtc_ex.c ****   hrtc->Instance->CR &= (uint32_t)~RTC_CR_WUCKSEL;
 2209              		.loc 1 1290 3 is_stmt 1 view .LVU721
 2210              		.loc 1 1290 17 is_stmt 0 view .LVU722
 2211 008a 9368     		ldr	r3, [r2, #8]
 2212              		.loc 1 1290 22 view .LVU723
 2213 008c 0721     		movs	r1, #7
 2214 008e 8B43     		bics	r3, r1
 2215 0090 9360     		str	r3, [r2, #8]
1291:Drivers/STM32L0xx_HAL_Driver/Src/stm32l0xx_hal_rtc_ex.c **** 
1292:Drivers/STM32L0xx_HAL_Driver/Src/stm32l0xx_hal_rtc_ex.c ****   /* Configure the clock source */
1293:Drivers/STM32L0xx_HAL_Driver/Src/stm32l0xx_hal_rtc_ex.c ****   hrtc->Instance->CR |= (uint32_t)WakeUpClock;
 2216              		.loc 1 1293 3 is_stmt 1 view .LVU724
 2217              		.loc 1 1293 7 is_stmt 0 view .LVU725
 2218 0092 2268     		ldr	r2, [r4]
 2219              		.loc 1 1293 17 view .LVU726
 2220 0094 9368     		ldr	r3, [r2, #8]
 2221              		.loc 1 1293 22 view .LVU727
 2222 0096 3343     		orrs	r3, r6
 2223 0098 9360     		str	r3, [r2, #8]
1294:Drivers/STM32L0xx_HAL_Driver/Src/stm32l0xx_hal_rtc_ex.c **** 
1295:Drivers/STM32L0xx_HAL_Driver/Src/stm32l0xx_hal_rtc_ex.c ****   /* Configure the Wakeup Timer counter */
1296:Drivers/STM32L0xx_HAL_Driver/Src/stm32l0xx_hal_rtc_ex.c ****   hrtc->Instance->WUTR = (uint32_t)WakeUpCounter;
 2224              		.loc 1 1296 3 is_stmt 1 view .LVU728
 2225              		.loc 1 1296 7 is_stmt 0 view .LVU729
 2226 009a 2368     		ldr	r3, [r4]
 2227              		.loc 1 1296 24 view .LVU730
 2228 009c 5D61     		str	r5, [r3, #20]
1297:Drivers/STM32L0xx_HAL_Driver/Src/stm32l0xx_hal_rtc_ex.c **** 
1298:Drivers/STM32L0xx_HAL_Driver/Src/stm32l0xx_hal_rtc_ex.c ****   /* Enable and configure the EXTI line associated to the RTC Wakeup Timer interrupt */
1299:Drivers/STM32L0xx_HAL_Driver/Src/stm32l0xx_hal_rtc_ex.c ****   __HAL_RTC_WAKEUPTIMER_EXTI_ENABLE_IT();
 2229              		.loc 1 1299 3 is_stmt 1 view .LVU731
 2230 009e 1F4B     		ldr	r3, .L154+12
 2231 00a0 1968     		ldr	r1, [r3]
 2232 00a2 8022     		movs	r2, #128
 2233 00a4 5203     		lsls	r2, r2, #13
 2234 00a6 1143     		orrs	r1, r2
 2235 00a8 1960     		str	r1, [r3]
1300:Drivers/STM32L0xx_HAL_Driver/Src/stm32l0xx_hal_rtc_ex.c ****   __HAL_RTC_WAKEUPTIMER_EXTI_ENABLE_RISING_EDGE();
 2236              		.loc 1 1300 3 view .LVU732
 2237 00aa 9968     		ldr	r1, [r3, #8]
 2238 00ac 0A43     		orrs	r2, r1
 2239 00ae 9A60     		str	r2, [r3, #8]
ARM GAS  C:\Users\Tilen\AppData\Local\Temp\ccvNaC6x.s 			page 65


1301:Drivers/STM32L0xx_HAL_Driver/Src/stm32l0xx_hal_rtc_ex.c **** 
1302:Drivers/STM32L0xx_HAL_Driver/Src/stm32l0xx_hal_rtc_ex.c ****   /* Configure the interrupt in the RTC_CR register */
1303:Drivers/STM32L0xx_HAL_Driver/Src/stm32l0xx_hal_rtc_ex.c ****   __HAL_RTC_WAKEUPTIMER_ENABLE_IT(hrtc, RTC_IT_WUT);
 2240              		.loc 1 1303 3 view .LVU733
 2241 00b0 2268     		ldr	r2, [r4]
 2242 00b2 9168     		ldr	r1, [r2, #8]
 2243 00b4 8023     		movs	r3, #128
 2244 00b6 DB01     		lsls	r3, r3, #7
 2245 00b8 0B43     		orrs	r3, r1
 2246 00ba 9360     		str	r3, [r2, #8]
1304:Drivers/STM32L0xx_HAL_Driver/Src/stm32l0xx_hal_rtc_ex.c **** 
1305:Drivers/STM32L0xx_HAL_Driver/Src/stm32l0xx_hal_rtc_ex.c ****   /* Enable the Wakeup Timer */
1306:Drivers/STM32L0xx_HAL_Driver/Src/stm32l0xx_hal_rtc_ex.c ****   __HAL_RTC_WAKEUPTIMER_ENABLE(hrtc);
 2247              		.loc 1 1306 3 view .LVU734
 2248 00bc 2268     		ldr	r2, [r4]
 2249 00be 9168     		ldr	r1, [r2, #8]
 2250 00c0 8023     		movs	r3, #128
 2251 00c2 DB00     		lsls	r3, r3, #3
 2252 00c4 0B43     		orrs	r3, r1
 2253 00c6 9360     		str	r3, [r2, #8]
1307:Drivers/STM32L0xx_HAL_Driver/Src/stm32l0xx_hal_rtc_ex.c **** 
1308:Drivers/STM32L0xx_HAL_Driver/Src/stm32l0xx_hal_rtc_ex.c ****   /* Enable the write protection for RTC registers */
1309:Drivers/STM32L0xx_HAL_Driver/Src/stm32l0xx_hal_rtc_ex.c ****   __HAL_RTC_WRITEPROTECTION_ENABLE(hrtc);
 2254              		.loc 1 1309 3 view .LVU735
 2255              		.loc 1 1309 3 view .LVU736
 2256 00c8 2368     		ldr	r3, [r4]
 2257 00ca FF22     		movs	r2, #255
 2258 00cc 5A62     		str	r2, [r3, #36]
 2259              		.loc 1 1309 3 view .LVU737
1310:Drivers/STM32L0xx_HAL_Driver/Src/stm32l0xx_hal_rtc_ex.c **** 
1311:Drivers/STM32L0xx_HAL_Driver/Src/stm32l0xx_hal_rtc_ex.c ****   hrtc->State = HAL_RTC_STATE_READY;
 2260              		.loc 1 1311 3 view .LVU738
 2261              		.loc 1 1311 15 is_stmt 0 view .LVU739
 2262 00ce 2123     		movs	r3, #33
 2263 00d0 FE3A     		subs	r2, r2, #254
 2264 00d2 E254     		strb	r2, [r4, r3]
1312:Drivers/STM32L0xx_HAL_Driver/Src/stm32l0xx_hal_rtc_ex.c **** 
1313:Drivers/STM32L0xx_HAL_Driver/Src/stm32l0xx_hal_rtc_ex.c ****   /* Process Unlocked */
1314:Drivers/STM32L0xx_HAL_Driver/Src/stm32l0xx_hal_rtc_ex.c ****   __HAL_UNLOCK(hrtc);
 2265              		.loc 1 1314 3 is_stmt 1 view .LVU740
 2266              		.loc 1 1314 3 view .LVU741
 2267 00d4 013B     		subs	r3, r3, #1
 2268 00d6 0022     		movs	r2, #0
 2269 00d8 E254     		strb	r2, [r4, r3]
 2270              		.loc 1 1314 3 view .LVU742
1315:Drivers/STM32L0xx_HAL_Driver/Src/stm32l0xx_hal_rtc_ex.c **** 
1316:Drivers/STM32L0xx_HAL_Driver/Src/stm32l0xx_hal_rtc_ex.c ****   return HAL_OK;
 2271              		.loc 1 1316 3 view .LVU743
 2272              		.loc 1 1316 10 is_stmt 0 view .LVU744
 2273 00da 0020     		movs	r0, #0
 2274 00dc 13E0     		b	.L142
 2275              	.L152:
1250:Drivers/STM32L0xx_HAL_Driver/Src/stm32l0xx_hal_rtc_ex.c **** 
 2276              		.loc 1 1250 9 is_stmt 1 view .LVU745
1250:Drivers/STM32L0xx_HAL_Driver/Src/stm32l0xx_hal_rtc_ex.c **** 
 2277              		.loc 1 1250 9 view .LVU746
 2278 00de FF33     		adds	r3, r3, #255
ARM GAS  C:\Users\Tilen\AppData\Local\Temp\ccvNaC6x.s 			page 66


 2279 00e0 4B62     		str	r3, [r1, #36]
1250:Drivers/STM32L0xx_HAL_Driver/Src/stm32l0xx_hal_rtc_ex.c **** 
 2280              		.loc 1 1250 9 view .LVU747
1252:Drivers/STM32L0xx_HAL_Driver/Src/stm32l0xx_hal_rtc_ex.c **** 
 2281              		.loc 1 1252 9 view .LVU748
1252:Drivers/STM32L0xx_HAL_Driver/Src/stm32l0xx_hal_rtc_ex.c **** 
 2282              		.loc 1 1252 21 is_stmt 0 view .LVU749
 2283 00e2 DE3B     		subs	r3, r3, #222
 2284 00e4 0322     		movs	r2, #3
 2285 00e6 E254     		strb	r2, [r4, r3]
1255:Drivers/STM32L0xx_HAL_Driver/Src/stm32l0xx_hal_rtc_ex.c **** 
 2286              		.loc 1 1255 9 is_stmt 1 view .LVU750
1255:Drivers/STM32L0xx_HAL_Driver/Src/stm32l0xx_hal_rtc_ex.c **** 
 2287              		.loc 1 1255 9 view .LVU751
 2288 00e8 013B     		subs	r3, r3, #1
 2289 00ea 0022     		movs	r2, #0
 2290 00ec E254     		strb	r2, [r4, r3]
1255:Drivers/STM32L0xx_HAL_Driver/Src/stm32l0xx_hal_rtc_ex.c **** 
 2291              		.loc 1 1255 9 view .LVU752
1257:Drivers/STM32L0xx_HAL_Driver/Src/stm32l0xx_hal_rtc_ex.c ****       }
 2292              		.loc 1 1257 9 view .LVU753
1257:Drivers/STM32L0xx_HAL_Driver/Src/stm32l0xx_hal_rtc_ex.c ****       }
 2293              		.loc 1 1257 16 is_stmt 0 view .LVU754
 2294 00ee 0320     		movs	r0, #3
 2295 00f0 09E0     		b	.L142
 2296              	.L153:
1278:Drivers/STM32L0xx_HAL_Driver/Src/stm32l0xx_hal_rtc_ex.c **** 
 2297              		.loc 1 1278 7 is_stmt 1 view .LVU755
1278:Drivers/STM32L0xx_HAL_Driver/Src/stm32l0xx_hal_rtc_ex.c **** 
 2298              		.loc 1 1278 7 view .LVU756
 2299 00f2 2368     		ldr	r3, [r4]
 2300 00f4 FF22     		movs	r2, #255
 2301 00f6 5A62     		str	r2, [r3, #36]
1278:Drivers/STM32L0xx_HAL_Driver/Src/stm32l0xx_hal_rtc_ex.c **** 
 2302              		.loc 1 1278 7 view .LVU757
1280:Drivers/STM32L0xx_HAL_Driver/Src/stm32l0xx_hal_rtc_ex.c **** 
 2303              		.loc 1 1280 7 view .LVU758
1280:Drivers/STM32L0xx_HAL_Driver/Src/stm32l0xx_hal_rtc_ex.c **** 
 2304              		.loc 1 1280 19 is_stmt 0 view .LVU759
 2305 00f8 2123     		movs	r3, #33
 2306 00fa FC3A     		subs	r2, r2, #252
 2307 00fc E254     		strb	r2, [r4, r3]
1283:Drivers/STM32L0xx_HAL_Driver/Src/stm32l0xx_hal_rtc_ex.c **** 
 2308              		.loc 1 1283 7 is_stmt 1 view .LVU760
1283:Drivers/STM32L0xx_HAL_Driver/Src/stm32l0xx_hal_rtc_ex.c **** 
 2309              		.loc 1 1283 7 view .LVU761
 2310 00fe 013B     		subs	r3, r3, #1
 2311 0100 0022     		movs	r2, #0
 2312 0102 E254     		strb	r2, [r4, r3]
1283:Drivers/STM32L0xx_HAL_Driver/Src/stm32l0xx_hal_rtc_ex.c **** 
 2313              		.loc 1 1283 7 view .LVU762
1285:Drivers/STM32L0xx_HAL_Driver/Src/stm32l0xx_hal_rtc_ex.c ****     }
 2314              		.loc 1 1285 7 view .LVU763
1285:Drivers/STM32L0xx_HAL_Driver/Src/stm32l0xx_hal_rtc_ex.c ****     }
 2315              		.loc 1 1285 14 is_stmt 0 view .LVU764
 2316 0104 0320     		movs	r0, #3
 2317              	.L142:
ARM GAS  C:\Users\Tilen\AppData\Local\Temp\ccvNaC6x.s 			page 67


1317:Drivers/STM32L0xx_HAL_Driver/Src/stm32l0xx_hal_rtc_ex.c **** }
 2318              		.loc 1 1317 1 view .LVU765
 2319 0106 02B0     		add	sp, sp, #8
 2320              		@ sp needed
 2321              	.LVL168:
 2322              	.LVL169:
 2323              	.LVL170:
 2324              		.loc 1 1317 1 view .LVU766
 2325 0108 70BD     		pop	{r4, r5, r6, pc}
 2326              	.LVL171:
 2327              	.L148:
1233:Drivers/STM32L0xx_HAL_Driver/Src/stm32l0xx_hal_rtc_ex.c **** 
 2328              		.loc 1 1233 3 discriminator 1 view .LVU767
 2329 010a 0220     		movs	r0, #2
 2330 010c FBE7     		b	.L142
 2331              	.L155:
 2332 010e C046     		.align	2
 2333              	.L154:
 2334 0110 00000000 		.word	SystemCoreClock
 2335 0114 FFFBFFFF 		.word	-1025
 2336 0118 7FFBFFFF 		.word	-1153
 2337 011c 00040140 		.word	1073808384
 2338              		.cfi_endproc
 2339              	.LFE62:
 2341              		.section	.text.HAL_RTCEx_DeactivateWakeUpTimer,"ax",%progbits
 2342              		.align	1
 2343              		.global	HAL_RTCEx_DeactivateWakeUpTimer
 2344              		.syntax unified
 2345              		.code	16
 2346              		.thumb_func
 2348              	HAL_RTCEx_DeactivateWakeUpTimer:
 2349              	.LVL172:
 2350              	.LFB63:
1318:Drivers/STM32L0xx_HAL_Driver/Src/stm32l0xx_hal_rtc_ex.c **** 
1319:Drivers/STM32L0xx_HAL_Driver/Src/stm32l0xx_hal_rtc_ex.c **** /**
1320:Drivers/STM32L0xx_HAL_Driver/Src/stm32l0xx_hal_rtc_ex.c ****   * @brief  Deactivates wakeup timer counter.
1321:Drivers/STM32L0xx_HAL_Driver/Src/stm32l0xx_hal_rtc_ex.c ****   * @param  hrtc pointer to a RTC_HandleTypeDef structure that contains
1322:Drivers/STM32L0xx_HAL_Driver/Src/stm32l0xx_hal_rtc_ex.c ****   *                the configuration information for RTC.
1323:Drivers/STM32L0xx_HAL_Driver/Src/stm32l0xx_hal_rtc_ex.c ****   * @retval HAL status
1324:Drivers/STM32L0xx_HAL_Driver/Src/stm32l0xx_hal_rtc_ex.c ****   */
1325:Drivers/STM32L0xx_HAL_Driver/Src/stm32l0xx_hal_rtc_ex.c **** HAL_StatusTypeDef HAL_RTCEx_DeactivateWakeUpTimer(RTC_HandleTypeDef *hrtc)
1326:Drivers/STM32L0xx_HAL_Driver/Src/stm32l0xx_hal_rtc_ex.c **** {
 2351              		.loc 1 1326 1 is_stmt 1 view -0
 2352              		.cfi_startproc
 2353              		@ args = 0, pretend = 0, frame = 0
 2354              		@ frame_needed = 0, uses_anonymous_args = 0
 2355              		.loc 1 1326 1 is_stmt 0 view .LVU769
 2356 0000 70B5     		push	{r4, r5, r6, lr}
 2357              	.LCFI14:
 2358              		.cfi_def_cfa_offset 16
 2359              		.cfi_offset 4, -16
 2360              		.cfi_offset 5, -12
 2361              		.cfi_offset 6, -8
 2362              		.cfi_offset 14, -4
 2363 0002 0400     		movs	r4, r0
1327:Drivers/STM32L0xx_HAL_Driver/Src/stm32l0xx_hal_rtc_ex.c ****   uint32_t tickstart = 0U;
 2364              		.loc 1 1327 3 is_stmt 1 view .LVU770
ARM GAS  C:\Users\Tilen\AppData\Local\Temp\ccvNaC6x.s 			page 68


 2365              	.LVL173:
1328:Drivers/STM32L0xx_HAL_Driver/Src/stm32l0xx_hal_rtc_ex.c **** 
1329:Drivers/STM32L0xx_HAL_Driver/Src/stm32l0xx_hal_rtc_ex.c ****   /* Process Locked */
1330:Drivers/STM32L0xx_HAL_Driver/Src/stm32l0xx_hal_rtc_ex.c ****   __HAL_LOCK(hrtc);
 2366              		.loc 1 1330 3 view .LVU771
 2367              		.loc 1 1330 3 view .LVU772
 2368 0004 2023     		movs	r3, #32
 2369 0006 C35C     		ldrb	r3, [r0, r3]
 2370 0008 012B     		cmp	r3, #1
 2371 000a 38D0     		beq	.L160
 2372              		.loc 1 1330 3 discriminator 2 view .LVU773
 2373 000c 2023     		movs	r3, #32
 2374 000e 0122     		movs	r2, #1
 2375 0010 C254     		strb	r2, [r0, r3]
 2376              		.loc 1 1330 3 view .LVU774
1331:Drivers/STM32L0xx_HAL_Driver/Src/stm32l0xx_hal_rtc_ex.c **** 
1332:Drivers/STM32L0xx_HAL_Driver/Src/stm32l0xx_hal_rtc_ex.c ****   hrtc->State = HAL_RTC_STATE_BUSY;
 2377              		.loc 1 1332 3 view .LVU775
 2378              		.loc 1 1332 15 is_stmt 0 view .LVU776
 2379 0012 0133     		adds	r3, r3, #1
 2380 0014 0132     		adds	r2, r2, #1
 2381 0016 C254     		strb	r2, [r0, r3]
1333:Drivers/STM32L0xx_HAL_Driver/Src/stm32l0xx_hal_rtc_ex.c **** 
1334:Drivers/STM32L0xx_HAL_Driver/Src/stm32l0xx_hal_rtc_ex.c ****   /* Disable the write protection for RTC registers */
1335:Drivers/STM32L0xx_HAL_Driver/Src/stm32l0xx_hal_rtc_ex.c ****   __HAL_RTC_WRITEPROTECTION_DISABLE(hrtc);
 2382              		.loc 1 1335 3 is_stmt 1 view .LVU777
 2383              		.loc 1 1335 3 view .LVU778
 2384 0018 0368     		ldr	r3, [r0]
 2385 001a C832     		adds	r2, r2, #200
 2386 001c 5A62     		str	r2, [r3, #36]
 2387              		.loc 1 1335 3 view .LVU779
 2388 001e 0368     		ldr	r3, [r0]
 2389 0020 773A     		subs	r2, r2, #119
 2390 0022 5A62     		str	r2, [r3, #36]
 2391              		.loc 1 1335 3 view .LVU780
1336:Drivers/STM32L0xx_HAL_Driver/Src/stm32l0xx_hal_rtc_ex.c **** 
1337:Drivers/STM32L0xx_HAL_Driver/Src/stm32l0xx_hal_rtc_ex.c ****   /* Disable the Wakeup Timer */
1338:Drivers/STM32L0xx_HAL_Driver/Src/stm32l0xx_hal_rtc_ex.c ****   __HAL_RTC_WAKEUPTIMER_DISABLE(hrtc);
 2392              		.loc 1 1338 3 view .LVU781
 2393 0024 0268     		ldr	r2, [r0]
 2394 0026 9368     		ldr	r3, [r2, #8]
 2395 0028 1649     		ldr	r1, .L162
 2396 002a 0B40     		ands	r3, r1
 2397 002c 9360     		str	r3, [r2, #8]
1339:Drivers/STM32L0xx_HAL_Driver/Src/stm32l0xx_hal_rtc_ex.c **** 
1340:Drivers/STM32L0xx_HAL_Driver/Src/stm32l0xx_hal_rtc_ex.c ****   /* In case interrupt mode is used, the interrupt source must disabled */
1341:Drivers/STM32L0xx_HAL_Driver/Src/stm32l0xx_hal_rtc_ex.c ****   __HAL_RTC_WAKEUPTIMER_DISABLE_IT(hrtc, RTC_IT_WUT);
 2398              		.loc 1 1341 3 view .LVU782
 2399 002e 0268     		ldr	r2, [r0]
 2400 0030 9368     		ldr	r3, [r2, #8]
 2401 0032 1549     		ldr	r1, .L162+4
 2402 0034 0B40     		ands	r3, r1
 2403 0036 9360     		str	r3, [r2, #8]
1342:Drivers/STM32L0xx_HAL_Driver/Src/stm32l0xx_hal_rtc_ex.c **** 
1343:Drivers/STM32L0xx_HAL_Driver/Src/stm32l0xx_hal_rtc_ex.c ****   /* Get tick */
1344:Drivers/STM32L0xx_HAL_Driver/Src/stm32l0xx_hal_rtc_ex.c ****   tickstart = HAL_GetTick();
 2404              		.loc 1 1344 3 view .LVU783
ARM GAS  C:\Users\Tilen\AppData\Local\Temp\ccvNaC6x.s 			page 69


 2405              		.loc 1 1344 15 is_stmt 0 view .LVU784
 2406 0038 FFF7FEFF 		bl	HAL_GetTick
 2407              	.LVL174:
 2408              		.loc 1 1344 15 view .LVU785
 2409 003c 0500     		movs	r5, r0
 2410              	.LVL175:
1345:Drivers/STM32L0xx_HAL_Driver/Src/stm32l0xx_hal_rtc_ex.c **** 
1346:Drivers/STM32L0xx_HAL_Driver/Src/stm32l0xx_hal_rtc_ex.c ****   /* Wait till RTC WUTWF flag is set and if timeout is reached exit */
1347:Drivers/STM32L0xx_HAL_Driver/Src/stm32l0xx_hal_rtc_ex.c ****   while (__HAL_RTC_WAKEUPTIMER_GET_FLAG(hrtc, RTC_FLAG_WUTWF) == 0U)
 2411              		.loc 1 1347 3 is_stmt 1 view .LVU786
 2412              	.L158:
 2413              		.loc 1 1347 63 view .LVU787
 2414              		.loc 1 1347 10 is_stmt 0 view .LVU788
 2415 003e 2268     		ldr	r2, [r4]
 2416 0040 D368     		ldr	r3, [r2, #12]
 2417              		.loc 1 1347 63 view .LVU789
 2418 0042 5B07     		lsls	r3, r3, #29
 2419 0044 11D4     		bmi	.L161
1348:Drivers/STM32L0xx_HAL_Driver/Src/stm32l0xx_hal_rtc_ex.c ****   {
1349:Drivers/STM32L0xx_HAL_Driver/Src/stm32l0xx_hal_rtc_ex.c ****     if ((HAL_GetTick() - tickstart) > RTC_TIMEOUT_VALUE)
 2420              		.loc 1 1349 5 is_stmt 1 view .LVU790
 2421              		.loc 1 1349 10 is_stmt 0 view .LVU791
 2422 0046 FFF7FEFF 		bl	HAL_GetTick
 2423              	.LVL176:
 2424              		.loc 1 1349 24 discriminator 1 view .LVU792
 2425 004a 401B     		subs	r0, r0, r5
 2426              		.loc 1 1349 8 discriminator 1 view .LVU793
